TN:
SF:/qulacs-osaka/include/Eigen/src/Core/AssignEvaluator.h
FN:397,_ZN5Eigen8internal21dense_assignment_loopINS0_31generic_dense_assignment_kernelINS0_9evaluatorINS_6MatrixISt7complexIdELin1ELi1ELi0ELin1ELi1EEEEENS3_INS_14CwiseNullaryOpINS0_18scalar_constant_opIS6_EES7_EEEENS0_9assign_opIS6_S6_EELi0EEELi3ELi0EE3runERSG_
FNDA:8,_ZN5Eigen8internal21dense_assignment_loopINS0_31generic_dense_assignment_kernelINS0_9evaluatorINS_6MatrixISt7complexIdELin1ELi1ELi0ELin1ELi1EEEEENS3_INS_14CwiseNullaryOpINS0_18scalar_constant_opIS6_EES7_EEEENS0_9assign_opIS6_S6_EELi0EEELi3ELi0EE3runERSG_
FN:397,_ZN5Eigen8internal21dense_assignment_loopINS0_31generic_dense_assignment_kernelINS0_9evaluatorINS_6MatrixISt7complexIdELin1ELi1ELi0ELin1ELi1EEEEES8_NS0_9assign_opIS6_S6_EELi0EEELi3ELi0EE3runERSB_
FNDA:8,_ZN5Eigen8internal21dense_assignment_loopINS0_31generic_dense_assignment_kernelINS0_9evaluatorINS_6MatrixISt7complexIdELin1ELi1ELi0ELin1ELi1EEEEES8_NS0_9assign_opIS6_S6_EELi0EEELi3ELi0EE3runERSB_
FN:725,_ZN5Eigen8internal26call_dense_assignment_loopINS_6MatrixISt7complexIdELin1ELi1ELi0ELin1ELi1EEENS_14CwiseNullaryOpINS0_18scalar_constant_opIS4_EES5_EENS0_9assign_opIS4_S4_EEEEvRT_RKT0_RKT1_
FNDA:8,_ZN5Eigen8internal26call_dense_assignment_loopINS_6MatrixISt7complexIdELin1ELi1ELi0ELin1ELi1EEENS_14CwiseNullaryOpINS0_18scalar_constant_opIS4_EES5_EENS0_9assign_opIS4_S4_EEEEvRT_RKT0_RKT1_
FN:725,_ZN5Eigen8internal26call_dense_assignment_loopINS_6MatrixISt7complexIdELin1ELi1ELi0ELin1ELi1EEES5_NS0_9assign_opIS4_S4_EEEEvRT_RKT0_RKT1_
FNDA:8,_ZN5Eigen8internal26call_dense_assignment_loopINS_6MatrixISt7complexIdELin1ELi1ELi0ELin1ELi1EEES5_NS0_9assign_opIS4_S4_EEEEvRT_RKT0_RKT1_
FNF:4
FNH:4
DA:389,16
DA:390,0
DA:397,8
DA:399,8
DA:411,8
DA:415,136
DA:416,128
DA:419,8
DA:397,8
DA:399,8
DA:411,8
DA:415,136
DA:416,128
DA:419,8
DA:610,16
DA:611,16
DA:637,0
DA:658,256
DA:719,16
DA:720,0
DA:725,8
DA:741,8
DA:742,8
DA:725,8
DA:741,8
DA:742,8
DA:782,8
DA:836,8
DA:879,8
LF:29
LH:26
end_of_record
SF:/usr/include/c++/9/complex
DA:393,768
DA:1234,16
DA:1252,0
DA:1256,0
DA:1331,512
DA:1347,256
DA:1348,768
LF:7
LH:5
end_of_record
SF:/usr/include/c++/9/new
DA:57,0
LF:1
LH:0
end_of_record
SF:/qulacs-osaka/include/Eigen/src/SparseCore/SparseMatrix.h
DA:148,256
DA:157,256
LF:2
LH:2
end_of_record
SF:/qulacs-osaka/include/Eigen/src/Core/GenericPacketMath.h
DA:530,0
LF:1
LH:0
end_of_record
SF:/qulacs-osaka/include/Eigen/src/Core/Product.h
DA:93,0
LF:1
LH:0
end_of_record
SF:/qulacs-osaka/src/csim/utility.hpp
DA:12,40
DA:13,40
LF:2
LH:2
end_of_record
SF:/qulacs-osaka/include/Eigen/src/Core/Matrix.h
FN:291,_ZN5Eigen6MatrixISt7complexIdELin1ELi1ELi0ELin1ELi1EEC2INS_7ProductINS_12SparseMatrixIS2_Li0EiEES3_Li0EEEEERKT_
FNDA:8,_ZN5Eigen6MatrixISt7complexIdELin1ELi1ELi0ELin1ELi1EEC2INS_7ProductINS_12SparseMatrixIS2_Li0EiEES3_Li0EEEEERKT_
FN:291,_ZN5Eigen6MatrixISt7complexIdELin1ELi1ELi0ELin1ELi1EEC2INS_7ProductINS0_IS2_Lin1ELin1ELi0ELin1ELin1EEES3_Li0EEEEERKT_
FNDA:0,_ZN5Eigen6MatrixISt7complexIdELin1ELi1ELi0ELin1ELi1EEC2INS_7ProductINS0_IS2_Lin1ELin1ELi0ELin1ELin1EEES3_Li0EEEEERKT_
FN:291,_ZN5Eigen6MatrixISt7complexIdELin1ELi1ELi0ELin1ELi1EEC2INS_7ProductINS0_IS2_Lin1ELin1ELi1ELin1ELin1EEES3_Li0EEEEERKT_
FNDA:0,_ZN5Eigen6MatrixISt7complexIdELin1ELi1ELi0ELin1ELi1EEC2INS_7ProductINS0_IS2_Lin1ELin1ELi1ELin1ELin1EEES3_Li0EEEEERKT_
FN:291,_ZN5Eigen6MatrixISt7complexIdELin1ELi1ELi0ELin1ELi1EEC2INS_7ProductINS_3MapIKNS0_IS2_Lin1ELin1ELi1ELin1ELin1EEELi16ENS_6StrideILi0ELi0EEEEES3_Li0EEEEERKT_
FNDA:0,_ZN5Eigen6MatrixISt7complexIdELin1ELi1ELi0ELin1ELi1EEC2INS_7ProductINS_3MapIKNS0_IS2_Lin1ELin1ELi1ELin1ELin1EEELi16ENS_6StrideILi0ELi0EEEEES3_Li0EEEEERKT_
FN:291,_ZN5Eigen6MatrixISt7complexIdELin1ELi1ELi0ELin1ELi1EEC2IyEERKT_
FNDA:4,_ZN5Eigen6MatrixISt7complexIdELin1ELi1ELi0ELin1ELi1EEC2IyEERKT_
FNF:5
FNH:2
DA:225,8
DA:291,8
DA:292,8
DA:295,8
DA:291,0
DA:292,0
DA:295,0
DA:291,0
DA:292,0
DA:295,0
DA:291,0
DA:292,0
DA:295,0
DA:291,4
DA:294,4
DA:295,4
LF:16
LH:7
end_of_record
SF:/qulacs-osaka/include/Eigen/src/Core/util/Memory.h
FN:67,_ZN5Eigen8internal19throw_std_bad_allocEv
FNDA:0,_ZN5Eigen8internal19throw_std_bad_allocEv
FN:153,_ZN5Eigen8internal14aligned_mallocEm
FNDA:12,_ZN5Eigen8internal14aligned_mallocEm
FN:369,_ZN5Eigen8internal28conditional_aligned_new_autoISt7complexIdELb1EEEPT_m
FNDA:12,_ZN5Eigen8internal28conditional_aligned_new_autoISt7complexIdELb1EEEPT_m
FNF:3
FNH:2
DA:67,0
DA:70,0
DA:88,12
DA:89,12
DA:90,12
DA:91,12
DA:92,12
DA:98,4
DA:153,12
DA:167,12
DA:168,0
DA:170,12
DA:214,12
DA:288,12
DA:289,0
DA:369,12
DA:371,12
DA:374,12
DA:387,12
DA:451,0
DA:459,0
DA:460,0
DA:574,0
LF:23
LH:15
end_of_record
SF:/qulacs-osaka/include/Eigen/src/Core/arch/AVX/Complex.h
DA:316,0
LF:1
LH:0
end_of_record
SF:/usr/include/c++/9/bits/exception.h
DA:63,0
LF:1
LH:0
end_of_record
SF:/qulacs-osaka/include/Eigen/src/Core/products/GeneralMatrixVector.h
FN:88,_ZN5Eigen8internal29general_matrix_vector_productIlSt7complexIdENS0_22const_blas_data_mapperIS3_lLi0EEELi0ELb0ES3_NS4_IS3_lLi1EEELb0ELi0EE3runEllRKS5_RKS6_PS3_lS3_
FNDA:0,_ZN5Eigen8internal29general_matrix_vector_productIlSt7complexIdENS0_22const_blas_data_mapperIS3_lLi0EEELi0ELb0ES3_NS4_IS3_lLi1EEELb0ELi0EE3runEllRKS5_RKS6_PS3_lS3_
FN:364,_ZN5Eigen8internal29general_matrix_vector_productIlSt7complexIdENS0_22const_blas_data_mapperIS3_lLi1EEELi1ELb0ES3_NS4_IS3_lLi0EEELb0ELi0EE3runEllRKS5_RKS6_PS3_lS3_
FNDA:0,_ZN5Eigen8internal29general_matrix_vector_productIlSt7complexIdENS0_22const_blas_data_mapperIS3_lLi1EEELi1ELb0ES3_NS4_IS3_lLi0EEELb0ELi0EE3runEllRKS5_RKS6_PS3_lS3_
FNF:2
FNH:0
DA:88,0
DA:124,0
DA:129,0
DA:130,0
DA:132,0
DA:138,0
DA:141,0
DA:143,0
DA:159,0
DA:160,0
DA:161,0
DA:162,0
DA:166,0
DA:170,0
DA:186,0
DA:187,0
DA:189,0
DA:190,0
DA:192,0
DA:193,0
DA:194,0
DA:195,0
DA:205,0
DA:207,0
DA:208,0
DA:209,0
DA:210,0
DA:213,0
DA:215,0
DA:218,0
DA:219,0
DA:222,0
DA:223,0
DA:225,0
DA:233,0
DA:234,0
DA:235,0
DA:237,0
DA:239,0
DA:241,0
DA:244,0
DA:245,0
DA:246,0
DA:249,0
DA:261,0
DA:262,0
DA:266,0
DA:267,0
DA:274,0
DA:276,0
DA:277,0
DA:278,0
DA:279,0
DA:288,0
DA:290,0
DA:297,0
DA:298,0
DA:300,0
DA:301,0
DA:302,0
DA:304,0
DA:305,0
DA:309,0
DA:310,0
DA:312,0
DA:316,0
DA:319,0
DA:322,0
DA:364,0
DA:395,0
DA:400,0
DA:401,0
DA:402,0
DA:404,0
DA:410,0
DA:414,0
DA:416,0
DA:417,0
DA:418,0
DA:433,0
DA:434,0
DA:435,0
DA:436,0
DA:440,0
DA:444,0
DA:460,0
DA:461,0
DA:463,0
DA:464,0
DA:471,0
DA:472,0
DA:477,0
DA:478,0
DA:482,0
DA:484,0
DA:489,0
DA:491,0
DA:494,0
DA:498,0
DA:501,0
DA:513,0
DA:514,0
DA:515,0
DA:517,0
DA:520,0
DA:522,0
DA:526,0
DA:528,0
DA:539,0
DA:544,0
DA:557,0
DA:559,0
DA:563,0
DA:564,0
DA:565,0
DA:566,0
DA:574,0
DA:576,0
DA:581,0
DA:584,0
DA:587,0
DA:588,0
DA:591,0
DA:598,0
DA:600,0
DA:602,0
DA:606,0
DA:609,0
DA:613,0
LF:129
LH:0
end_of_record
SF:/usr/include/c++/9/bits/stl_algobase.h
DA:203,0
DA:204,0
LF:2
LH:0
end_of_record
SF:/qulacs-osaka/include/Eigen/src/Core/functors/NullaryFunctors.h
DA:19,16
DA:23,128
LF:2
LH:2
end_of_record
SF:/qulacs-osaka/include/Eigen/src/Core/Map.h
DA:94,0
LF:1
LH:0
end_of_record
SF:/qulacs-osaka/include/Eigen/src/Core/Stride.h
DA:71,0
LF:1
LH:0
end_of_record
SF:/usr/lib/gcc/x86_64-linux-gnu/9/include/avxintrin.h
DA:143,0
DA:155,0
DA:196,0
DA:314,0
DA:339,0
DA:513,0
DA:683,0
DA:741,128
DA:862,128
DA:868,256
DA:886,0
LF:11
LH:3
end_of_record
SF:/qulacs-osaka/include/Eigen/src/Core/PlainObjectBase.h
FN:279,_ZN5Eigen15PlainObjectBaseINS_6MatrixISt7complexIdELin1ELi1ELi0ELin1ELi1EEEE6resizeEll
FNDA:8,_ZN5Eigen15PlainObjectBaseINS_6MatrixISt7complexIdELin1ELi1ELi0ELin1ELi1EEEE6resizeEll
FNF:1
FNH:1
DA:45,16
DA:46,8
DA:48,0
DA:98,0
DA:151,40
DA:153,0
DA:165,256
DA:188,512
DA:256,528
DA:260,0
DA:279,8
DA:293,8
DA:295,8
DA:319,4
DA:781,4
DA:817,8
LF:16
LH:12
end_of_record
SF:/qulacs-osaka/include/Eigen/src/Core/MapBase.h
DA:90,0
DA:92,0
LF:2
LH:0
end_of_record
SF:/qulacs-osaka/include/Eigen/src/SparseCore/SparseDenseProduct.h
FN:92,_ZN5Eigen8internal30sparse_time_dense_product_implINS_12SparseMatrixISt7complexIdELi0EiEENS_6MatrixIS4_Lin1ELi1ELi0ELin1ELi1EEES7_S4_Li0ELb1EE3runERKS5_RKS7_RS7_RKS4_
FNDA:8,_ZN5Eigen8internal30sparse_time_dense_product_implINS_12SparseMatrixISt7complexIdELi0EiEENS_6MatrixIS4_Lin1ELi1ELi0ELin1ELi1EEES7_S4_Li0ELb1EE3runERKS5_RKS7_RS7_RKS4_
FNF:1
FNH:1
DA:92,8
DA:95,16
DA:97,264
DA:101,768
DA:102,512
DA:105,8
DA:149,8
LF:7
LH:7
end_of_record
SF:/qulacs-osaka/include/Eigen/src/Core/CoreEvaluators.h
DA:154,16
DA:155,16
DA:172,0
DA:187,768
DA:204,128
DA:472,8
LF:6
LH:5
end_of_record
SF:/qulacs-osaka/include/Eigen/src/Core/CwiseNullaryOp.h
FN:499,_ZN5Eigen9DenseBaseINS_6MatrixISt7complexIdELin1ELi1ELi0ELin1ELi1EEEE7setZeroEv
FNDA:8,_ZN5Eigen9DenseBaseINS_6MatrixISt7complexIdELin1ELi1ELi0ELin1ELi1EEEE7setZeroEv
FNF:1
FNH:1
DA:78,8
DA:327,8
DA:499,8
DA:501,8
LF:4
LH:4
end_of_record
SF:/qulacs-osaka/include/Eigen/src/Core/functors/AssignmentFunctors.h
DA:24,0
LF:1
LH:0
end_of_record
SF:/qulacs-osaka/include/Eigen/src/Core/GeneralProduct.h
FN:204,_ZN5Eigen8internal19gemv_dense_selectorILi2ELi0ELb1EE3runINS_6MatrixISt7complexIdELin1ELin1ELi0ELin1ELin1EEENS4_IS6_Lin1ELi1ELi0ELin1ELi1EEES8_EEvRKT_RKT0_RT1_RKNSF_6ScalarE
FNDA:0,_ZN5Eigen8internal19gemv_dense_selectorILi2ELi0ELb1EE3runINS_6MatrixISt7complexIdELin1ELin1ELi0ELin1ELin1EEENS4_IS6_Lin1ELi1ELi0ELin1ELi1EEES8_EEvRKT_RKT0_RT1_RKNSF_6ScalarE
FN:298,_ZN5Eigen8internal19gemv_dense_selectorILi2ELi1ELb1EE3runINS_6MatrixISt7complexIdELin1ELin1ELi1ELin1ELin1EEENS4_IS6_Lin1ELi1ELi0ELin1ELi1EEES8_EEvRKT_RKT0_RT1_RKNSF_6ScalarE
FNDA:0,_ZN5Eigen8internal19gemv_dense_selectorILi2ELi1ELb1EE3runINS_6MatrixISt7complexIdELin1ELin1ELi1ELin1ELin1EEENS4_IS6_Lin1ELi1ELi0ELin1ELi1EEES8_EEvRKT_RKT0_RT1_RKNSF_6ScalarE
FN:298,_ZN5Eigen8internal19gemv_dense_selectorILi2ELi1ELb1EE3runINS_3MapIKNS_6MatrixISt7complexIdELin1ELin1ELi1ELin1ELin1EEELi16ENS_6StrideILi0ELi0EEEEENS5_IS7_Lin1ELi1ELi0ELin1ELi1EEESD_EEvRKT_RKT0_RT1_RKNSK_6ScalarE
FNDA:0,_ZN5Eigen8internal19gemv_dense_selectorILi2ELi1ELb1EE3runINS_3MapIKNS_6MatrixISt7complexIdELin1ELin1ELi1ELin1ELin1EEELi16ENS_6StrideILi0ELi0EEEEENS5_IS7_Lin1ELi1ELi0ELin1ELi1EEESD_EEvRKT_RKT0_RT1_RKNSK_6ScalarE
FNF:3
FNH:0
DA:204,0
DA:237,0
DA:244,0
DA:292,0
DA:298,0
DA:314,0
DA:324,0
DA:339,0
DA:345,0
DA:298,0
DA:314,0
DA:324,0
DA:339,0
DA:345,0
LF:14
LH:0
end_of_record
SF:/qulacs-osaka/src/csim/update_ops_matrix_dense_multi_eigen.cpp
FN:8,_Z35multi_qubit_dense_matrix_gate_eigenPKjjPKSt7complexIdEPS2_y
FNDA:0,_Z35multi_qubit_dense_matrix_gate_eigenPKjjPKSt7complexIdEPS2_y
FN:56,_Z35multi_qubit_dense_matrix_gate_eigenPKjjRKN5Eigen6MatrixISt7complexIdELin1ELin1ELi1ELin1ELin1EEEPS4_y
FNDA:0,_Z35multi_qubit_dense_matrix_gate_eigenPKjjRKN5Eigen6MatrixISt7complexIdELin1ELin1ELi1ELin1ELin1EEEPS4_y
FN:102,_Z35multi_qubit_dense_matrix_gate_eigenPKjjRKN5Eigen6MatrixISt7complexIdELin1ELin1ELi0ELin1ELin1EEEPS4_y
FNDA:0,_Z35multi_qubit_dense_matrix_gate_eigenPKjjRKN5Eigen6MatrixISt7complexIdELin1ELin1ELi0ELin1ELin1EEEPS4_y
FN:146,_Z36multi_qubit_sparse_matrix_gate_eigenPKjjRKN5Eigen12SparseMatrixISt7complexIdELi0EiEEPS4_y
FNDA:4,_Z36multi_qubit_sparse_matrix_gate_eigenPKjjRKN5Eigen12SparseMatrixISt7complexIdELi0EiEEPS4_y
FNF:4
FNH:1
DA:8,0
DA:12,0
DA:13,0
DA:18,0
DA:19,0
DA:24,0
DA:28,0
DA:31,0
DA:34,0
DA:35,0
DA:41,0
DA:42,0
DA:45,0
DA:48,0
DA:49,0
DA:52,0
DA:53,0
DA:54,0
DA:56,0
DA:62,0
DA:63,0
DA:65,0
DA:70,0
DA:74,0
DA:77,0
DA:80,0
DA:81,0
DA:87,0
DA:88,0
DA:91,0
DA:94,0
DA:95,0
DA:98,0
DA:99,0
DA:100,0
DA:102,0
DA:106,0
DA:107,0
DA:111,0
DA:114,0
DA:118,0
DA:121,0
DA:124,0
DA:125,0
DA:131,0
DA:132,0
DA:135,0
DA:138,0
DA:139,0
DA:142,0
DA:143,0
DA:144,0
DA:146,4
DA:151,4
DA:152,4
DA:154,4
DA:159,4
DA:163,4
DA:166,12
DA:169,48
DA:170,40
DA:176,264
DA:177,256
DA:180,8
DA:183,264
DA:184,256
DA:187,4
DA:188,4
DA:189,4
LF:69
LH:17
end_of_record
SF:/qulacs-osaka/include/Eigen/src/Core/util/XprHelper.h
DA:120,8
LF:1
LH:1
end_of_record
SF:/usr/lib/gcc/x86_64-linux-gnu/9/include/emmintrin.h
DA:248,0
LF:1
LH:0
end_of_record
SF:/qulacs-osaka/include/Eigen/src/Core/ProductEvaluators.h
FN:348,_ZN5Eigen8internal25generic_product_impl_baseINS_12SparseMatrixISt7complexIdELi0EiEENS_6MatrixIS4_Lin1ELi1ELi0ELin1ELi1EEENS0_20generic_product_implIS5_S7_NS_11SparseShapeENS_10DenseShapeELi7EEEE6evalToIS7_EEvRT_RKS5_RKS7_
FNDA:8,_ZN5Eigen8internal25generic_product_impl_baseINS_12SparseMatrixISt7complexIdELi0EiEENS_6MatrixIS4_Lin1ELi1ELi0ELin1ELi1EEENS0_20generic_product_implIS5_S7_NS_11SparseShapeENS_10DenseShapeELi7EEEE6evalToIS7_EEvRT_RKS5_RKS7_
FN:348,_ZN5Eigen8internal25generic_product_impl_baseINS_6MatrixISt7complexIdELin1ELin1ELi0ELin1ELin1EEENS2_IS4_Lin1ELi1ELi0ELin1ELi1EEENS0_20generic_product_implIS5_S6_NS_10DenseShapeES8_Li7EEEE6evalToIS6_EEvRT_RKS5_RKS6_
FNDA:0,_ZN5Eigen8internal25generic_product_impl_baseINS_6MatrixISt7complexIdELin1ELin1ELi0ELin1ELin1EEENS2_IS4_Lin1ELi1ELi0ELin1ELi1EEENS0_20generic_product_implIS5_S6_NS_10DenseShapeES8_Li7EEEE6evalToIS6_EEvRT_RKS5_RKS6_
FN:348,_ZN5Eigen8internal25generic_product_impl_baseINS_6MatrixISt7complexIdELin1ELin1ELi1ELin1ELin1EEENS2_IS4_Lin1ELi1ELi0ELin1ELi1EEENS0_20generic_product_implIS5_S6_NS_10DenseShapeES8_Li7EEEE6evalToIS6_EEvRT_RKS5_RKS6_
FNDA:0,_ZN5Eigen8internal25generic_product_impl_baseINS_6MatrixISt7complexIdELin1ELin1ELi1ELin1ELin1EEENS2_IS4_Lin1ELi1ELi0ELin1ELi1EEENS0_20generic_product_implIS5_S6_NS_10DenseShapeES8_Li7EEEE6evalToIS6_EEvRT_RKS5_RKS6_
FN:348,_ZN5Eigen8internal25generic_product_impl_baseINS_3MapIKNS_6MatrixISt7complexIdELin1ELin1ELi1ELin1ELin1EEELi16ENS_6StrideILi0ELi0EEEEENS3_IS5_Lin1ELi1ELi0ELin1ELi1EEENS0_20generic_product_implISA_SB_NS_10DenseShapeESD_Li7EEEE6evalToISB_EEvRT_RKSA_RKSB_
FNDA:0,_ZN5Eigen8internal25generic_product_impl_baseINS_3MapIKNS_6MatrixISt7complexIdELin1ELin1ELi1ELin1ELin1EEELi16ENS_6StrideILi0ELi0EEEEENS3_IS5_Lin1ELi1ELi0ELin1ELi1EEENS0_20generic_product_implISA_SB_NS_10DenseShapeESD_Li7EEEE6evalToISB_EEvRT_RKSA_RKSB_
FNF:4
FNH:1
DA:348,8
DA:349,8
DA:348,0
DA:349,0
DA:348,0
DA:349,0
DA:348,0
DA:349,0
DA:383,0
LF:9
LH:2
end_of_record
SF:/qulacs-osaka/include/Eigen/src/Core/DenseStorage.h
DA:500,12
DA:542,4
LF:2
LH:2
end_of_record
SF:/qulacs-osaka/include/Eigen/src/SparseCore/SparseCompressedBase.h
DA:90,256
DA:100,256
DA:167,256
DA:168,256
DA:169,256
DA:171,0
DA:173,256
DA:187,512
DA:189,512
DA:192,512
LF:10
LH:9
end_of_record
SF:/qulacs-osaka/include/Eigen/src/Core/util/BlasUtil.h
DA:142,0
DA:146,0
DA:151,0
DA:200,0
DA:218,0
DA:243,0
DA:246,0
LF:7
LH:0
end_of_record
TN:
SF:/qulacs-osaka/src/csim/init_ops_random.cpp
FN:21,_Z28initialize_Haar_random_statePSt7complexIdEy
FNDA:1268,_Z28initialize_Haar_random_statePSt7complexIdEy
FN:24,_Z38initialize_Haar_random_state_with_seedPSt7complexIdEyj
FNDA:3490,_Z38initialize_Haar_random_state_with_seedPSt7complexIdEyj
FN:39,_Z45initialize_Haar_random_state_with_seed_singlePSt7complexIdEyj
FNDA:3336,_Z45initialize_Haar_random_state_with_seed_singlePSt7complexIdEyj
FN:63,_Z47initialize_Haar_random_state_with_seed_parallelPSt7complexIdEyj
FNDA:154,_Z47initialize_Haar_random_state_with_seed_parallelPSt7complexIdEyj
FN:121,_Z6xor128Pm
FNDA:1120610,_Z6xor128Pm
FN:129,_Z14random_uniformPm
FNDA:937888,_Z14random_uniformPm
FN:132,_Z13random_normalPm
FNDA:468944,_Z13random_normalPm
FNF:7
FNH:7
DA:21,1268
DA:22,1268
DA:23,1268
DA:24,3490
DA:28,3490
DA:29,3336
DA:31,154
DA:36,3490
DA:39,3336
DA:44,3336
DA:45,3336
DA:46,3336
DA:47,3336
DA:48,3336
DA:49,136776
DA:50,141552
DA:52,138216
DA:53,138216
DA:54,138216
DA:55,138216
DA:57,3336
DA:58,141552
DA:59,138216
DA:61,3336
DA:63,154
DA:67,154
DA:68,154
DA:69,154
DA:72,154
DA:73,154
DA:74,5082
DA:75,4928
DA:78,154
DA:79,1386
DA:80,1232
DA:82,154
DA:107,1386
DA:108,1232
DA:110,154
DA:112,154
DA:116,154
DA:117,154
DA:118,154
DA:121,1120610
DA:123,1120610
DA:124,1120610
DA:125,1120610
DA:126,1120610
DA:127,1120610
DA:129,937888
DA:130,937888
DA:132,468944
DA:133,468944
DA:134,468944
LF:54
LH:54
end_of_record
SF:/usr/include/c++/9/complex
DA:353,138216
DA:404,138216
DA:1289,138216
DA:1303,138216
DA:1310,138216
LF:5
LH:5
end_of_record
TN:
SF:/usr/include/c++/9/complex
DA:393,8384
DA:707,0
DA:1252,108
DA:1256,0
DA:1331,0
DA:1347,25136
DA:1348,25136
LF:7
LH:4
end_of_record
SF:/qulacs-osaka/src/csim/utility.hpp
DA:12,0
DA:13,0
LF:2
LH:0
end_of_record
SF:/qulacs-osaka/src/csim/stat_ops_dm.cpp
FN:12,_Z21dm_state_norm_squaredPKSt7complexIdEy
FNDA:191,_Z21dm_state_norm_squaredPKSt7complexIdEy
FN:25,_Z35dm_measurement_distribution_entropyPKSt7complexIdEy
FNDA:0,_Z35dm_measurement_distribution_entropyPKSt7complexIdEy
FN:42,_Z10dm_M0_probjPKSt7complexIdEy
FNDA:0,_Z10dm_M0_probjPKSt7complexIdEy
FN:59,_Z10dm_M1_probjPKSt7complexIdEy
FNDA:0,_Z10dm_M1_probjPKSt7complexIdEy
FN:79,_Z16dm_marginal_probPKjS0_jPKSt7complexIdEy
FNDA:36,_Z16dm_marginal_probPKjS0_jPKSt7complexIdEy
FN:101,_Z12dm_state_addPKSt7complexIdEPS0_y
FNDA:452,_Z12dm_state_addPKSt7complexIdEPS0_y
FN:111,_Z22dm_state_add_with_coefSt7complexIdEPKS0_PS0_y
FNDA:0,_Z22dm_state_add_with_coefSt7complexIdEPKS0_PS0_y
FN:122,_Z17dm_state_multiplySt7complexIdEPS0_y
FNDA:290,_Z17dm_state_multiplySt7complexIdEPS0_y
FN:132,_Z60dm_expectation_value_multi_qubit_Pauli_operator_partial_listPKjS0_jPKSt7complexIdEy
FNDA:108,_Z60dm_expectation_value_multi_qubit_Pauli_operator_partial_listPKjS0_jPKSt7complexIdEy
FN:173,_Z23dm_state_tensor_productPKSt7complexIdEyS2_yPS0_
FNDA:0,_Z23dm_state_tensor_productPKSt7complexIdEyS2_yPS0_
FN:193,_Z24dm_state_permutate_qubitPKjPKSt7complexIdEPS2_jy
FNDA:0,_Z24dm_state_permutate_qubitPKjPKSt7complexIdEPS2_jy
FN:213,_Z42dm_state_partial_trace_from_density_matrixPKjjPKSt7complexIdEPS2_y
FNDA:0,_Z42dm_state_partial_trace_from_density_matrixPKjjPKSt7complexIdEPS2_y
FN:246,_Z40dm_state_partial_trace_from_state_vectorPKjjPKSt7complexIdEPS2_y
FNDA:0,_Z40dm_state_partial_trace_from_state_vectorPKjjPKSt7complexIdEPS2_y
FNF:13
FNH:5
DA:12,191
DA:16,191
DA:21,191
DA:25,0
DA:30,0
DA:38,0
DA:42,0
DA:43,0
DA:44,0
DA:48,0
DA:55,0
DA:59,0
DA:60,0
DA:61,0
DA:65,0
DA:73,0
DA:79,36
DA:82,36
DA:86,36
DA:98,36
DA:101,452
DA:104,452
DA:109,452
DA:111,0
DA:115,0
DA:120,0
DA:122,290
DA:125,290
DA:130,290
DA:132,108
DA:135,108
DA:136,108
DA:137,632
DA:138,5312
DA:140,21540
DA:141,16752
DA:142,16752
DA:143,16752
DA:145,4788
DA:148,108
DA:152,1836
DA:155,4800
DA:156,3072
DA:157,3072
DA:158,1536
DA:159,1536
DA:162,10112
DA:163,8384
DA:164,8384
DA:168,108
DA:169,108
DA:170,108
DA:173,0
DA:176,0
DA:177,0
DA:178,0
DA:179,0
DA:180,0
DA:181,0
DA:182,0
DA:183,0
DA:184,0
DA:185,0
DA:186,0
DA:191,0
DA:193,0
DA:196,0
DA:197,0
DA:199,0
DA:201,0
DA:202,0
DA:204,0
DA:205,0
DA:208,0
DA:211,0
DA:213,0
DA:215,0
DA:216,0
DA:217,0
DA:218,0
DA:221,0
DA:222,0
DA:225,0
DA:227,0
DA:234,0
DA:235,0
DA:236,0
DA:237,0
DA:239,0
DA:242,0
DA:243,0
DA:244,0
DA:246,0
DA:248,0
DA:249,0
DA:250,0
DA:251,0
DA:254,0
DA:255,0
DA:258,0
DA:260,0
DA:267,0
DA:268,0
DA:269,0
DA:270,0
DA:272,0
DA:275,0
DA:276,0
DA:277,0
LF:109
LH:36
end_of_record
TN:
SF:/usr/include/c++/9/complex
DA:353,425
DA:383,76
DA:434,501
DA:457,76
DA:1310,501
LF:5
LH:5
end_of_record
SF:/qulacs-osaka/src/csim/update_ops_named.cpp
FN:19,_Z6S_gatejPSt7complexIdEy
FNDA:76,_Z6S_gatejPSt7complexIdEy
FN:22,_Z9Sdag_gatejPSt7complexIdEy
FNDA:76,_Z9Sdag_gatejPSt7complexIdEy
FN:25,_Z6T_gatejPSt7complexIdEy
FNDA:425,_Z6T_gatejPSt7complexIdEy
FN:29,_Z9Tdag_gatejPSt7complexIdEy
FNDA:76,_Z9Tdag_gatejPSt7complexIdEy
FN:33,_Z10sqrtX_gatejPSt7complexIdEy
FNDA:391,_Z10sqrtX_gatejPSt7complexIdEy
FN:37,_Z13sqrtXdag_gatejPSt7complexIdEy
FNDA:76,_Z13sqrtXdag_gatejPSt7complexIdEy
FN:41,_Z10sqrtY_gatejPSt7complexIdEy
FNDA:376,_Z10sqrtY_gatejPSt7complexIdEy
FN:45,_Z13sqrtYdag_gatejPSt7complexIdEy
FNDA:76,_Z13sqrtYdag_gatejPSt7complexIdEy
FNF:8
FNH:8
DA:19,76
DA:20,76
DA:21,76
DA:22,76
DA:23,76
DA:24,76
DA:25,425
DA:26,425
DA:28,425
DA:29,76
DA:30,76
DA:32,76
DA:33,391
DA:34,391
DA:36,391
DA:37,76
DA:38,76
DA:40,76
DA:41,376
DA:42,376
DA:44,376
DA:45,76
DA:46,76
DA:48,76
LF:24
LH:24
end_of_record
TN:
SF:/qulacs-osaka/src/csim/update_ops_matrix_diagonal_multi.cpp
FN:20,_Z32multi_qubit_diagonal_matrix_gatePKjjPKSt7complexIdEPS2_y
FNDA:20,_Z32multi_qubit_diagonal_matrix_gatePKjjPKSt7complexIdEPS2_y
FN:60,_Z52multi_qubit_control_multi_qubit_diagonal_matrix_gatePKjS0_jS0_jPKSt7complexIdEPS2_y
FNDA:40,_Z52multi_qubit_control_multi_qubit_diagonal_matrix_gatePKjS0_jS0_jPKSt7complexIdEPS2_y
FNF:2
FNH:2
DA:20,20
DA:24,20
DA:25,20
DA:28,20
DA:31,20
DA:35,20
DA:36,20
DA:37,20
DA:54,20
DA:56,20
DA:57,20
DA:58,20
DA:60,40
DA:66,40
DA:67,40
DA:71,40
DA:73,40
DA:78,40
DA:82,40
DA:88,40
DA:89,40
DA:90,40
DA:110,40
DA:112,40
DA:113,40
DA:114,40
LF:26
LH:26
end_of_record
SF:/usr/include/c++/9/complex
LF:0
LH:0
end_of_record
SF:/qulacs-osaka/src/csim/utility.hpp
LF:0
LH:0
end_of_record
TN:
SF:/usr/include/c++/9/complex
DA:393,832
DA:1252,186
DA:1256,186
DA:1331,832
DA:1348,832
LF:5
LH:5
end_of_record
SF:/qulacs-osaka/src/csim/update_ops_control_single_target_single.cpp
FN:30,_Z51single_qubit_control_single_qubit_dense_matrix_gatejjjPKSt7complexIdEPS0_y
FNDA:161,_Z51single_qubit_control_single_qubit_dense_matrix_gatejjjPKSt7complexIdEPS0_y
FN:83,_Z65single_qubit_control_single_qubit_dense_matrix_gate_single_unrolljjjPKSt7complexIdEPS0_y
FNDA:40,_Z65single_qubit_control_single_qubit_dense_matrix_gate_single_unrolljjjPKSt7complexIdEPS0_y
FN:154,_Z67single_qubit_control_single_qubit_dense_matrix_gate_parallel_unrolljjjPKSt7complexIdEPS0_y
FNDA:40,_Z67single_qubit_control_single_qubit_dense_matrix_gate_parallel_unrolljjjPKSt7complexIdEPS0_y
FN:229,_Z63single_qubit_control_single_qubit_dense_matrix_gate_single_simdjjjPKSt7complexIdEPS0_y
FNDA:201,_Z63single_qubit_control_single_qubit_dense_matrix_gate_single_simdjjjPKSt7complexIdEPS0_y
FN:351,_Z65single_qubit_control_single_qubit_dense_matrix_gate_parallel_simdjjjPKSt7complexIdEPS0_y
FNDA:40,_Z65single_qubit_control_single_qubit_dense_matrix_gate_parallel_simdjjjPKSt7complexIdEPS0_y
FNF:5
FNH:5
DA:30,161
DA:49,161
DA:50,161
DA:54,0
DA:81,161
DA:83,40
DA:86,40
DA:88,40
DA:95,40
DA:96,40
DA:97,40
DA:98,40
DA:99,40
DA:102,40
DA:103,85
DA:104,80
DA:105,80
DA:106,80
DA:109,80
DA:110,80
DA:113,80
DA:114,80
DA:116,35
DA:117,136
DA:118,128
DA:119,128
DA:120,128
DA:121,128
DA:124,128
DA:125,128
DA:128,128
DA:129,128
DA:132,243
DA:133,216
DA:134,216
DA:135,216
DA:136,216
DA:139,216
DA:140,216
DA:141,216
DA:142,216
DA:145,216
DA:146,216
DA:147,216
DA:148,216
DA:151,40
DA:154,40
DA:157,40
DA:159,40
DA:160,40
DA:166,40
DA:167,40
DA:168,40
DA:169,40
DA:170,40
DA:173,40
DA:174,5
DA:188,35
DA:189,8
DA:205,27
DA:225,40
DA:229,201
DA:232,201
DA:234,201
DA:241,201
DA:242,201
DA:243,201
DA:244,201
DA:245,201
DA:248,201
DA:249,49
DA:253,49
DA:257,393
DA:258,344
DA:259,344
DA:260,344
DA:261,344
DA:282,152
DA:283,455
DA:284,408
DA:285,408
DA:286,408
DA:287,408
DA:290,408
DA:291,408
DA:294,408
DA:295,408
DA:298,105
DA:302,105
DA:306,105
DA:310,105
DA:314,733
DA:315,628
DA:316,628
DA:317,628
DA:318,628
DA:320,628
DA:321,628
DA:348,201
DA:351,40
DA:354,40
DA:356,40
DA:357,40
DA:363,40
DA:364,40
DA:365,40
DA:366,40
DA:367,40
DA:370,40
DA:371,7
DA:375,7
DA:379,7
DA:405,33
DA:406,8
DA:422,25
DA:426,25
DA:430,25
DA:434,25
DA:438,25
DA:473,40
LF:120
LH:119
end_of_record
SF:/usr/lib/gcc/x86_64-linux-gnu/9/include/avx2intrin.h
DA:1051,1032
LF:1
LH:1
end_of_record
SF:/usr/lib/gcc/x86_64-linux-gnu/9/include/avxintrin.h
DA:143,628
DA:266,1600
DA:314,972
DA:886,972
DA:892,972
DA:1244,186
LF:6
LH:6
end_of_record
TN:
SF:/usr/lib/gcc/x86_64-linux-gnu/9/include/avxintrin.h
DA:143,5150
DA:196,1580
DA:314,5150
DA:362,1580
DA:886,1580
DA:892,5150
LF:6
LH:6
end_of_record
SF:/usr/lib/gcc/x86_64-linux-gnu/9/include/avx2intrin.h
DA:1051,1580
LF:1
LH:1
end_of_record
SF:/qulacs-osaka/src/csim/update_ops_named_H.cpp
FN:21,_Z6H_gatejPSt7complexIdEy
FNDA:968,_Z6H_gatejPSt7complexIdEy
FN:55,_Z20H_gate_single_unrolljPSt7complexIdEy
FNDA:24,_Z20H_gate_single_unrolljPSt7complexIdEy
FN:88,_Z22H_gate_parallel_unrolljPSt7complexIdEy
FNDA:24,_Z22H_gate_parallel_unrolljPSt7complexIdEy
FN:124,_Z18H_gate_single_simdjPSt7complexIdEy
FNDA:992,_Z18H_gate_single_simdjPSt7complexIdEy
FN:171,_Z20H_gate_parallel_simdjPSt7complexIdEy
FNDA:24,_Z20H_gate_parallel_simdjPSt7complexIdEy
FNF:5
FNH:5
DA:21,968
DA:33,968
DA:34,968
DA:36,0
DA:53,968
DA:55,24
DA:56,24
DA:57,24
DA:58,24
DA:62,24
DA:64,132
DA:65,128
DA:66,128
DA:67,128
DA:68,128
DA:71,340
DA:72,320
DA:73,320
DA:74,320
DA:75,320
DA:76,320
DA:77,320
DA:78,320
DA:79,320
DA:80,320
DA:81,320
DA:82,320
DA:85,24
DA:88,24
DA:89,24
DA:90,24
DA:91,24
DA:93,24
DA:95,24
DA:97,4
DA:105,20
DA:120,24
DA:124,992
DA:125,992
DA:126,992
DA:127,992
DA:134,992
DA:138,1989
DA:139,1580
DA:151,4153
DA:152,3570
DA:153,3570
DA:154,3570
DA:155,3570
DA:156,3570
DA:167,992
DA:171,24
DA:172,24
DA:173,24
DA:174,24
DA:181,24
DA:185,4
DA:199,20
DA:216,24
LF:59
LH:58
end_of_record
SF:/usr/include/c++/9/complex
DA:404,448
DA:1303,448
DA:1331,448
DA:1339,448
LF:4
LH:4
end_of_record
TN:
SF:/usr/include/x86_64-linux-gnu/bits/stdio2.h
DA:100,0
DA:101,0
LF:2
LH:0
end_of_record
SF:/qulacs-osaka/src/csim/utility.cpp
FN:11,_Z28get_Pauli_masks_partial_listPKjS0_jPyS1_PjS2_
FNDA:1261070,_Z28get_Pauli_masks_partial_listPKjS0_jPyS1_PjS2_
FN:44,_Z26get_Pauli_masks_whole_listPKjjPyS1_PjS2_
FNDA:520,_Z26get_Pauli_masks_whole_listPKjjPyS1_PjS2_
FN:76,_Z23create_matrix_mask_listPKjj
FNDA:1553,_Z23create_matrix_mask_listPKjj
FN:95,_Z19create_control_maskPKjS0_j
FNDA:300,_Z19create_control_maskPKjS0_j
FN:104,_ZL10compare_uiPKvS0_
FNDA:4920,_ZL10compare_uiPKvS0_
FN:107,_Z7sort_uiPjm
FNDA:1629,_Z7sort_uiPjm
FN:110,_Z21create_sorted_ui_listPKjm
FNDA:713,_Z21create_sorted_ui_listPKjm
FN:116,_Z27create_sorted_ui_list_valuePKjmj
FNDA:100,_Z27create_sorted_ui_list_valuePKjmj
FN:123,_Z26create_sorted_ui_list_listPKjmS0_m
FNDA:120,_Z26create_sorted_ui_list_listPKjmS0_m
FNF:9
FNH:9
DA:11,1261070
DA:15,1261070
DA:16,1261070
DA:17,1261070
DA:18,1261070
DA:19,2974530
DA:20,1713460
DA:21,1713460
DA:24,167245
DA:25,167245
DA:26,167245
DA:27,167245
DA:28,268909
DA:29,268909
DA:30,268909
DA:31,268909
DA:32,268909
DA:33,268909
DA:34,1178400
DA:35,1178400
DA:36,1178400
DA:37,0
DA:38,0
DA:42,1261070
DA:44,520
DA:47,520
DA:48,520
DA:49,520
DA:50,520
DA:51,3120
DA:52,3640
DA:53,3120
DA:56,382
DA:57,382
DA:58,382
DA:59,382
DA:60,400
DA:61,400
DA:62,400
DA:63,400
DA:64,400
DA:65,400
DA:66,1335
DA:67,1335
DA:68,1335
DA:69,0
DA:70,0
DA:74,520
DA:76,1553
DA:78,1553
DA:79,1553
DA:82,20829
DA:83,98748
DA:85,79472
DA:86,39736
DA:87,39736
DA:91,1553
DA:95,300
DA:98,880
DA:99,580
DA:101,300
DA:104,4920
DA:105,4920
DA:107,1629
DA:108,1629
DA:109,1629
DA:110,713
DA:111,713
DA:112,713
DA:113,713
DA:114,713
DA:116,100
DA:117,100
DA:118,100
DA:119,100
DA:120,100
DA:121,100
DA:123,120
DA:125,120
DA:126,120
DA:127,120
DA:128,120
DA:129,120
LF:83
LH:79
end_of_record
SF:/usr/include/x86_64-linux-gnu/bits/string_fortified.h
DA:34,933
LF:1
LH:1
end_of_record
TN:
SF:/usr/lib/gcc/x86_64-linux-gnu/9/include/avxintrin.h
DA:266,147328
DA:314,147328
DA:886,147328
DA:892,147328
DA:1244,10365
LF:5
LH:5
end_of_record
SF:/qulacs-osaka/src/csim/update_ops_matrix_diagonal_single.cpp
FN:25,_Z33single_qubit_diagonal_matrix_gatejPKSt7complexIdEPS0_y
FNDA:10325,_Z33single_qubit_diagonal_matrix_gatejPKSt7complexIdEPS0_y
FN:69,_Z47single_qubit_diagonal_matrix_gate_single_unrolljPKSt7complexIdEPS0_y
FNDA:20,_Z47single_qubit_diagonal_matrix_gate_single_unrolljPKSt7complexIdEPS0_y
FN:90,_Z49single_qubit_diagonal_matrix_gate_parallel_unrolljPKSt7complexIdEPS0_y
FNDA:20,_Z49single_qubit_diagonal_matrix_gate_parallel_unrolljPKSt7complexIdEPS0_y
FN:114,_Z45single_qubit_diagonal_matrix_gate_single_simdjPKSt7complexIdEPS0_y
FNDA:10345,_Z45single_qubit_diagonal_matrix_gate_single_simdjPKSt7complexIdEPS0_y
FN:164,_Z47single_qubit_diagonal_matrix_gate_parallel_simdjPKSt7complexIdEPS0_y
FNDA:20,_Z47single_qubit_diagonal_matrix_gate_parallel_simdjPKSt7complexIdEPS0_y
FNF:5
FNH:5
DA:25,10325
DA:41,10325
DA:42,10325
DA:45,0
DA:67,10325
DA:69,20
DA:74,20
DA:75,132
DA:76,128
DA:77,128
DA:80,16
DA:81,528
DA:82,512
DA:83,512
DA:84,512
DA:87,20
DA:90,20
DA:95,20
DA:96,4
DA:102,16
DA:103,16
DA:110,20
DA:114,10345
DA:119,10345
DA:120,2199
DA:126,30407
DA:127,28208
DA:135,8146
DA:141,8146
DA:148,8146
DA:149,127266
DA:150,119120
DA:151,119120
DA:152,119120
DA:153,119120
DA:161,10345
DA:164,20
DA:169,20
DA:170,4
DA:176,4
DA:186,16
DA:192,16
DA:199,16
DA:200,16
DA:213,20
LF:45
LH:44
end_of_record
SF:/usr/include/c++/9/complex
DA:1252,10365
DA:1256,10365
DA:1347,640
DA:1348,640
LF:4
LH:4
end_of_record
TN:
SF:/qulacs-osaka/src/csim/update_ops_pauli_single.cpp
FN:14,_Z23single_qubit_Pauli_gatejjPSt7complexIdEy
FNDA:20,_Z23single_qubit_Pauli_gatejjPSt7complexIdEy
FN:34,_Z32single_qubit_Pauli_rotation_gatejjdPSt7complexIdEy
FNDA:20,_Z32single_qubit_Pauli_rotation_gatejjdPSt7complexIdEy
FN:54,_Z7RX_gatejdPSt7complexIdEy
FNDA:260293,_Z7RX_gatejdPSt7complexIdEy
FN:66,_Z7RY_gatejdPSt7complexIdEy
FNDA:122752,_Z7RY_gatejdPSt7complexIdEy
FN:78,_Z7RZ_gatejdPSt7complexIdEy
FNDA:10305,_Z7RZ_gatejdPSt7complexIdEy
FNF:5
FNH:5
DA:14,20
DA:16,20
DA:19,8
DA:20,8
DA:21,8
DA:22,4
DA:23,4
DA:24,4
DA:25,3
DA:26,3
DA:27,3
DA:28,0
DA:29,0
DA:32,20
DA:34,20
DA:36,20
DA:39,9
DA:40,9
DA:41,9
DA:42,6
DA:43,6
DA:44,6
DA:45,5
DA:46,5
DA:47,5
DA:48,0
DA:49,0
DA:52,20
DA:54,260293
DA:57,260293
DA:58,260293
DA:60,260293
DA:61,260293
DA:63,260293
DA:64,260293
DA:66,122752
DA:69,122752
DA:70,122752
DA:73,122752
DA:75,122752
DA:76,122752
DA:78,10305
DA:81,10305
DA:82,10305
DA:83,10305
DA:84,10305
DA:85,10305
DA:87,10305
LF:48
LH:44
end_of_record
SF:/usr/include/c++/9/complex
DA:353,10305
DA:383,10305
DA:404,270598
DA:457,10305
DA:1252,10305
DA:1256,10305
DA:1282,122752
DA:1289,10305
DA:1303,270598
LF:9
LH:9
end_of_record
SF:/usr/include/x86_64-linux-gnu/bits/stdio2.h
DA:100,0
DA:101,0
LF:2
LH:0
end_of_record
TN:
SF:/qulacs-osaka/src/csim/update_ops_control_multi_target_multi.cpp
FN:13,_Z49multi_qubit_control_multi_qubit_dense_matrix_gatePKjS0_jS0_jPKSt7complexIdEPS2_y
FNDA:40,_Z49multi_qubit_control_multi_qubit_dense_matrix_gatePKjS0_jS0_jPKSt7complexIdEPS2_y
FNF:1
FNH:1
DA:13,40
DA:19,40
DA:20,40
DA:22,40
DA:25,40
DA:27,40
DA:32,40
DA:36,40
DA:40,200
DA:43,960
DA:44,800
DA:50,160
DA:53,1120
DA:54,960
DA:55,7360
DA:56,6400
DA:57,6400
DA:62,1120
DA:63,960
DA:66,40
DA:67,40
DA:68,40
DA:69,40
LF:23
LH:23
end_of_record
SF:/usr/include/c++/9/complex
DA:393,6400
DA:1282,960
DA:1331,6400
DA:1347,6400
DA:1348,6400
LF:5
LH:5
end_of_record
SF:/qulacs-osaka/src/csim/utility.hpp
DA:12,800
DA:13,800
LF:2
LH:2
end_of_record
TN:
SF:/usr/include/c++/9/complex
DA:1252,585
DA:1256,585
DA:1347,8832
DA:1348,9232
LF:4
LH:4
end_of_record
SF:/qulacs-osaka/src/csim/update_ops_matrix_phase_single.cpp
FN:26,_Z23single_qubit_phase_gatejSt7complexIdEPS0_y
FNDA:673,_Z23single_qubit_phase_gatejSt7complexIdEPS0_y
FN:67,_Z37single_qubit_phase_gate_single_unrolljSt7complexIdEPS0_y
FNDA:20,_Z37single_qubit_phase_gate_single_unrolljSt7complexIdEPS0_y
FN:93,_Z39single_qubit_phase_gate_parallel_unrolljSt7complexIdEPS0_y
FNDA:20,_Z39single_qubit_phase_gate_parallel_unrolljSt7complexIdEPS0_y
FN:122,_Z35single_qubit_phase_gate_single_simdjSt7complexIdEPS0_y
FNDA:693,_Z35single_qubit_phase_gate_single_simdjSt7complexIdEPS0_y
FN:156,_Z37single_qubit_phase_gate_parallel_simdjSt7complexIdEPS0_y
FNDA:20,_Z37single_qubit_phase_gate_parallel_simdjSt7complexIdEPS0_y
FNF:5
FNH:5
DA:26,673
DA:40,673
DA:41,673
DA:44,0
DA:65,673
DA:67,20
DA:70,20
DA:71,20
DA:75,20
DA:76,20
DA:78,165
DA:79,160
DA:83,255
DA:84,240
DA:85,240
DA:86,240
DA:87,240
DA:90,20
DA:93,20
DA:96,20
DA:97,20
DA:101,20
DA:102,20
DA:104,5
DA:110,15
DA:118,20
DA:122,693
DA:125,693
DA:126,693
DA:130,693
DA:131,693
DA:133,8955
DA:134,8832
DA:138,570
DA:142,44570
DA:143,44000
DA:144,44000
DA:145,44000
DA:153,693
DA:156,20
DA:159,20
DA:160,20
DA:164,20
DA:165,20
DA:167,5
DA:173,15
DA:177,15
DA:189,20
LF:48
LH:47
end_of_record
SF:/usr/lib/gcc/x86_64-linux-gnu/9/include/avxintrin.h
DA:266,44000
DA:314,44000
DA:886,44000
DA:892,44000
DA:1244,585
LF:5
LH:5
end_of_record
TN:
SF:/usr/include/c++/9/complex
DA:1234,480
LF:1
LH:1
end_of_record
SF:/qulacs-osaka/src/csim/utility.hpp
FN:56,_ZL16count_populationy
FNDA:30720,_ZL16count_populationy
FNF:1
FNH:1
DA:56,30720
DA:57,30720
DA:58,30720
DA:59,30720
DA:60,30720
DA:61,30720
DA:62,30720
DA:63,30720
LF:8
LH:8
end_of_record
SF:/qulacs-osaka/src/csim/stat_ops_transition_amplitude.cpp
FN:20,_Z55transition_amplitude_multi_qubit_Pauli_operator_XZ_maskyyjjPKSt7complexIdES2_y
FNDA:240,_Z55transition_amplitude_multi_qubit_Pauli_operator_XZ_maskyyjjPKSt7complexIdES2_y
FN:53,_Z54transition_amplitude_multi_qubit_Pauli_operator_Z_maskyPKSt7complexIdES2_y
FNDA:240,_Z54transition_amplitude_multi_qubit_Pauli_operator_Z_maskyPKSt7complexIdES2_y
FN:76,_Z60transition_amplitude_multi_qubit_Pauli_operator_partial_listPKjS0_jPKSt7complexIdES4_y
FNDA:240,_Z60transition_amplitude_multi_qubit_Pauli_operator_partial_listPKjS0_jPKSt7complexIdES4_y
FN:100,_Z58transition_amplitude_multi_qubit_Pauli_operator_whole_listPKjjPKSt7complexIdES4_y
FNDA:240,_Z58transition_amplitude_multi_qubit_Pauli_operator_whole_listPKjjPKSt7complexIdES4_y
FNF:4
FNH:4
DA:20,240
DA:24,240
DA:25,240
DA:31,240
DA:49,240
DA:53,240
DA:61,240
DA:72,240
DA:76,240
DA:80,240
DA:81,240
DA:82,240
DA:83,240
DA:84,240
DA:88,240
DA:90,120
DA:94,120
DA:96,240
DA:100,240
DA:103,240
DA:104,240
DA:105,240
DA:106,240
DA:107,240
DA:111,240
DA:113,120
DA:117,120
DA:119,240
LF:28
LH:28
end_of_record
TN:
SF:/usr/include/x86_64-linux-gnu/bits/stdio2.h
DA:100,0
LF:1
LH:0
end_of_record
SF:/qulacs-osaka/src/csim/memory_ops.cpp
FN:17,_Z22allocate_quantum_statey
FNDA:20387,_Z22allocate_quantum_statey
FN:29,_Z21release_quantum_statePSt7complexIdE
FNDA:20387,_Z21release_quantum_statePSt7complexIdE
FNF:2
FNH:2
DA:17,20387
DA:18,20387
DA:21,20387
DA:22,0
DA:23,0
DA:24,0
DA:26,20387
DA:29,20387
DA:30,20387
DA:32,20387
LF:10
LH:7
end_of_record
TN:
SF:/usr/lib/gcc/x86_64-linux-gnu/9/include/avxintrin.h
DA:314,16958
DA:886,16958
DA:892,16958
LF:3
LH:3
end_of_record
SF:/usr/include/c++/9/complex
DA:1303,4356
LF:1
LH:1
end_of_record
SF:/qulacs-osaka/src/csim/update_ops_named_CZ.cpp
FN:22,_Z7CZ_gatejjPSt7complexIdEy
FNDA:503,_Z7CZ_gatejjPSt7complexIdEy
FN:61,_Z21CZ_gate_single_unrolljjPSt7complexIdEy
FNDA:12,_Z21CZ_gate_single_unrolljjPSt7complexIdEy
FN:99,_Z23CZ_gate_parallel_unrolljjPSt7complexIdEy
FNDA:12,_Z23CZ_gate_parallel_unrolljjPSt7complexIdEy
FN:140,_Z19CZ_gate_single_simdjjPSt7complexIdEy
FNDA:515,_Z19CZ_gate_single_simdjjPSt7complexIdEy
FN:182,_Z21CZ_gate_parallel_simdjjPSt7complexIdEy
FNDA:12,_Z21CZ_gate_parallel_simdjjPSt7complexIdEy
FNF:5
FNH:5
DA:22,503
DA:35,503
DA:36,503
DA:39,0
DA:59,503
DA:61,12
DA:63,12
DA:65,12
DA:66,12
DA:72,12
DA:73,12
DA:74,12
DA:75,12
DA:76,12
DA:78,12
DA:80,12
DA:81,68
DA:82,64
DA:83,64
DA:84,64
DA:85,64
DA:88,72
DA:89,64
DA:90,64
DA:91,64
DA:92,64
DA:93,64
DA:96,12
DA:99,12
DA:101,12
DA:103,12
DA:104,12
DA:110,12
DA:111,12
DA:112,12
DA:113,12
DA:114,12
DA:116,12
DA:118,12
DA:119,4
DA:127,8
DA:136,12
DA:140,515
DA:142,515
DA:144,515
DA:145,515
DA:151,515
DA:152,515
DA:153,515
DA:154,515
DA:155,515
DA:157,515
DA:159,515
DA:160,4353
DA:161,4228
DA:162,4228
DA:163,4228
DA:164,4228
DA:168,17348
DA:169,16958
DA:170,16958
DA:171,16958
DA:172,16958
DA:178,515
DA:182,12
DA:184,12
DA:186,12
DA:187,12
DA:193,12
DA:194,12
DA:195,12
DA:196,12
DA:197,12
DA:199,12
DA:201,12
DA:202,4
DA:211,8
DA:222,12
LF:78
LH:77
end_of_record
TN:
SF:/usr/include/c++/9/complex
DA:353,400
DA:393,10016
DA:404,5440
DA:413,960
DA:707,284348
DA:1252,284348
DA:1256,284288
DA:1282,20
DA:1289,400
DA:1303,6400
DA:1331,960
DA:1347,42560
DA:1348,58016
LF:13
LH:13
end_of_record
SF:/qulacs-osaka/src/csim/utility.hpp
LF:0
LH:0
end_of_record
SF:/qulacs-osaka/src/csim/update_ops_dm.cpp
FN:14,_Z12dm_normalizedPSt7complexIdEy
FNDA:4,_Z12dm_normalizedPSt7complexIdEy
FN:29,_Z33dm_single_qubit_dense_matrix_gatejPKSt7complexIdEPS0_y
FNDA:626,_Z33dm_single_qubit_dense_matrix_gatejPKSt7complexIdEPS0_y
FN:96,_Z53dm_multi_qubit_control_single_qubit_dense_matrix_gatePKjS0_jjPKSt7complexIdEPS2_y
FNDA:60,_Z53dm_multi_qubit_control_single_qubit_dense_matrix_gatePKjS0_jjPKSt7complexIdEPS2_y
FN:330,_Z32dm_multi_qubit_dense_matrix_gatePKjjPKSt7complexIdEPS2_y
FNDA:677,_Z32dm_multi_qubit_dense_matrix_gatePKjjPKSt7complexIdEPS2_y
FN:486,_Z52dm_multi_qubit_control_multi_qubit_dense_matrix_gatePKjS0_jS0_jPKSt7complexIdEPS2_y
FNDA:40,_Z52dm_multi_qubit_control_multi_qubit_dense_matrix_gatePKjS0_jS0_jPKSt7complexIdEPS2_y
FN:672,_Z9dm_X_gatejPSt7complexIdEy
FNDA:30,_Z9dm_X_gatejPSt7complexIdEy
FN:676,_Z9dm_Y_gatejPSt7complexIdEy
FNDA:22,_Z9dm_Y_gatejPSt7complexIdEy
FN:680,_Z9dm_Z_gatejPSt7complexIdEy
FNDA:22,_Z9dm_Z_gatejPSt7complexIdEy
FN:684,_Z9dm_S_gatejPSt7complexIdEy
FNDA:20,_Z9dm_S_gatejPSt7complexIdEy
FN:688,_Z12dm_Sdag_gatejPSt7complexIdEy
FNDA:20,_Z12dm_Sdag_gatejPSt7complexIdEy
FN:692,_Z9dm_T_gatejPSt7complexIdEy
FNDA:20,_Z9dm_T_gatejPSt7complexIdEy
FN:696,_Z12dm_Tdag_gatejPSt7complexIdEy
FNDA:20,_Z12dm_Tdag_gatejPSt7complexIdEy
FN:700,_Z13dm_sqrtX_gatejPSt7complexIdEy
FNDA:20,_Z13dm_sqrtX_gatejPSt7complexIdEy
FN:704,_Z16dm_sqrtXdag_gatejPSt7complexIdEy
FNDA:20,_Z16dm_sqrtXdag_gatejPSt7complexIdEy
FN:708,_Z13dm_sqrtY_gatejPSt7complexIdEy
FNDA:20,_Z13dm_sqrtY_gatejPSt7complexIdEy
FN:712,_Z16dm_sqrtYdag_gatejPSt7complexIdEy
FNDA:20,_Z16dm_sqrtYdag_gatejPSt7complexIdEy
FN:716,_Z9dm_H_gatejPSt7complexIdEy
FNDA:20,_Z9dm_H_gatejPSt7complexIdEy
FN:720,_Z10dm_P0_gatejPSt7complexIdEy
FNDA:20,_Z10dm_P0_gatejPSt7complexIdEy
FN:724,_Z10dm_P1_gatejPSt7complexIdEy
FNDA:20,_Z10dm_P1_gatejPSt7complexIdEy
FN:728,_Z12dm_CNOT_gatejjPSt7complexIdEy
FNDA:20,_Z12dm_CNOT_gatejjPSt7complexIdEy
FN:737,_Z10dm_CZ_gatejjPSt7complexIdEy
FNDA:20,_Z10dm_CZ_gatejjPSt7complexIdEy
FN:746,_Z12dm_SWAP_gatejjPSt7complexIdEy
FNDA:20,_Z12dm_SWAP_gatejjPSt7complexIdEy
FN:758,_Z10dm_RX_gatejdPSt7complexIdEy
FNDA:80,_Z10dm_RX_gatejdPSt7complexIdEy
FN:770,_Z10dm_RY_gatejdPSt7complexIdEy
FNDA:80,_Z10dm_RY_gatejdPSt7complexIdEy
FN:782,_Z10dm_RZ_gatejdPSt7complexIdEy
FNDA:80,_Z10dm_RZ_gatejdPSt7complexIdEy
FN:795,_Z38dm_multi_qubit_Pauli_gate_partial_listPKjS0_jPSt7complexIdEy
FNDA:20,_Z38dm_multi_qubit_Pauli_gate_partial_listPKjS0_jPSt7complexIdEy
FN:816,_Z47dm_multi_qubit_Pauli_rotation_gate_partial_listPKjS0_jdPSt7complexIdEy
FNDA:40,_Z47dm_multi_qubit_Pauli_rotation_gate_partial_listPKjS0_jdPSt7complexIdEy
FNF:27
FNH:27
DA:14,4
DA:16,4
DA:19,4
DA:27,4
DA:29,626
DA:32,626
DA:35,626
DA:38,626
DA:39,3130
DA:40,2504
DA:41,2504
DA:42,12520
DA:43,10016
DA:44,10016
DA:45,10016
DA:46,10016
DA:52,626
DA:94,626
DA:96,60
DA:101,60
DA:103,60
DA:107,60
DA:110,60
DA:114,60
DA:117,60
DA:118,60
DA:119,60
DA:120,60
DA:124,60
DA:157,60
DA:191,60
DA:192,60
DA:330,677
DA:334,677
DA:335,677
DA:340,677
DA:341,11165
DA:342,282200
DA:343,271712
DA:344,271712
DA:349,677
DA:353,677
DA:409,677
DA:410,677
DA:411,677
DA:413,677
DA:414,677
DA:416,677
DA:479,677
DA:481,677
DA:482,677
DA:483,677
DA:484,677
DA:486,40
DA:492,40
DA:493,40
DA:497,40
DA:499,40
DA:504,40
DA:508,40
DA:512,40
DA:513,360
DA:514,2880
DA:515,2560
DA:516,2560
DA:585,40
DA:587,40
DA:588,40
DA:589,40
DA:590,40
DA:665,40
DA:667,40
DA:668,40
DA:669,40
DA:670,40
DA:672,30
DA:673,30
DA:675,30
DA:676,22
DA:677,22
DA:679,22
DA:680,22
DA:681,22
DA:683,22
DA:684,20
DA:685,20
DA:687,20
DA:688,20
DA:689,20
DA:691,20
DA:692,20
DA:693,20
DA:695,20
DA:696,20
DA:697,20
DA:699,20
DA:700,20
DA:701,20
DA:703,20
DA:704,20
DA:705,20
DA:707,20
DA:708,20
DA:709,20
DA:711,20
DA:712,20
DA:713,20
DA:715,20
DA:716,20
DA:717,20
DA:719,20
DA:720,20
DA:721,20
DA:723,20
DA:724,20
DA:725,20
DA:727,20
DA:728,20
DA:732,20
DA:733,20
DA:734,20
DA:736,20
DA:737,20
DA:741,20
DA:742,20
DA:743,20
DA:745,20
DA:746,20
DA:748,20
DA:754,20
DA:755,20
DA:756,20
DA:757,20
DA:758,80
DA:761,80
DA:762,240
DA:763,480
DA:765,320
DA:766,320
DA:767,80
DA:769,80
DA:770,80
DA:773,80
DA:774,240
DA:775,480
DA:777,320
DA:778,320
DA:779,80
DA:781,80
DA:782,80
DA:785,80
DA:786,240
DA:787,480
DA:789,320
DA:790,320
DA:791,80
DA:793,80
DA:795,20
DA:799,20
DA:800,20
DA:801,340
DA:802,5440
DA:804,25600
DA:805,20480
DA:806,20480
DA:807,20480
DA:809,5120
DA:812,20
DA:814,20
DA:815,20
DA:816,40
DA:820,40
DA:821,40
DA:822,440
DA:823,5840
DA:825,26560
DA:826,21120
DA:827,21120
DA:828,21120
DA:830,5440
DA:831,400
DA:832,400
DA:834,5040
DA:838,40
DA:840,40
DA:841,40
LF:186
LH:186
end_of_record
TN:
SF:/usr/include/c++/9/complex
DA:1282,19904
LF:1
LH:1
end_of_record
SF:/qulacs-osaka/src/csim/update_ops_named_projection.cpp
FN:19,_Z7P0_gatejPSt7complexIdEy
FNDA:188,_Z7P0_gatejPSt7complexIdEy
FN:32,_Z7P1_gatejPSt7complexIdEy
FNDA:185,_Z7P1_gatejPSt7complexIdEy
FN:45,_Z14P0_gate_singlejPSt7complexIdEy
FNDA:308,_Z14P0_gate_singlejPSt7complexIdEy
FN:59,_Z14P1_gate_singlejPSt7complexIdEy
FNDA:305,_Z14P1_gate_singlejPSt7complexIdEy
FN:74,_Z16P0_gate_paralleljPSt7complexIdEy
FNDA:120,_Z16P0_gate_paralleljPSt7complexIdEy
FN:89,_Z16P1_gate_paralleljPSt7complexIdEy
FNDA:120,_Z16P1_gate_paralleljPSt7complexIdEy
FNF:6
FNH:6
DA:19,188
DA:22,188
DA:23,188
DA:25,0
DA:30,188
DA:32,185
DA:35,185
DA:36,185
DA:38,0
DA:43,185
DA:45,308
DA:46,308
DA:47,308
DA:48,308
DA:52,11028
DA:53,10720
DA:54,10720
DA:55,10720
DA:57,308
DA:59,305
DA:60,305
DA:61,305
DA:62,305
DA:66,9489
DA:67,9184
DA:68,9184
DA:69,9184
DA:71,305
DA:74,120
DA:75,120
DA:76,120
DA:77,120
DA:81,120
DA:87,120
DA:89,120
DA:90,120
DA:91,120
DA:92,120
DA:96,120
DA:102,120
LF:40
LH:38
end_of_record
TN:
SF:/usr/lib/gcc/x86_64-linux-gnu/9/include/avxintrin.h
DA:314,2442
DA:651,1280
DA:886,2442
DA:892,2442
LF:4
LH:4
end_of_record
SF:/usr/lib/gcc/x86_64-linux-gnu/9/include/avx2intrin.h
DA:1051,1162
LF:1
LH:1
end_of_record
SF:/qulacs-osaka/src/csim/update_ops_named_Y.cpp
FN:20,_Z6Y_gatejPSt7complexIdEy
FNDA:149,_Z6Y_gatejPSt7complexIdEy
FN:54,_Z20Y_gate_single_unrolljPSt7complexIdEy
FNDA:24,_Z20Y_gate_single_unrolljPSt7complexIdEy
FN:84,_Z22Y_gate_parallel_unrolljPSt7complexIdEy
FNDA:24,_Z22Y_gate_parallel_unrolljPSt7complexIdEy
FN:117,_Z18Y_gate_single_simdjPSt7complexIdEy
FNDA:173,_Z18Y_gate_single_simdjPSt7complexIdEy
FN:157,_Z20Y_gate_parallel_simdjPSt7complexIdEy
FNDA:24,_Z20Y_gate_parallel_simdjPSt7complexIdEy
FNF:5
FNH:5
DA:20,149
DA:32,149
DA:33,149
DA:35,0
DA:52,149
DA:54,24
DA:55,24
DA:56,24
DA:57,24
DA:61,24
DA:63,132
DA:64,128
DA:65,128
DA:66,128
DA:69,340
DA:70,320
DA:71,320
DA:72,320
DA:73,320
DA:74,320
DA:75,320
DA:76,320
DA:77,320
DA:78,320
DA:81,24
DA:84,24
DA:85,24
DA:86,24
DA:87,24
DA:90,24
DA:91,24
DA:93,4
DA:100,20
DA:113,24
DA:117,173
DA:118,173
DA:119,173
DA:120,173
DA:127,173
DA:129,1208
DA:130,1162
DA:138,1407
DA:139,1280
DA:140,1280
DA:141,1280
DA:142,1280
DA:143,1280
DA:154,173
DA:157,24
DA:158,24
DA:159,24
DA:160,24
DA:167,24
DA:169,4
DA:179,20
DA:196,24
LF:56
LH:55
end_of_record
SF:/usr/include/c++/9/complex
DA:457,448
DA:1347,448
DA:1348,448
LF:3
LH:3
end_of_record
TN:
SF:/qulacs-osaka/src/csim/utility.hpp
DA:12,32
DA:13,32
LF:2
LH:2
end_of_record
SF:/usr/include/c++/9/complex
DA:353,87906
DA:404,87906
DA:615,39168
DA:1289,87906
DA:1303,87906
DA:1347,4096
DA:1348,4096
LF:7
LH:7
end_of_record
SF:/qulacs-osaka/src/csim/stat_ops.cpp
FN:12,_Z18state_norm_squaredPKSt7complexIdEy
FNDA:71127,_Z18state_norm_squaredPKSt7complexIdEy
FN:25,_Z32state_norm_squared_single_threadPKSt7complexIdEy
FNDA:9660,_Z32state_norm_squared_single_threadPKSt7complexIdEy
FN:36,_Z19state_inner_productPKSt7complexIdES2_y
FNDA:87906,_Z19state_inner_productPKSt7complexIdES2_y
FN:52,_Z20state_tensor_productPKSt7complexIdEyS2_yPS0_
FNDA:4,_Z20state_tensor_productPKSt7complexIdEyS2_yPS0_
FN:63,_Z21state_permutate_qubitPKjPKSt7complexIdEPS2_jy
FNDA:4,_Z21state_permutate_qubitPKjPKSt7complexIdEPS2_jy
FN:77,_Z17state_drop_qubitsPKjS0_jPKSt7complexIdEPS2_y
FNDA:4,_Z17state_drop_qubitsPKjS0_jPKSt7complexIdEPS2_y
FNF:6
FNH:6
DA:12,71127
DA:16,71127
DA:21,71127
DA:25,9660
DA:28,48828
DA:29,39168
DA:31,9660
DA:36,87906
DA:41,87906
DA:49,87906
DA:52,4
DA:55,132
DA:56,128
DA:57,4224
DA:58,4096
DA:59,4096
DA:62,4
DA:63,4
DA:66,36
DA:68,128
DA:69,96
DA:70,48
DA:73,32
DA:75,4
DA:77,4
DA:79,4
DA:80,4
DA:82,12
DA:83,8
DA:87,20
DA:89,48
DA:91,32
DA:95,16
DA:96,16
DA:98,4
DA:99,4
LF:36
LH:36
end_of_record
SF:/usr/include/c++/9/cmath
DA:418,39168
LF:1
LH:1
end_of_record
TN:
SF:/qulacs-osaka/src/csim/memory_ops_dm.cpp
FN:13,_Z25dm_allocate_quantum_statey
FNDA:1142,_Z25dm_allocate_quantum_statey
FN:22,_Z27dm_initialize_quantum_statePSt7complexIdEy
FNDA:1202,_Z27dm_initialize_quantum_statePSt7complexIdEy
FN:33,_Z24dm_release_quantum_statePSt7complexIdE
FNDA:1142,_Z24dm_release_quantum_statePSt7complexIdE
FN:35,_Z29dm_initialize_with_pure_statePSt7complexIdEPKS0_y
FNDA:1458,_Z29dm_initialize_with_pure_statePSt7complexIdEPKS0_y
FNF:4
FNH:4
DA:13,1142
DA:14,1142
DA:15,1142
DA:16,0
DA:17,0
DA:19,1142
DA:22,1202
DA:25,1202
DA:31,1202
DA:33,1142
DA:35,1458
DA:39,1458
DA:48,1458
LF:13
LH:11
end_of_record
SF:/usr/include/x86_64-linux-gnu/bits/stdio2.h
DA:100,0
LF:1
LH:0
end_of_record
SF:/usr/include/c++/9/complex
DA:1282,1202
LF:1
LH:1
end_of_record
TN:
SF:/usr/lib/gcc/x86_64-linux-gnu/9/include/avxintrin.h
DA:143,176
DA:266,480
DA:314,304
DA:886,304
DA:892,304
DA:1244,53
LF:6
LH:6
end_of_record
SF:/qulacs-osaka/src/csim/update_ops_control_multi_target_single.cpp
FN:40,_Z46create_shift_mask_list_from_list_and_value_bufPKjjjPjPy
FNDA:120,_Z46create_shift_mask_list_from_list_and_value_bufPKjjjPjPy
FN:51,_Z50multi_qubit_control_single_qubit_dense_matrix_gatePKjS0_jjPKSt7complexIdEPS2_y
FNDA:40,_Z50multi_qubit_control_single_qubit_dense_matrix_gatePKjS0_jjPKSt7complexIdEPS2_y
FN:121,_Z64multi_qubit_control_single_qubit_dense_matrix_gate_single_unrollPKjS0_jjPKSt7complexIdEPS2_y
FNDA:20,_Z64multi_qubit_control_single_qubit_dense_matrix_gate_single_unrollPKjS0_jjPKSt7complexIdEPS2_y
FN:200,_Z66multi_qubit_control_single_qubit_dense_matrix_gate_parallel_unrollPKjS0_jjPKSt7complexIdEPS2_y
FNDA:20,_Z66multi_qubit_control_single_qubit_dense_matrix_gate_parallel_unrollPKjS0_jjPKSt7complexIdEPS2_y
FN:283,_Z62multi_qubit_control_single_qubit_dense_matrix_gate_single_simdPKjS0_jjPKSt7complexIdEPS2_y
FNDA:60,_Z62multi_qubit_control_single_qubit_dense_matrix_gate_single_simdPKjS0_jjPKSt7complexIdEPS2_y
FN:416,_Z64multi_qubit_control_single_qubit_dense_matrix_gate_parallel_simdPKjS0_jjPKSt7complexIdEPS2_y
FNDA:20,_Z64multi_qubit_control_single_qubit_dense_matrix_gate_parallel_simdPKjS0_jjPKSt7complexIdEPS2_y
FNF:6
FNH:6
DA:40,120
DA:42,120
DA:43,120
DA:44,120
DA:45,120
DA:46,500
DA:47,380
DA:49,120
DA:51,40
DA:77,40
DA:78,0
DA:81,0
DA:87,40
DA:88,40
DA:92,0
DA:121,20
DA:127,20
DA:129,20
DA:130,20
DA:133,20
DA:134,20
DA:136,20
DA:138,45
DA:141,160
DA:142,120
DA:143,120
DA:145,40
DA:148,40
DA:149,40
DA:151,40
DA:152,40
DA:154,15
DA:156,63
DA:159,224
DA:160,168
DA:161,168
DA:163,56
DA:164,56
DA:167,56
DA:168,56
DA:170,56
DA:171,56
DA:175,40
DA:178,128
DA:179,96
DA:180,96
DA:182,32
DA:183,32
DA:186,32
DA:187,32
DA:188,32
DA:189,32
DA:191,32
DA:192,32
DA:193,32
DA:194,32
DA:197,20
DA:200,20
DA:206,20
DA:208,20
DA:209,20
DA:212,20
DA:213,20
DA:215,20
DA:217,5
DA:234,15
DA:236,7
DA:256,8
DA:279,20
DA:283,60
DA:289,60
DA:291,60
DA:292,60
DA:295,60
DA:296,60
DA:298,60
DA:299,13
DA:303,13
DA:308,141
DA:311,560
DA:312,432
DA:313,432
DA:315,128
DA:317,128
DA:338,47
DA:340,177
DA:343,688
DA:344,528
DA:345,528
DA:347,160
DA:348,160
DA:351,160
DA:352,160
DA:354,160
DA:355,160
DA:358,30
DA:362,30
DA:366,30
DA:370,30
DA:375,206
DA:378,816
DA:379,640
DA:380,640
DA:382,176
DA:383,176
DA:385,176
DA:386,176
DA:413,60
DA:416,20
DA:422,20
DA:424,20
DA:425,20
DA:428,20
DA:429,20
DA:431,20
DA:432,3
DA:436,3
DA:441,3
DA:472,17
DA:474,10
DA:493,7
DA:497,7
DA:501,7
DA:505,7
DA:510,7
DA:549,20
LF:126
LH:123
end_of_record
SF:/usr/lib/gcc/x86_64-linux-gnu/9/include/avx2intrin.h
DA:1051,384
LF:1
LH:1
end_of_record
SF:/usr/include/x86_64-linux-gnu/bits/string_fortified.h
DA:34,120
LF:1
LH:1
end_of_record
SF:/usr/include/c++/9/complex
DA:393,288
DA:1252,53
DA:1256,53
DA:1331,288
DA:1348,288
LF:5
LH:5
end_of_record
TN:
SF:/usr/include/c++/9/complex
LF:0
LH:0
end_of_record
SF:/qulacs-osaka/src/csim/constant.cpp
LF:0
LH:0
end_of_record
TN:
SF:/usr/lib/gcc/x86_64-linux-gnu/9/include/avxintrin.h
DA:314,1280
DA:886,1280
DA:892,1280
LF:3
LH:3
end_of_record
SF:/usr/include/c++/9/complex
DA:1303,3680
LF:1
LH:1
end_of_record
SF:/qulacs-osaka/src/csim/update_ops_named_Z.cpp
FN:20,_Z6Z_gatejPSt7complexIdEy
FNDA:164,_Z6Z_gatejPSt7complexIdEy
FN:54,_Z20Z_gate_single_unrolljPSt7complexIdEy
FNDA:24,_Z20Z_gate_single_unrolljPSt7complexIdEy
FN:75,_Z22Z_gate_parallel_unrolljPSt7complexIdEy
FNDA:24,_Z22Z_gate_parallel_unrolljPSt7complexIdEy
FN:99,_Z18Z_gate_single_simdjPSt7complexIdEy
FNDA:188,_Z18Z_gate_single_simdjPSt7complexIdEy
FN:123,_Z20Z_gate_parallel_simdjPSt7complexIdEy
FNDA:24,_Z20Z_gate_parallel_simdjPSt7complexIdEy
FNF:5
FNH:5
DA:20,164
DA:32,164
DA:33,164
DA:35,0
DA:52,164
DA:54,24
DA:55,24
DA:56,24
DA:57,24
DA:60,24
DA:61,132
DA:62,128
DA:65,340
DA:66,320
DA:67,320
DA:68,320
DA:69,320
DA:72,24
DA:75,24
DA:76,24
DA:77,24
DA:78,24
DA:81,24
DA:82,4
DA:87,20
DA:95,24
DA:99,188
DA:100,188
DA:101,188
DA:102,188
DA:106,188
DA:107,3286
DA:108,3232
DA:111,1414
DA:112,1280
DA:113,1280
DA:114,1280
DA:120,188
DA:123,24
DA:124,24
DA:125,24
DA:126,24
DA:130,24
DA:131,4
DA:136,20
DA:146,24
LF:46
LH:45
end_of_record
TN:
SF:/usr/include/x86_64-linux-gnu/bits/string_fortified.h
DA:34,576
LF:1
LH:1
end_of_record
SF:/qulacs-osaka/src/csim/update_ops_matrix_dense_multi.cpp
FN:28,_Z29multi_qubit_dense_matrix_gatePKjjPKSt7complexIdEPS2_y
FNDA:2281,_Z29multi_qubit_dense_matrix_gatePKjjPKSt7complexIdEPS2_y
FN:63,_Z36create_shift_mask_list_from_list_bufPKjjPjPy
FNDA:576,_Z36create_shift_mask_list_from_list_bufPKjjPjPy
FN:72,_Z36multi_qubit_dense_matrix_gate_singlePKjjPKSt7complexIdEPS2_y
FNDA:516,_Z36multi_qubit_dense_matrix_gate_singlePKjjPKSt7complexIdEPS2_y
FN:113,_Z38multi_qubit_dense_matrix_gate_parallelPKjjPKSt7complexIdEPS2_y
FNDA:60,_Z38multi_qubit_dense_matrix_gate_parallelPKjjPKSt7complexIdEPS2_y
FNF:4
FNH:4
DA:28,2281
DA:31,2281
DA:32,20
DA:34,2261
DA:35,1805
DA:49,456
DA:50,456
DA:53,0
DA:61,2281
DA:63,576
DA:65,576
DA:66,576
DA:67,2481
DA:68,1905
DA:70,576
DA:72,516
DA:77,516
DA:81,516
DA:82,516
DA:85,516
DA:86,516
DA:88,3032
DA:91,9138
DA:92,6622
DA:93,6622
DA:96,24596
DA:97,22080
DA:98,379712
DA:99,357632
DA:100,357632
DA:104,24596
DA:105,22080
DA:108,516
DA:109,516
DA:110,516
DA:113,60
DA:118,60
DA:122,60
DA:123,60
DA:126,60
DA:128,60
DA:130,60
DA:132,60
DA:133,60
DA:135,60
DA:170,60
DA:171,60
DA:172,60
LF:48
LH:47
end_of_record
SF:/usr/include/c++/9/complex
DA:393,357632
DA:1282,22080
DA:1331,357632
DA:1347,357632
DA:1348,357632
LF:5
LH:5
end_of_record
TN:
SF:/qulacs-osaka/src/csim/utility.hpp
LF:0
LH:0
end_of_record
SF:/usr/include/c++/9/complex
LF:0
LH:0
end_of_record
SF:/qulacs-osaka/src/csim/stat_ops_probability.cpp
FN:11,_Z7M0_probjPKSt7complexIdEy
FNDA:480,_Z7M0_probjPKSt7complexIdEy
FN:28,_Z7M1_probjPKSt7complexIdEy
FNDA:480,_Z7M1_probjPKSt7complexIdEy
FN:48,_Z13marginal_probPKjS0_jPKSt7complexIdEy
FNDA:156,_Z13marginal_probPKjS0_jPKSt7complexIdEy
FN:71,_Z32measurement_distribution_entropyPKSt7complexIdEy
FNDA:120,_Z32measurement_distribution_entropyPKSt7complexIdEy
FNF:4
FNH:4
DA:11,480
DA:12,480
DA:13,480
DA:17,480
DA:24,480
DA:28,480
DA:29,480
DA:30,480
DA:34,480
DA:42,480
DA:48,156
DA:51,156
DA:55,156
DA:67,156
DA:71,120
DA:76,120
DA:83,120
LF:17
LH:17
end_of_record
SF:/usr/include/c++/9/cmath
LF:0
LH:0
end_of_record
TN:
SF:/qulacs-osaka/src/csim/utility.hpp
DA:12,32
DA:13,32
LF:2
LH:2
end_of_record
SF:/qulacs-osaka/src/csim/update_ops_reversible_boolean.cpp
FN:5,_Z23reversible_boolean_gatePKjjSt8functionIFyyyEEPSt7complexIdEy
FNDA:8,_Z23reversible_boolean_gatePKjjSt8functionIFyyyEEPSt7complexIdEy
FNF:1
FNH:1
DA:5,8
DA:9,8
DA:10,8
DA:14,8
DA:18,8
DA:20,8
DA:22,24
DA:25,48
DA:26,32
DA:33,80
DA:34,64
DA:35,64
DA:39,80
DA:40,64
DA:43,8
DA:44,8
DA:45,8
DA:46,8
LF:18
LH:18
end_of_record
SF:/usr/include/c++/9/bits/std_function.h
DA:686,64
DA:687,0
DA:688,64
LF:3
LH:2
end_of_record
TN:
SF:/usr/include/c++/9/cmath
DA:418,44664
LF:1
LH:1
end_of_record
SF:/qulacs-osaka/src/csim/utility.hpp
FN:56,_ZL16count_populationy
FNDA:444004,_ZL16count_populationy
FNF:1
FNH:1
DA:12,335708
DA:13,335708
DA:56,444004
DA:57,444004
DA:58,444004
DA:59,444004
DA:60,444004
DA:61,444004
DA:62,444004
DA:63,444004
LF:10
LH:10
end_of_record
SF:/usr/include/x86_64-linux-gnu/bits/stdio2.h
DA:100,0
LF:1
LH:0
end_of_record
SF:/qulacs-osaka/src/csim/stat_ops_expectation_value.cpp
FN:23,_Z34expectation_value_X_Pauli_operatorjPKSt7complexIdEy
FNDA:0,_Z34expectation_value_X_Pauli_operatorjPKSt7complexIdEy
FN:42,_Z34expectation_value_Y_Pauli_operatorjPKSt7complexIdEy
FNDA:30,_Z34expectation_value_Y_Pauli_operatorjPKSt7complexIdEy
FN:61,_Z34expectation_value_Z_Pauli_operatorjPKSt7complexIdEy
FNDA:20,_Z34expectation_value_Z_Pauli_operatorjPKSt7complexIdEy
FN:77,_Z45expectation_value_single_qubit_Pauli_operatorjjPKSt7complexIdEy
FNDA:50,_Z45expectation_value_single_qubit_Pauli_operatorjjPKSt7complexIdEy
FN:104,_Z52expectation_value_multi_qubit_Pauli_operator_XZ_maskyyjjPKSt7complexIdEy
FNDA:537,_Z52expectation_value_multi_qubit_Pauli_operator_XZ_maskyyjjPKSt7complexIdEy
FN:127,_Z51expectation_value_multi_qubit_Pauli_operator_Z_maskyPKSt7complexIdEy
FNDA:1571,_Z51expectation_value_multi_qubit_Pauli_operator_Z_maskyPKSt7complexIdEy
FN:143,_Z57expectation_value_multi_qubit_Pauli_operator_partial_listPKjS0_jPKSt7complexIdEy
FNDA:1868,_Z57expectation_value_multi_qubit_Pauli_operator_partial_listPKjS0_jPKSt7complexIdEy
FN:165,_Z55expectation_value_multi_qubit_Pauli_operator_whole_listPKjjPKSt7complexIdEy
FNDA:240,_Z55expectation_value_multi_qubit_Pauli_operator_whole_listPKjjPKSt7complexIdEy
FN:197,_Z66expectation_value_multi_qubit_Pauli_operator_XZ_mask_single_threadyyjjPKSt7complexIdEy
FNDA:180759,_Z66expectation_value_multi_qubit_Pauli_operator_XZ_mask_single_threadyyjjPKSt7complexIdEy
FN:218,_Z65expectation_value_multi_qubit_Pauli_operator_Z_mask_single_threadyPKSt7complexIdEy
FNDA:20182,_Z65expectation_value_multi_qubit_Pauli_operator_Z_mask_single_threadyPKSt7complexIdEy
FN:232,_Z71expectation_value_multi_qubit_Pauli_operator_partial_list_single_threadPKjS0_jPKSt7complexIdEy
FNDA:200941,_Z71expectation_value_multi_qubit_Pauli_operator_partial_list_single_threadPKjS0_jPKSt7complexIdEy
FNF:11
FNH:10
DA:23,0
DA:25,0
DA:26,0
DA:30,0
DA:38,0
DA:42,30
DA:44,30
DA:45,30
DA:49,30
DA:57,30
DA:61,20
DA:67,20
DA:73,20
DA:77,50
DA:79,50
DA:80,0
DA:81,50
DA:82,0
DA:83,0
DA:84,50
DA:85,30
DA:86,30
DA:87,20
DA:88,20
DA:89,20
DA:91,0
DA:93,0
DA:104,537
DA:107,537
DA:108,537
DA:112,537
DA:124,537
DA:127,1571
DA:133,1571
DA:140,1571
DA:143,1868
DA:146,1868
DA:147,1868
DA:148,1868
DA:149,1868
DA:150,1868
DA:154,1868
DA:155,1451
DA:158,417
DA:162,1868
DA:165,240
DA:168,240
DA:169,240
DA:170,240
DA:171,240
DA:172,240
DA:176,240
DA:177,120
DA:180,120
DA:184,240
DA:197,180759
DA:200,180759
DA:206,516467
DA:209,335708
DA:210,335708
DA:211,335708
DA:212,335708
DA:215,180759
DA:218,20182
DA:224,64846
DA:225,44664
DA:226,44664
DA:227,44664
DA:229,20182
DA:232,200941
DA:235,200941
DA:236,200941
DA:237,200941
DA:238,200941
DA:239,200941
DA:243,200941
DA:245,20182
DA:249,180759
DA:253,200941
LF:79
LH:69
end_of_record
SF:/usr/include/c++/9/complex
DA:393,335708
DA:404,335708
DA:615,44664
DA:707,335708
DA:1252,335708
DA:1256,335708
DA:1303,335708
DA:1347,335708
DA:1348,335708
LF:9
LH:9
end_of_record
TN:
SF:/usr/lib/gcc/x86_64-linux-gnu/9/include/avxintrin.h
DA:886,604
DA:892,604
LF:2
LH:2
end_of_record
SF:/qulacs-osaka/src/csim/update_ops_named_SWAP.cpp
FN:23,_Z9SWAP_gatejjPSt7complexIdEy
FNDA:216,_Z9SWAP_gatejjPSt7complexIdEy
FN:65,_Z23SWAP_gate_single_unrolljjPSt7complexIdEy
FNDA:12,_Z23SWAP_gate_single_unrolljjPSt7complexIdEy
FN:112,_Z25SWAP_gate_parallel_unrolljjPSt7complexIdEy
FNDA:12,_Z25SWAP_gate_parallel_unrolljjPSt7complexIdEy
FN:162,_Z21SWAP_gate_single_simdjjPSt7complexIdEy
FNDA:228,_Z21SWAP_gate_single_simdjjPSt7complexIdEy
FN:209,_Z23SWAP_gate_parallel_simdjjPSt7complexIdEy
FNDA:12,_Z23SWAP_gate_parallel_simdjjPSt7complexIdEy
FNF:5
FNH:5
DA:23,216
DA:37,216
DA:38,216
DA:41,0
DA:63,216
DA:65,12
DA:67,12
DA:69,12
DA:70,12
DA:71,12
DA:77,12
DA:78,12
DA:79,12
DA:80,12
DA:81,12
DA:84,12
DA:85,68
DA:86,64
DA:87,64
DA:88,64
DA:89,64
DA:90,64
DA:91,64
DA:92,64
DA:96,72
DA:97,64
DA:98,64
DA:99,64
DA:100,64
DA:101,64
DA:102,64
DA:103,64
DA:104,64
DA:105,64
DA:106,64
DA:109,12
DA:112,12
DA:114,12
DA:116,12
DA:117,12
DA:118,12
DA:124,12
DA:125,12
DA:126,12
DA:127,12
DA:128,12
DA:131,12
DA:132,4
DA:144,8
DA:158,12
DA:162,228
DA:164,228
DA:166,228
DA:167,228
DA:168,228
DA:174,228
DA:175,228
DA:176,228
DA:177,228
DA:178,228
DA:181,228
DA:182,747
DA:183,664
DA:184,664
DA:185,664
DA:186,664
DA:187,664
DA:188,664
DA:189,664
DA:193,749
DA:194,604
DA:195,604
DA:196,604
DA:197,604
DA:198,604
DA:199,604
DA:206,228
DA:209,12
DA:211,12
DA:213,12
DA:214,12
DA:215,12
DA:221,12
DA:222,12
DA:223,12
DA:224,12
DA:225,12
DA:228,12
DA:229,4
DA:241,8
DA:255,12
LF:91
LH:90
end_of_record
TN:
SF:/usr/include/c++/9/complex
LF:0
LH:0
end_of_record
SF:/qulacs-osaka/src/csim/update_ops_reflection.cpp
FN:14,_Z15reflection_gatePKSt7complexIdEPS0_y
FNDA:0,_Z15reflection_gatePKSt7complexIdEPS0_y
FNF:1
FNH:0
DA:14,0
DA:15,0
DA:17,0
DA:23,0
LF:4
LH:0
end_of_record
TN:
SF:/usr/lib/gcc/x86_64-linux-gnu/9/include/avx2intrin.h
DA:1051,7150
LF:1
LH:1
end_of_record
SF:/qulacs-osaka/src/csim/update_ops_named_X.cpp
FN:19,_Z6X_gatejPSt7complexIdEy
FNDA:191,_Z6X_gatejPSt7complexIdEy
FN:53,_Z20X_gate_single_unrolljPSt7complexIdEy
FNDA:24,_Z20X_gate_single_unrolljPSt7complexIdEy
FN:82,_Z22X_gate_parallel_unrolljPSt7complexIdEy
FNDA:24,_Z22X_gate_parallel_unrolljPSt7complexIdEy
FN:114,_Z18X_gate_single_simdjPSt7complexIdEy
FNDA:215,_Z18X_gate_single_simdjPSt7complexIdEy
FN:146,_Z20X_gate_parallel_simdjPSt7complexIdEy
FNDA:24,_Z20X_gate_parallel_simdjPSt7complexIdEy
FNF:5
FNH:5
DA:19,191
DA:31,191
DA:32,191
DA:34,0
DA:51,191
DA:53,24
DA:54,24
DA:55,24
DA:56,24
DA:59,24
DA:61,132
DA:62,128
DA:63,128
DA:64,128
DA:67,340
DA:68,320
DA:69,320
DA:70,320
DA:71,320
DA:72,320
DA:73,320
DA:74,320
DA:75,320
DA:76,320
DA:79,24
DA:82,24
DA:83,24
DA:84,24
DA:85,24
DA:88,24
DA:90,4
DA:97,20
DA:110,24
DA:114,215
DA:115,215
DA:116,215
DA:117,215
DA:121,215
DA:123,7244
DA:124,7150
DA:131,1365
DA:132,1244
DA:133,1244
DA:134,1244
DA:135,1244
DA:136,1244
DA:143,215
DA:146,24
DA:147,24
DA:148,24
DA:149,24
DA:153,24
DA:155,4
DA:164,20
DA:177,24
LF:55
LH:54
end_of_record
SF:/usr/lib/gcc/x86_64-linux-gnu/9/include/avxintrin.h
DA:886,7150
DA:892,8394
LF:2
LH:2
end_of_record
TN:
SF:/usr/include/c++/9/complex
DA:393,3492780
DA:1303,9744
DA:1331,3492780
DA:1347,3492780
DA:1348,3492780
LF:5
LH:5
end_of_record
SF:/qulacs-osaka/src/csim/update_ops_named_state.cpp
FN:19,_Z9normalizedPSt7complexIdEy
FNDA:14445,_Z9normalizedPSt7complexIdEy
FN:31,_Z23normalize_single_threaddPSt7complexIdEy
FNDA:2430,_Z23normalize_single_threaddPSt7complexIdEy
FN:40,_Z9state_addPKSt7complexIdEPS0_y
FNDA:111184,_Z9state_addPKSt7complexIdEPS0_y
FN:50,_Z19state_add_with_coefSt7complexIdEPKS0_PS0_y
FNDA:97620,_Z19state_add_with_coefSt7complexIdEPKS0_PS0_y
FN:61,_Z33state_add_with_coef_single_threadSt7complexIdEPKS0_PS0_y
FNDA:863593,_Z33state_add_with_coef_single_threadSt7complexIdEPKS0_PS0_y
FN:69,_Z14state_multiplySt7complexIdEPS0_y
FNDA:114028,_Z14state_multiplySt7complexIdEPS0_y
FNF:6
FNH:6
DA:19,14445
DA:21,14445
DA:24,14445
DA:29,14445
DA:31,2430
DA:33,2430
DA:35,12174
DA:36,9744
DA:38,2430
DA:40,111184
DA:43,111184
DA:48,111184
DA:50,97620
DA:54,97620
DA:59,97620
DA:61,863593
DA:64,4356380
DA:65,3492780
DA:67,863593
DA:69,114028
DA:72,114028
DA:77,114028
LF:22
LH:22
end_of_record
TN:
SF:/usr/lib/gcc/x86_64-linux-gnu/9/include/avxintrin.h
DA:886,1120
DA:892,39782
LF:2
LH:2
end_of_record
SF:/usr/lib/gcc/x86_64-linux-gnu/9/include/avx2intrin.h
DA:1051,1120
LF:1
LH:1
end_of_record
SF:/qulacs-osaka/src/csim/update_ops_named_CNOT.cpp
FN:22,_Z9CNOT_gatejjPSt7complexIdEy
FNDA:34439,_Z9CNOT_gatejjPSt7complexIdEy
FN:63,_Z23CNOT_gate_single_unrolljjPSt7complexIdEy
FNDA:12,_Z23CNOT_gate_single_unrolljjPSt7complexIdEy
FN:120,_Z25CNOT_gate_parallel_unrolljjPSt7complexIdEy
FNDA:12,_Z25CNOT_gate_parallel_unrolljjPSt7complexIdEy
FN:180,_Z21CNOT_gate_single_simdjjPSt7complexIdEy
FNDA:34451,_Z21CNOT_gate_single_simdjjPSt7complexIdEy
FN:239,_Z23CNOT_gate_parallel_simdjjPSt7complexIdEy
FNDA:12,_Z23CNOT_gate_parallel_simdjjPSt7complexIdEy
FNF:5
FNH:5
DA:22,34439
DA:36,34439
DA:37,34439
DA:40,0
DA:61,34439
DA:63,12
DA:65,12
DA:67,12
DA:68,12
DA:74,12
DA:75,12
DA:76,12
DA:77,12
DA:78,12
DA:81,12
DA:83,68
DA:84,64
DA:85,64
DA:86,64
DA:87,64
DA:88,64
DA:90,8
DA:92,0
DA:93,0
DA:94,0
DA:95,0
DA:96,0
DA:97,0
DA:98,0
DA:99,0
DA:103,72
DA:104,64
DA:105,64
DA:106,64
DA:107,64
DA:108,64
DA:109,64
DA:110,64
DA:111,64
DA:112,64
DA:113,64
DA:116,12
DA:120,12
DA:122,12
DA:124,12
DA:125,12
DA:131,12
DA:132,12
DA:133,12
DA:134,12
DA:135,12
DA:138,12
DA:140,4
DA:148,8
DA:150,0
DA:162,8
DA:176,12
DA:180,34451
DA:182,34451
DA:184,34451
DA:185,34451
DA:191,34451
DA:192,34451
DA:193,34451
DA:194,34451
DA:195,34451
DA:198,34451
DA:200,1539
DA:201,1120
DA:202,1120
DA:203,1120
DA:209,34032
DA:211,73679
DA:212,45376
DA:213,45376
DA:214,45376
DA:215,45376
DA:216,45376
DA:217,45376
DA:218,45376
DA:222,44391
DA:223,38662
DA:224,38662
DA:225,38662
DA:226,38662
DA:227,38662
DA:228,38662
DA:235,34451
DA:239,12
DA:241,12
DA:243,12
DA:244,12
DA:250,12
DA:251,12
DA:252,12
DA:253,12
DA:254,12
DA:257,12
DA:259,4
DA:269,8
DA:271,0
DA:283,8
DA:297,12
LF:103
LH:92
end_of_record
TN:
SF:/usr/include/c++/9/complex
DA:1282,1756570
LF:1
LH:1
end_of_record
SF:/qulacs-osaka/src/csim/init_ops_fill.cpp
FN:15,_Z24initialize_quantum_statePSt7complexIdEy
FNDA:276286,_Z24initialize_quantum_statePSt7complexIdEy
FN:27,_Z31initialize_quantum_state_singlePSt7complexIdEy
FNDA:276284,_Z31initialize_quantum_state_singlePSt7complexIdEy
FN:35,_Z33initialize_quantum_state_parallelPSt7complexIdEy
FNDA:2,_Z33initialize_quantum_state_parallelPSt7complexIdEy
FNF:3
FNH:3
DA:15,276286
DA:18,276286
DA:19,276284
DA:21,2
DA:26,276286
DA:27,276284
DA:29,2032850
DA:30,1756570
DA:33,276284
DA:35,2
DA:37,2
DA:42,2
LF:12
LH:12
end_of_record
TN:
SF:/usr/lib/gcc/x86_64-linux-gnu/9/include/avx2intrin.h
DA:1051,1061100
LF:1
LH:1
end_of_record
SF:/qulacs-osaka/src/csim/update_ops_matrix_dense_single.cpp
FN:28,_Z30single_qubit_dense_matrix_gatejPKSt7complexIdEPS0_y
FNDA:384402,_Z30single_qubit_dense_matrix_gatejPKSt7complexIdEPS0_y
FN:79,_Z37single_qubit_dense_matrix_gate_singlejPKSt7complexIdEPS0_y
FNDA:20,_Z37single_qubit_dense_matrix_gate_singlejPKSt7complexIdEPS0_y
FN:103,_Z39single_qubit_dense_matrix_gate_paralleljPKSt7complexIdEPS0_y
FNDA:20,_Z39single_qubit_dense_matrix_gate_paralleljPKSt7complexIdEPS0_y
FN:128,_Z44single_qubit_dense_matrix_gate_single_unrolljPKSt7complexIdEPS0_y
FNDA:20,_Z44single_qubit_dense_matrix_gate_single_unrolljPKSt7complexIdEPS0_y
FN:170,_Z46single_qubit_dense_matrix_gate_parallel_unrolljPKSt7complexIdEPS0_y
FNDA:20,_Z46single_qubit_dense_matrix_gate_parallel_unrolljPKSt7complexIdEPS0_y
FN:215,_Z42single_qubit_dense_matrix_gate_single_simdjPKSt7complexIdEPS0_y
FNDA:384422,_Z42single_qubit_dense_matrix_gate_single_simdjPKSt7complexIdEPS0_y
FN:308,_Z44single_qubit_dense_matrix_gate_parallel_simdjPKSt7complexIdEPS0_y
FNDA:20,_Z44single_qubit_dense_matrix_gate_parallel_simdjPKSt7complexIdEPS0_y
FNF:7
FNH:7
DA:28,384402
DA:45,384402
DA:46,384402
DA:49,0
DA:77,384402
DA:79,20
DA:81,20
DA:82,20
DA:83,20
DA:87,660
DA:88,640
DA:89,640
DA:90,640
DA:93,640
DA:94,640
DA:97,640
DA:98,640
DA:100,20
DA:103,20
DA:105,20
DA:106,20
DA:107,20
DA:111,20
DA:125,20
DA:128,20
DA:130,20
DA:131,20
DA:132,20
DA:135,20
DA:137,99
DA:138,96
DA:139,96
DA:142,96
DA:143,96
DA:147,289
DA:148,272
DA:149,272
DA:150,272
DA:151,272
DA:152,272
DA:153,272
DA:154,272
DA:161,272
DA:162,272
DA:163,272
DA:164,272
DA:167,20
DA:170,20
DA:172,20
DA:173,20
DA:174,20
DA:177,20
DA:179,3
DA:190,17
DA:211,20
DA:215,384422
DA:217,384422
DA:218,384422
DA:219,384422
DA:222,384422
DA:224,170916
DA:228,170916
DA:232,524616
DA:233,353700
DA:256,213506
DA:260,213506
DA:264,213506
DA:268,213506
DA:272,551370
DA:273,337864
DA:274,337864
DA:275,337864
DA:276,337864
DA:277,337864
DA:304,384422
DA:308,20
DA:310,20
DA:311,20
DA:312,20
DA:315,20
DA:317,3
DA:321,3
DA:325,3
DA:350,17
DA:354,17
DA:358,17
DA:362,17
DA:366,17
DA:399,20
LF:89
LH:88
end_of_record
SF:/usr/lib/gcc/x86_64-linux-gnu/9/include/avxintrin.h
DA:143,337864
DA:266,1029430
DA:314,691564
DA:886,691564
DA:892,691564
DA:1244,384442
LF:6
LH:6
end_of_record
SF:/usr/include/c++/9/complex
DA:393,640
DA:1252,384442
DA:1256,384442
DA:1331,1008
DA:1347,368
DA:1348,1008
LF:6
LH:6
end_of_record
TN:
SF:/qulacs-osaka/src/csim/update_ops_control_single_target_multi.cpp
FN:14,_Z50single_qubit_control_multi_qubit_dense_matrix_gatejjPKjjPKSt7complexIdEPS2_y
FNDA:40,_Z50single_qubit_control_multi_qubit_dense_matrix_gatejjPKjjPKSt7complexIdEPS2_y
FNF:1
FNH:1
DA:14,40
DA:19,40
DA:20,40
DA:22,40
DA:25,40
DA:26,40
DA:30,40
DA:33,40
DA:36,520
DA:39,2240
DA:40,1760
DA:46,480
DA:49,3680
DA:50,3200
DA:51,26240
DA:52,23040
DA:53,23040
DA:58,3680
DA:59,3200
DA:62,40
DA:63,40
DA:64,40
DA:65,40
LF:23
LH:23
end_of_record
SF:/usr/include/c++/9/complex
DA:393,23040
DA:1282,3200
DA:1331,23040
DA:1347,23040
DA:1348,23040
LF:5
LH:5
end_of_record
SF:/qulacs-osaka/src/csim/utility.hpp
DA:12,1760
DA:13,1760
LF:2
LH:2
end_of_record
TN:
SF:/qulacs-osaka/src/csim/update_ops_pauli_multi.cpp
FN:46,_Z30multi_qubit_Pauli_gate_XZ_maskyyjjPSt7complexIdEy
FNDA:86969,_Z30multi_qubit_Pauli_gate_XZ_maskyyjjPSt7complexIdEy
FN:89,_Z39multi_qubit_Pauli_rotation_gate_XZ_maskyyjjdPSt7complexIdEy
FNDA:754,_Z39multi_qubit_Pauli_rotation_gate_XZ_maskyyjjdPSt7complexIdEy
FN:140,_Z29multi_qubit_Pauli_gate_Z_maskyPSt7complexIdEy
FNDA:10701,_Z29multi_qubit_Pauli_gate_Z_maskyPSt7complexIdEy
FN:166,_Z38multi_qubit_Pauli_rotation_gate_Z_maskydPSt7complexIdEy
FNDA:688,_Z38multi_qubit_Pauli_rotation_gate_Z_maskydPSt7complexIdEy
FN:195,_Z35multi_qubit_Pauli_gate_partial_listPKjS0_jPSt7complexIdEy
FNDA:97650,_Z35multi_qubit_Pauli_gate_partial_listPKjS0_jPSt7complexIdEy
FN:214,_Z33multi_qubit_Pauli_gate_whole_listPKjjPSt7complexIdEy
FNDA:20,_Z33multi_qubit_Pauli_gate_whole_listPKjjPSt7complexIdEy
FN:232,_Z44multi_qubit_Pauli_rotation_gate_partial_listPKjS0_jdPSt7complexIdEy
FNDA:1422,_Z44multi_qubit_Pauli_rotation_gate_partial_listPKjS0_jdPSt7complexIdEy
FN:252,_Z42multi_qubit_Pauli_rotation_gate_whole_listPKjjdPSt7complexIdEy
FNDA:20,_Z42multi_qubit_Pauli_rotation_gate_whole_listPKjjdPSt7complexIdEy
FN:272,_Z44multi_qubit_Pauli_gate_XZ_mask_single_threadyyjjPSt7complexIdEy
FNDA:2864,_Z44multi_qubit_Pauli_gate_XZ_mask_single_threadyyjjPSt7complexIdEy
FN:307,_Z53multi_qubit_Pauli_rotation_gate_XZ_mask_single_threadyyjjdPSt7complexIdEy
FNDA:0,_Z53multi_qubit_Pauli_rotation_gate_XZ_mask_single_threadyyjjdPSt7complexIdEy
FN:349,_Z43multi_qubit_Pauli_gate_Z_mask_single_threadyPSt7complexIdEy
FNDA:956086,_Z43multi_qubit_Pauli_gate_Z_mask_single_threadyPSt7complexIdEy
FN:365,_Z52multi_qubit_Pauli_rotation_gate_Z_mask_single_threadydPSt7complexIdEy
FNDA:0,_Z52multi_qubit_Pauli_rotation_gate_Z_mask_single_threadydPSt7complexIdEy
FN:384,_Z49multi_qubit_Pauli_gate_partial_list_single_threadPKjS0_jPSt7complexIdEy
FNDA:958950,_Z49multi_qubit_Pauli_gate_partial_list_single_threadPKjS0_jPSt7complexIdEy
FN:405,_Z47multi_qubit_Pauli_gate_whole_list_single_threadPKjjPSt7complexIdEy
FNDA:0,_Z47multi_qubit_Pauli_gate_whole_list_single_threadPKjjPSt7complexIdEy
FN:426,_Z58multi_qubit_Pauli_rotation_gate_partial_list_single_threadPKjS0_jdPSt7complexIdEy
FNDA:0,_Z58multi_qubit_Pauli_rotation_gate_partial_list_single_threadPKjS0_jdPSt7complexIdEy
FN:447,_Z56multi_qubit_Pauli_rotation_gate_whole_list_single_threadPKjjdPSt7complexIdEy
FNDA:0,_Z56multi_qubit_Pauli_rotation_gate_whole_list_single_threadPKjjdPSt7complexIdEy
FNF:16
FNH:11
DA:46,86969
DA:50,86969
DA:53,86969
DA:54,86969
DA:59,86969
DA:60,86969
DA:61,86969
DA:86,86969
DA:88,86969
DA:89,754
DA:93,754
DA:96,754
DA:97,754
DA:101,754
DA:102,754
DA:105,754
DA:106,754
DA:107,754
DA:136,754
DA:138,754
DA:140,10701
DA:148,10701
DA:149,10701
DA:150,10701
DA:162,10701
DA:164,10701
DA:166,688
DA:173,688
DA:174,688
DA:178,688
DA:179,688
DA:180,688
DA:191,688
DA:193,688
DA:195,97650
DA:199,97650
DA:200,97650
DA:201,97650
DA:202,97650
DA:203,97650
DA:206,97650
DA:207,10701
DA:209,86949
DA:212,97650
DA:214,20
DA:217,20
DA:218,20
DA:219,20
DA:220,20
DA:221,20
DA:224,20
DA:225,0
DA:227,20
DA:230,20
DA:232,1422
DA:236,1422
DA:237,1422
DA:238,1422
DA:239,1422
DA:240,1422
DA:243,1422
DA:244,688
DA:247,734
DA:250,1422
DA:252,20
DA:256,20
DA:257,20
DA:258,20
DA:259,20
DA:260,20
DA:263,20
DA:264,0
DA:267,20
DA:270,20
DA:272,2864
DA:276,2864
DA:279,2864
DA:280,2864
DA:283,8592
DA:285,5728
DA:286,5728
DA:289,5728
DA:292,5728
DA:293,5728
DA:296,5728
DA:297,5728
DA:301,5728
DA:303,5728
DA:305,2864
DA:307,0
DA:311,0
DA:314,0
DA:315,0
DA:319,0
DA:320,0
DA:321,0
DA:323,0
DA:324,0
DA:327,0
DA:330,0
DA:331,0
DA:334,0
DA:335,0
DA:341,0
DA:345,0
DA:347,0
DA:349,956086
DA:354,4821640
DA:356,3865550
DA:359,3865550
DA:360,1044620
DA:363,956086
DA:365,0
DA:372,0
DA:373,0
DA:374,0
DA:376,0
DA:377,0
DA:380,0
DA:382,0
DA:384,958950
DA:388,958950
DA:389,958950
DA:390,958950
DA:391,958950
DA:392,958950
DA:395,958950
DA:396,956086
DA:399,2864
DA:403,958950
DA:405,0
DA:409,0
DA:410,0
DA:411,0
DA:412,0
DA:413,0
DA:416,0
DA:417,0
DA:420,0
DA:424,0
DA:426,0
DA:430,0
DA:431,0
DA:432,0
DA:433,0
DA:434,0
DA:437,0
DA:438,0
DA:441,0
DA:445,0
DA:447,0
DA:451,0
DA:452,0
DA:453,0
DA:454,0
DA:455,0
DA:458,0
DA:459,0
DA:462,0
DA:466,0
LF:160
LH:103
end_of_record
SF:/usr/include/c++/9/complex
DA:353,0
DA:404,0
DA:413,0
DA:1234,0
DA:1289,0
DA:1303,1044620
DA:1304,1044620
DA:1331,0
DA:1347,5728
DA:1348,5728
LF:10
LH:4
end_of_record
SF:/qulacs-osaka/src/csim/utility.hpp
FN:56,_ZL16count_populationy
FNDA:5728490,_ZL16count_populationy
FNF:1
FNH:1
DA:56,5728490
DA:57,5728490
DA:58,5728490
DA:59,5728490
DA:60,5728490
DA:61,5728490
DA:62,5728490
DA:63,5728490
LF:8
LH:8
end_of_record
TN:
SF:/usr/include/x86_64-linux-gnu/bits/string_fortified.h
DA:34,1041
LF:1
LH:1
end_of_record
SF:/usr/lib/gcc/x86_64-linux-gnu/9/include/avx2intrin.h
LF:0
LH:0
end_of_record
SF:/qulacs-osaka/src/csim/update_ops_matrix_dense_double.cpp
FN:29,_Z32double_qubit_dense_matrix_gate_cjjPKSt7complexIdEPS0_y
FNDA:1885,_Z32double_qubit_dense_matrix_gate_cjjPKSt7complexIdEPS0_y
FN:50,_Z37double_qubit_dense_matrix_gate_nosimdjjPKSt7complexIdEPS0_y
FNDA:100,_Z37double_qubit_dense_matrix_gate_nosimdjjPKSt7complexIdEPS0_y
FN:102,_Z40double_qubit_dense_matrix_gate_simd_highjjPKSt7complexIdEPS0_y
FNDA:596,_Z40double_qubit_dense_matrix_gate_simd_highjjPKSt7complexIdEPS0_y
FN:406,_Z39double_qubit_dense_matrix_gate_simd_lowjjPKSt7complexIdEPS0_y
FNDA:308,_Z39double_qubit_dense_matrix_gate_simd_lowjjPKSt7complexIdEPS0_y
FN:745,_Z42double_qubit_dense_matrix_gate_simd_middlejjPKSt7complexIdEPS0_y
FNDA:1041,_Z42double_qubit_dense_matrix_gate_simd_middlejjPKSt7complexIdEPS0_y
FN:943,_Z35double_qubit_dense_matrix_gate_simdjjPKSt7complexIdEPS0_y
FNDA:1965,_Z35double_qubit_dense_matrix_gate_simdjjPKSt7complexIdEPS0_y
FNF:6
FNH:6
DA:29,1885
DA:33,1885
DA:34,1885
DA:38,1885
DA:46,1885
DA:48,1885
DA:50,100
DA:56,100
DA:57,100
DA:58,100
DA:59,100
DA:60,100
DA:62,100
DA:63,100
DA:66,100
DA:70,100
DA:99,100
DA:102,596
DA:110,596
DA:111,596
DA:112,596
DA:113,596
DA:114,596
DA:116,596
DA:117,596
DA:120,596
DA:126,596
DA:404,596
DA:406,308
DA:413,308
DA:418,308
DA:420,226
DA:579,82
DA:737,308
DA:740,465
DA:741,465
DA:742,465
DA:743,465
DA:745,1041
DA:749,1041
DA:767,1041
DA:768,1041
DA:769,1041
DA:770,1041
DA:771,1041
DA:775,1041
DA:778,1041
DA:785,1041
DA:941,1041
DA:943,1965
DA:946,1965
DA:948,20
DA:950,1945
DA:951,596
DA:953,1349
DA:954,1041
DA:957,308
DA:960,1965
LF:58
LH:58
end_of_record
SF:/usr/lib/gcc/x86_64-linux-gnu/9/include/fmaintrin.h
LF:0
LH:0
end_of_record
SF:/usr/lib/gcc/x86_64-linux-gnu/9/include/avxintrin.h
LF:0
LH:0
end_of_record
SF:/usr/include/c++/9/complex
LF:0
LH:0
end_of_record
TN:
SF:/qulacs-osaka/src/cppsim/qubit_info.hpp
FN:170,_ZNK15TargetQubitInfo19get_merged_propertyEj
FNDA:0,_ZNK15TargetQubitInfo19get_merged_propertyEj
FN:180,_ZNK15TargetQubitInfo19get_merged_propertyERKS_
FNDA:0,_ZNK15TargetQubitInfo19get_merged_propertyERKS_
FN:190,_ZNK15TargetQubitInfo19get_merged_propertyERK16ControlQubitInfo
FNDA:0,_ZNK15TargetQubitInfo19get_merged_propertyERK16ControlQubitInfo
FNF:3
FNH:0
DA:142,1908
DA:170,0
DA:171,0
DA:180,0
DA:181,0
DA:190,0
DA:192,0
LF:7
LH:1
end_of_record
SF:/qulacs-osaka/src/cppsim/qubit_info.cpp
FN:4,_ZNK15TargetQubitInfo15is_commute_withERKS_
FNDA:68155,_ZNK15TargetQubitInfo15is_commute_withERKS_
FN:12,_ZNK15TargetQubitInfo15is_commute_withERK16ControlQubitInfo
FNDA:6954,_ZNK15TargetQubitInfo15is_commute_withERK16ControlQubitInfo
FN:21,_ZNK16ControlQubitInfo15is_commute_withERK15TargetQubitInfo
FNDA:1849,_ZNK16ControlQubitInfo15is_commute_withERK15TargetQubitInfo
FN:29,_ZNK16ControlQubitInfo15is_commute_withERKS_
FNDA:0,_ZNK16ControlQubitInfo15is_commute_withERKS_
FNF:4
FNH:3
DA:4,68155
DA:5,68155
DA:7,15795
DA:10,15107
DA:12,6954
DA:13,6954
DA:15,1533
DA:18,1081
DA:21,1849
DA:22,1849
DA:24,375
DA:27,291
DA:29,0
DA:30,0
LF:14
LH:12
end_of_record
TN:
SF:/qulacs-osaka/src/cppsim/observable.hpp
DA:37,6
LF:1
LH:1
end_of_record
SF:/usr/lib/gcc/x86_64-linux-gnu/9/include/avxintrin.h
DA:143,208800
DA:155,208800
DA:314,208800
DA:339,208800
DA:741,240736
DA:862,209480
DA:868,241416
DA:886,45255
DA:892,45255
LF:9
LH:9
end_of_record
SF:/qulacs-osaka/include/Eigen/src/Core/MapBase.h
DA:90,117705
DA:172,117705
LF:2
LH:2
end_of_record
SF:/qulacs-osaka/include/Eigen/src/Eigenvalues/SelfAdjointEigenSolver.h
FN:450,_ZN5Eigen22SelfAdjointEigenSolverINS_6MatrixISt7complexIdELin1ELin1ELi1ELin1ELin1EEEE22computeFromTridiagonalERKNS1_IdLin1ELi1ELi0ELin1ELi1EEES8_i
FNDA:20,_ZN5Eigen22SelfAdjointEigenSolverINS_6MatrixISt7complexIdELin1ELin1ELi1ELin1ELin1EEEE22computeFromTridiagonalERKNS1_IdLin1ELi1ELi0ELin1ELi1EEES8_i
FN:482,_ZN5Eigen8internal27computeFromTridiagonal_implINS_6MatrixISt7complexIdELin1ELin1ELi0ELin1ELin1EEENS2_IdLin1ELi1ELi0ELin1ELi1EEES6_EENS_15ComputationInfoERT0_RT1_lbRT_
FNDA:20,_ZN5Eigen8internal27computeFromTridiagonal_implINS_6MatrixISt7complexIdELin1ELin1ELi0ELin1ELin1EEENS2_IdLin1ELi1ELi0ELin1ELi1EEES6_EENS_15ComputationInfoERT0_RT1_lbRT_
FN:808,_ZN5Eigen8internalL19tridiagonal_qr_stepILi0EdSt7complexIdElEEvPT0_S5_T2_S6_PT1_S6_
FNDA:1776,_ZN5Eigen8internalL19tridiagonal_qr_stepILi0EdSt7complexIdElEEvPT0_S5_T2_S6_PT1_S6_
FNF:3
FNH:3
DA:118,20
DA:122,20
DA:450,20
DA:454,20
DA:458,20
DA:460,20
DA:462,20
DA:464,20
DA:465,20
DA:466,20
DA:482,20
DA:490,20
DA:498,1796
DA:500,61382
DA:501,59586
DA:502,1380
DA:505,3176
DA:509,1796
DA:513,1776
DA:514,1776
DA:516,1776
DA:517,58206
DA:520,3552
DA:522,20
DA:532,1400
DA:535,1380
DA:536,1380
DA:538,1293
DA:539,1293
DA:540,1293
DA:544,20
DA:808,1776
DA:811,1776
DA:812,1776
DA:819,1776
DA:820,10
DA:825,1766
DA:826,1766
DA:829,1776
DA:830,1776
DA:831,59982
DA:837,58206
DA:838,58206
DA:840,58206
DA:841,58206
DA:842,58206
DA:845,58206
DA:846,56430
DA:848,58206
DA:850,58206
DA:852,56430
DA:853,56430
DA:857,58206
DA:861,58206
DA:864,1776
LF:55
LH:55
end_of_record
SF:/qulacs-osaka/include/Eigen/src/Core/CoreEvaluators.h
DA:154,80
DA:155,708
DA:172,1400
DA:181,98000
DA:187,372307
DA:204,680
DA:472,100
DA:699,528
DA:702,528
DA:719,0
DA:735,208800
DA:821,1293
DA:822,1293
DA:824,1293
DA:834,48300
DA:840,0
DA:852,1400
DA:867,45255
DA:882,45255
LF:19
LH:17
end_of_record
SF:/usr/include/c++/9/sstream
DA:832,0
LF:1
LH:0
end_of_record
SF:/usr/include/c++/9/bits/basic_ios.h
DA:191,0
DA:202,0
LF:2
LH:0
end_of_record
SF:/qulacs-osaka/include/Eigen/src/Core/Map.h
DA:94,58206
LF:1
LH:1
end_of_record
SF:/usr/include/c++/9/bits/alloc_traits.h
DA:470,1692
DA:484,0
DA:497,0
LF:3
LH:1
end_of_record
SF:/qulacs-osaka/include/Eigen/src/Core/MathFunctions.h
DA:279,59972
DA:818,1766
DA:826,1766
DA:1299,59586
LF:4
LH:4
end_of_record
SF:/qulacs-osaka/include/Eigen/src/Core/Block.h
DA:347,20
DA:353,59499
DA:374,1380
DA:375,1380
DA:437,59499
LF:5
LH:5
end_of_record
SF:/usr/include/c++/9/bits/stl_iterator_base_funcs.h
DA:104,22856
DA:180,0
LF:2
LH:1
end_of_record
SF:/usr/include/c++/9/bits/random.h
FN:1606,_ZNSt13random_deviceC2Ev
FNDA:0,_ZNSt13random_deviceC2Ev
FNF:1
FNH:0
DA:181,0
DA:519,0
DA:1606,0
DA:1612,0
DA:1643,0
DA:1751,0
DA:1752,0
DA:1862,0
DA:1981,0
DA:1982,0
DA:2017,0
DA:2019,0
LF:12
LH:0
end_of_record
SF:/qulacs-osaka/src/cppsim/general_quantum_operator.hpp
FN:68,_ZNK22GeneralQuantumOperator12is_hermitianEv
FNDA:0,_ZNK22GeneralQuantumOperator12is_hermitianEv
FN:93,_ZNK22GeneralQuantumOperator15get_qubit_countEv
FNDA:100,_ZNK22GeneralQuantumOperator15get_qubit_countEv
FN:100,_ZNK22GeneralQuantumOperator13get_state_dimEv
FNDA:80,_ZNK22GeneralQuantumOperator13get_state_dimEv
FN:107,_ZNK22GeneralQuantumOperator14get_term_countEv
FNDA:628,_ZNK22GeneralQuantumOperator14get_term_countEv
FN:116,_ZNK22GeneralQuantumOperator8get_termEj
FNDA:528,_ZNK22GeneralQuantumOperator8get_termEj
FN:130,_ZNK22GeneralQuantumOperator9get_termsEv
FNDA:0,_ZNK22GeneralQuantumOperator9get_termsEv
FNF:6
FNH:4
DA:68,0
DA:93,100
DA:100,80
DA:107,628
DA:116,528
DA:117,528
DA:120,0
DA:122,528
DA:130,0
DA:131,0
LF:10
LH:6
end_of_record
SF:/qulacs-osaka/src/cppsim/utility.hpp
FN:58,_ZN6RandomC2Ev
FNDA:0,_ZN6RandomC2Ev
FNF:1
FNH:0
DA:58,0
DA:59,0
DA:60,0
DA:61,0
DA:74,0
DA:95,0
LF:6
LH:0
end_of_record
SF:/qulacs-osaka/include/Eigen/src/Core/MathFunctionsImpl.h
FN:76,_ZN5Eigen8internal19positive_real_hypotIdEET_RKS2_S4_
FNDA:1766,_ZN5Eigen8internal19positive_real_hypotIdEET_RKS2_S4_
FNF:1
FNH:1
DA:76,1766
DA:81,1766
DA:82,1766
DA:83,1766
DA:93,1766
LF:5
LH:5
end_of_record
SF:/qulacs-osaka/include/Eigen/src/Core/util/XprHelper.h
DA:120,119726
LF:1
LH:1
end_of_record
SF:/usr/include/c++/9/tuple
DA:523,90
LF:1
LH:1
end_of_record
SF:/qulacs-osaka/include/Eigen/src/Core/Matrix.h
FN:291,_ZN5Eigen6MatrixIdLin1ELi1ELi0ELin1ELi1EEC2IjEERKT_
FNDA:40,_ZN5Eigen6MatrixIdLin1ELi1ELi0ELin1ELi1EEC2IjEERKT_
FN:291,_ZN5Eigen6MatrixISt7complexIdELin1ELi1ELi0ELin1ELi1EEC2IyEERKT_
FNDA:0,_ZN5Eigen6MatrixISt7complexIdELin1ELi1ELi0ELin1ELi1EEC2IyEERKT_
FNF:2
FNH:1
DA:178,608
DA:208,20
DA:291,40
DA:294,40
DA:295,40
DA:291,0
DA:294,0
DA:295,0
DA:369,40
DA:377,80
LF:10
LH:7
end_of_record
SF:/usr/include/c++/9/bits/std_abs.h
DA:72,120806
LF:1
LH:1
end_of_record
SF:/usr/include/c++/9/bits/stl_vector.h
FN:519,_ZNSt6vectorIjSaIjEEC2EmRKjRKS0_
FNDA:528,_ZNSt6vectorIjSaIjEEC2EmRKjRKS0_
FN:550,_ZNSt6vectorIjSaIjEEC2ERKS1_
FNDA:0,_ZNSt6vectorIjSaIjEEC2ERKS1_
FN:550,_ZNSt6vectorIP13PauliOperatorSaIS1_EEC2ERKS3_
FNDA:0,_ZNSt6vectorIP13PauliOperatorSaIS1_EEC2ERKS3_
FN:675,_ZNSt6vectorINSt7__cxx1112basic_stringIcSt11char_traitsIcESaIcEEESaIS5_EED2Ev
FNDA:210,_ZNSt6vectorINSt7__cxx1112basic_stringIcSt11char_traitsIcESaIcEEESaIS5_EED2Ev
FN:954,_ZNSt6vectorIjSaIjEE6resizeEmRKj
FNDA:0,_ZNSt6vectorIjSaIjEE6resizeEmRKj
FN:1184,_ZNSt6vectorINSt7__cxx1112basic_stringIcSt11char_traitsIcESaIcEEESaIS5_EE9push_backERKS5_
FNDA:90,_ZNSt6vectorINSt7__cxx1112basic_stringIcSt11char_traitsIcESaIcEEESaIS5_EE9push_backERKS5_
FN:1184,_ZNSt6vectorISt7complexIdESaIS1_EE9push_backERKS1_
FNDA:90,_ZNSt6vectorISt7complexIdESaIS1_EE9push_backERKS1_
FN:1184,_ZNSt6vectorIdSaIdEE9push_backERKd
FNDA:0,_ZNSt6vectorIdSaIdEE9push_backERKd
FN:1184,_ZNSt6vectorIjSaIjEE9push_backERKj
FNDA:0,_ZNSt6vectorIjSaIjEE9push_backERKj
FN:1753,_ZNKSt6vectorIySaIyEE12_M_check_lenEmPKc
FNDA:0,_ZNKSt6vectorIySaIyEE12_M_check_lenEmPKc
FN:1753,_ZNKSt6vectorINSt7__cxx1112basic_stringIcSt11char_traitsIcESaIcEEESaIS5_EE12_M_check_lenEmPKc
FNDA:0,_ZNKSt6vectorINSt7__cxx1112basic_stringIcSt11char_traitsIcESaIcEEESaIS5_EE12_M_check_lenEmPKc
FN:1753,_ZNKSt6vectorISt7complexIdESaIS1_EE12_M_check_lenEmPKc
FNDA:0,_ZNKSt6vectorISt7complexIdESaIS1_EE12_M_check_lenEmPKc
FN:1753,_ZNKSt6vectorIdSaIdEE12_M_check_lenEmPKc
FNDA:0,_ZNKSt6vectorIdSaIdEE12_M_check_lenEmPKc
FN:1753,_ZNKSt6vectorIjSaIjEE12_M_check_lenEmPKc
FNDA:0,_ZNKSt6vectorIjSaIjEE12_M_check_lenEmPKc
FNF:14
FNH:4
DA:94,534
DA:95,1062
DA:333,210
DA:350,210
DA:358,528
DA:359,0
DA:360,528
DA:519,528
DA:522,528
DA:550,0
DA:552,0
DA:554,0
DA:555,0
DA:558,0
DA:550,0
DA:552,0
DA:554,0
DA:555,0
DA:558,0
DA:675,210
DA:677,844
DA:680,1056
DA:711,96
DA:916,3640
DA:954,0
DA:956,0
DA:957,0
DA:958,0
DA:959,0
DA:960,0
DA:997,0
DA:1043,2488
DA:1061,528
DA:1184,90
DA:1186,90
DA:1191,60
DA:1195,30
DA:1196,90
DA:1184,90
DA:1186,90
DA:1191,60
DA:1195,30
DA:1196,90
DA:1184,0
DA:1186,0
DA:1189,0
DA:1191,0
DA:1195,0
DA:1196,0
DA:1184,0
DA:1186,0
DA:1189,0
DA:1191,0
DA:1195,0
DA:1196,0
DA:1201,4352
DA:1592,528
DA:1708,0
DA:1753,0
DA:1755,0
DA:1756,0
DA:1758,0
DA:1759,0
DA:1753,0
DA:1755,0
DA:1756,0
DA:1758,0
DA:1759,0
DA:1753,0
DA:1755,0
DA:1756,0
DA:1758,0
DA:1759,0
DA:1753,0
DA:1755,0
DA:1756,0
DA:1758,0
DA:1759,0
DA:1753,0
DA:1755,0
DA:1756,0
DA:1758,0
DA:1759,0
DA:1766,528
DA:1767,0
DA:1791,0
DA:1795,0
LF:87
LH:28
end_of_record
SF:/usr/include/c++/9/complex
DA:353,20
DA:413,4074420
DA:457,2800
DA:469,40
DA:684,0
DA:1234,104930
DA:1252,1420
DA:1256,4058
DA:1282,0
DA:1289,20
DA:1303,4074420
DA:1331,4074420
DA:1347,0
DA:1348,0
LF:14
LH:10
end_of_record
SF:/usr/include/c++/9/bits/stl_iterator.h
DA:535,4352
DA:807,6
DA:829,4352
DA:830,90
DA:856,0
DA:992,0
LF:6
LH:4
end_of_record
SF:/usr/include/c++/9/new
DA:57,0
LF:1
LH:0
end_of_record
SF:/usr/include/c++/9/bits/stl_construct.h
DA:107,612
LF:1
LH:1
end_of_record
SF:/usr/include/c++/9/bits/predefined_ops.h
DA:65,0
LF:1
LH:0
end_of_record
SF:/usr/include/c++/9/ext/string_conversions.h
FN:54,_ZN9__gnu_cxx6__stoaIlicJiEEET0_PFT_PKT1_PPS3_DpT2_EPKcS5_PmS9_
FNDA:222,_ZN9__gnu_cxx6__stoaIlicJiEEET0_PFT_PKT1_PPS3_DpT2_EPKcS5_PmS9_
FNF:1
FNH:1
DA:54,222
DA:63,222
DA:64,222
DA:76,222
DA:80,222
DA:82,222
DA:83,0
DA:84,222
DA:85,222
DA:86,0
DA:88,222
DA:90,222
DA:91,0
DA:93,222
LF:14
LH:11
end_of_record
SF:/qulacs-osaka/include/Eigen/src/Core/IO.h
FN:53,_ZN5Eigen8IOFormatC2EiiRKNSt7__cxx1112basic_stringIcSt11char_traitsIcESaIcEEES8_S8_S8_S8_S8_
FNDA:0,_ZN5Eigen8IOFormatC2EiiRKNSt7__cxx1112basic_stringIcSt11char_traitsIcESaIcEEES8_S8_S8_S8_S8_
FN:129,_ZN5Eigen8internal12print_matrixINS_6MatrixISt7complexIdELin1ELi1ELi0ELin1ELi1EEEEERSoS6_RKT_RKNS_8IOFormatE
FNDA:0,_ZN5Eigen8internal12print_matrixINS_6MatrixISt7complexIdELin1ELi1ELi0ELin1ELi1EEEEERSoS6_RKT_RKNS_8IOFormatE
FN:216,_ZN5EigenlsINS_6MatrixISt7complexIdELin1ELi1ELi0ELin1ELi1EEEEERSoS5_RKNS_9DenseBaseIT_EE
FNDA:0,_ZN5EigenlsINS_6MatrixISt7complexIdELin1ELi1ELi0ELin1ELi1EEEEERSoS5_RKNS_9DenseBaseIT_EE
FNF:3
FNH:0
DA:53,0
DA:57,0
DA:58,0
DA:62,0
DA:64,0
DA:65,0
DA:68,0
DA:129,0
DA:131,0
DA:134,0
DA:140,0
DA:143,0
DA:147,0
DA:160,0
DA:164,0
DA:166,0
DA:167,0
DA:170,0
DA:171,0
DA:173,0
DA:174,0
DA:175,0
DA:176,0
DA:180,0
DA:182,0
DA:185,0
DA:186,0
DA:194,0
DA:198,0
DA:216,0
DA:220,0
LF:31
LH:0
end_of_record
SF:/usr/include/c++/9/bits/exception.h
DA:63,0
LF:1
LH:0
end_of_record
SF:/usr/include/c++/9/bits/stl_algobase.h
DA:203,1766
DA:204,426
DA:227,1766
DA:228,426
DA:384,0
DA:385,0
DA:386,0
DA:387,0
DA:586,0
DA:587,0
DA:588,0
DA:713,0
DA:714,0
DA:770,2176
DA:771,2704
DA:772,2176
DA:974,0
DA:976,0
DA:979,0
DA:983,0
LF:20
LH:7
end_of_record
SF:/qulacs-osaka/include/Eigen/src/Core/Stride.h
DA:71,58206
LF:1
LH:1
end_of_record
SF:/qulacs-osaka/include/Eigen/src/Core/PlainObjectBase.h
FN:279,_ZN5Eigen15PlainObjectBaseINS_6MatrixIdLin1ELi1ELi0ELin1ELi1EEEE6resizeEll
FNDA:40,_ZN5Eigen15PlainObjectBaseINS_6MatrixIdLin1ELi1ELi0ELin1ELi1EEEE6resizeEll
FN:279,_ZN5Eigen15PlainObjectBaseINS_6MatrixISt7complexIdELin1ELin1ELi1ELin1ELin1EEEE6resizeEll
FNDA:80,_ZN5Eigen15PlainObjectBaseINS_6MatrixISt7complexIdELin1ELin1ELi1ELin1ELin1EEEE6resizeEll
FN:279,_ZN5Eigen15PlainObjectBaseINS_6MatrixISt7complexIdELin1ELin1ELi0ELin1ELin1EEEE6resizeEll
FNDA:20,_ZN5Eigen15PlainObjectBaseINS_6MatrixISt7complexIdELin1ELin1ELi0ELin1ELin1EEEE6resizeEll
FN:362,_ZN5Eigen15PlainObjectBaseINS_6MatrixISt7complexIdELin1ELin1ELi1ELin1ELin1EEEE10resizeLikeINS_14CwiseNullaryOpINS_8internal18scalar_constant_opIS3_EES4_EEEEvRKNS_9EigenBaseIT_EE
FNDA:80,_ZN5Eigen15PlainObjectBaseINS_6MatrixISt7complexIdELin1ELin1ELi1ELin1ELin1EEEE10resizeLikeINS_14CwiseNullaryOpINS_8internal18scalar_constant_opIS3_EES4_EEEEvRKNS_9EigenBaseIT_EE
FN:532,_ZN5Eigen15PlainObjectBaseINS_6MatrixISt7complexIdELin1ELin1ELi1ELin1ELin1EEEEC2INS_14CwiseNullaryOpINS_8internal18scalar_constant_opIS3_EES4_EEEERKNS_9DenseBaseIT_EE
FNDA:80,_ZN5Eigen15PlainObjectBaseINS_6MatrixISt7complexIdELin1ELin1ELi1ELin1ELin1EEEEC2INS_14CwiseNullaryOpINS_8internal18scalar_constant_opIS3_EES4_EEEERKNS_9DenseBaseIT_EE
FNF:5
FNH:5
DA:45,80
DA:46,220
DA:48,0
DA:98,0
DA:151,101060
DA:153,3204
DA:165,0
DA:256,130266
DA:260,4469
DA:279,40
DA:293,40
DA:295,40
DA:279,80
DA:293,80
DA:295,80
DA:279,20
DA:293,20
DA:295,20
DA:319,40
DA:362,80
DA:377,80
DA:378,80
DA:519,40
DA:520,40
DA:532,80
DA:536,80
DA:538,80
DA:732,80
DA:781,40
LF:29
LH:26
end_of_record
SF:/usr/include/c++/9/bits/locale_facets.h
FN:872,_ZNKSt5ctypeIcE5widenEc
FNDA:0,_ZNKSt5ctypeIcE5widenEc
FN:1084,_ZNKSt5ctypeIcE8do_widenEc
FNDA:0,_ZNKSt5ctypeIcE8do_widenEc
FNF:2
FNH:0
DA:872,0
DA:874,0
DA:875,0
DA:876,0
DA:877,0
DA:1084,0
DA:1085,0
LF:7
LH:0
end_of_record
SF:/usr/include/c++/9/bits/basic_string.h
DA:159,556
DA:160,556
DA:179,239
DA:183,22862
DA:193,60
DA:203,402
DA:211,239
DA:217,22856
DA:222,23294
DA:231,23204
DA:237,329
DA:247,550
DA:348,22856
DA:349,8
DA:431,6
DA:434,0
DA:448,550
DA:451,460
DA:552,0
DA:555,0
DA:563,0
DA:569,0
DA:658,408
DA:1070,0
DA:1188,0
DA:1366,90
DA:2301,90
DA:2313,0
DA:2396,0
DA:6177,22120
DA:6421,0
DA:6504,222
LF:32
LH:22
end_of_record
SF:/qulacs-osaka/include/Eigen/src/Core/CwiseNullaryOp.h
FN:790,_ZN5Eigen10MatrixBaseINS_6MatrixISt7complexIdELin1ELin1ELi0ELin1ELin1EEEE11setIdentityEll
FNDA:20,_ZN5Eigen10MatrixBaseINS_6MatrixISt7complexIdELin1ELin1ELi0ELin1ELin1EEEE11setIdentityEll
FNF:1
FNH:1
DA:60,528
DA:78,180
DA:80,180
DA:747,20
DA:790,20
DA:792,20
DA:793,20
LF:7
LH:7
end_of_record
SF:/usr/include/c++/9/ext/new_allocator.h
DA:128,2021
LF:1
LH:1
end_of_record
SF:/usr/include/c++/9/bits/ios_base.h
DA:166,0
DA:707,0
DA:708,0
DA:709,0
DA:731,0
DA:732,0
LF:6
LH:0
end_of_record
SF:/usr/include/c++/9/bits/move.h
DA:193,0
DA:194,1293
DA:195,1293
LF:3
LH:2
end_of_record
SF:/usr/include/x86_64-linux-gnu/bits/string_fortified.h
DA:34,12480
LF:1
LH:1
end_of_record
SF:/usr/include/c++/9/streambuf
LF:0
LH:0
end_of_record
SF:/qulacs-osaka/include/Eigen/src/Core/DenseStorage.h
FN:353,_ZN5Eigen12DenseStorageISt7complexIdELin1ELin1ELin1ELi0EEC2ERKS3_
FNDA:20,_ZN5Eigen12DenseStorageISt7complexIdELin1ELin1ELin1ELi0EEC2ERKS3_
FN:402,_ZN5Eigen12DenseStorageISt7complexIdELin1ELin1ELin1ELi1EE6resizeElll
FNDA:80,_ZN5Eigen12DenseStorageISt7complexIdELin1ELin1ELin1ELi1EE6resizeElll
FN:402,_ZN5Eigen12DenseStorageISt7complexIdELin1ELin1ELin1ELi0EE6resizeElll
FNDA:20,_ZN5Eigen12DenseStorageISt7complexIdELin1ELin1ELin1ELi0EE6resizeElll
FN:508,_ZN5Eigen12DenseStorageIdLin1ELin1ELi1ELi0EEC2ERKS1_
FNDA:20,_ZN5Eigen12DenseStorageIdLin1ELin1ELi1ELi0EEC2ERKS1_
FNF:4
FNH:4
DA:344,608
DA:353,20
DA:354,20
DA:355,20
DA:356,20
DA:359,20
DA:360,20
DA:391,548
DA:402,80
DA:404,80
DA:406,80
DA:407,80
DA:408,80
DA:410,0
DA:413,80
DA:414,80
DA:415,80
DA:402,20
DA:404,20
DA:406,20
DA:407,20
DA:408,20
DA:410,0
DA:413,20
DA:414,20
DA:415,20
DA:500,60
DA:508,20
DA:509,20
DA:510,20
DA:513,20
DA:514,20
DA:542,60
LF:33
LH:31
end_of_record
SF:/usr/include/c++/9/bits/stl_algo.h
DA:4336,5408
DA:4337,4352
LF:2
LH:2
end_of_record
SF:/qulacs-osaka/include/Eigen/src/Core/functors/AssignmentFunctors.h
DA:24,98060
LF:1
LH:1
end_of_record
SF:/qulacs-osaka/include/Eigen/src/Core/DenseBase.h
DA:418,1293
LF:1
LH:1
end_of_record
SF:/usr/include/c++/9/bits/vector.tcc
FN:109,_ZNSt6vectorIjSaIjEE12emplace_backIJjEEEvDpOT_
FNDA:4352,_ZNSt6vectorIjSaIjEE12emplace_backIJjEEEvDpOT_
FN:109,_ZNSt6vectorIySaIyEE12emplace_backIJyEEEvDpOT_
FNDA:0,_ZNSt6vectorIySaIyEE12emplace_backIJyEEEvDpOT_
FN:109,_ZNSt6vectorIdSaIdEE12emplace_backIJdEEEvDpOT_
FNDA:0,_ZNSt6vectorIdSaIdEE12emplace_backIJdEEEvDpOT_
FN:198,_ZNSt6vectorIjSaIjEEaSERKS1_
FNDA:0,_ZNSt6vectorIjSaIjEEaSERKS1_
FN:426,_ZNSt6vectorIjSaIjEE17_M_realloc_insertIJjEEEvN9__gnu_cxx17__normal_iteratorIPjS1_EEDpOT_
FNDA:0,_ZNSt6vectorIjSaIjEE17_M_realloc_insertIJjEEEvN9__gnu_cxx17__normal_iteratorIPjS1_EEDpOT_
FN:426,_ZNSt6vectorIySaIyEE17_M_realloc_insertIJyEEEvN9__gnu_cxx17__normal_iteratorIPyS1_EEDpOT_
FNDA:0,_ZNSt6vectorIySaIyEE17_M_realloc_insertIJyEEEvN9__gnu_cxx17__normal_iteratorIPyS1_EEDpOT_
FN:426,_ZNSt6vectorIdSaIdEE17_M_realloc_insertIJdEEEvN9__gnu_cxx17__normal_iteratorIPdS1_EEDpOT_
FNDA:0,_ZNSt6vectorIdSaIdEE17_M_realloc_insertIJdEEEvN9__gnu_cxx17__normal_iteratorIPdS1_EEDpOT_
FN:426,_ZNSt6vectorINSt7__cxx1112basic_stringIcSt11char_traitsIcESaIcEEESaIS5_EE17_M_realloc_insertIJRKS5_EEEvN9__gnu_cxx17__normal_iteratorIPS5_S7_EEDpOT_
FNDA:0,_ZNSt6vectorINSt7__cxx1112basic_stringIcSt11char_traitsIcESaIcEEESaIS5_EE17_M_realloc_insertIJRKS5_EEEvN9__gnu_cxx17__normal_iteratorIPS5_S7_EEDpOT_
FN:426,_ZNSt6vectorISt7complexIdESaIS1_EE17_M_realloc_insertIJRKS1_EEEvN9__gnu_cxx17__normal_iteratorIPS1_S3_EEDpOT_
FNDA:0,_ZNSt6vectorISt7complexIdESaIS1_EE17_M_realloc_insertIJRKS1_EEEvN9__gnu_cxx17__normal_iteratorIPS1_S3_EEDpOT_
FN:426,_ZNSt6vectorIdSaIdEE17_M_realloc_insertIJRKdEEEvN9__gnu_cxx17__normal_iteratorIPdS1_EEDpOT_
FNDA:0,_ZNSt6vectorIdSaIdEE17_M_realloc_insertIJRKdEEEvN9__gnu_cxx17__normal_iteratorIPdS1_EEDpOT_
FN:426,_ZNSt6vectorIjSaIjEE17_M_realloc_insertIJRKjEEEvN9__gnu_cxx17__normal_iteratorIPjS1_EEDpOT_
FNDA:0,_ZNSt6vectorIjSaIjEE17_M_realloc_insertIJRKjEEEvN9__gnu_cxx17__normal_iteratorIPjS1_EEDpOT_
FN:509,_ZNSt6vectorIjSaIjEE14_M_fill_insertEN9__gnu_cxx17__normal_iteratorIPjS1_EEmRKj
FNDA:0,_ZNSt6vectorIjSaIjEE14_M_fill_insertEN9__gnu_cxx17__normal_iteratorIPjS1_EEmRKj
FNF:12
FNH:1
DA:109,4352
DA:112,4352
DA:115,876
DA:117,876
DA:121,3476
DA:125,4352
DA:109,0
DA:112,0
DA:115,0
DA:117,0
DA:121,0
DA:125,0
DA:109,0
DA:112,0
DA:115,0
DA:117,0
DA:121,0
DA:125,0
DA:198,0
DA:201,0
DA:223,0
DA:224,0
DA:226,0
DA:228,0
DA:233,0
DA:234,0
DA:236,0
DA:243,0
DA:245,0
DA:246,0
DA:250,0
DA:252,0
DA:426,0
DA:435,0
DA:437,0
DA:438,0
DA:440,0
DA:449,0
DA:450,0
DA:464,0
DA:502,0
DA:503,0
DA:504,0
DA:505,0
DA:426,0
DA:435,0
DA:437,0
DA:438,0
DA:440,0
DA:449,0
DA:450,0
DA:464,0
DA:502,0
DA:503,0
DA:504,0
DA:505,0
DA:426,0
DA:435,0
DA:437,0
DA:438,0
DA:440,0
DA:449,0
DA:450,0
DA:464,0
DA:502,0
DA:503,0
DA:504,0
DA:505,0
DA:426,0
DA:435,0
DA:437,0
DA:438,0
DA:440,0
DA:449,0
DA:450,0
DA:464,0
DA:485,0
DA:487,0
DA:493,0
DA:502,0
DA:503,0
DA:504,0
DA:505,0
DA:426,0
DA:435,0
DA:437,0
DA:438,0
DA:440,0
DA:449,0
DA:450,0
DA:464,0
DA:502,0
DA:503,0
DA:504,0
DA:505,0
DA:426,0
DA:435,0
DA:437,0
DA:438,0
DA:440,0
DA:449,0
DA:450,0
DA:464,0
DA:502,0
DA:503,0
DA:504,0
DA:505,0
DA:426,0
DA:435,0
DA:437,0
DA:438,0
DA:440,0
DA:449,0
DA:450,0
DA:464,0
DA:502,0
DA:503,0
DA:504,0
DA:505,0
DA:509,0
DA:512,0
DA:514,0
DA:515,0
DA:523,0
DA:525,0
DA:528,0
DA:532,0
DA:536,0
DA:542,0
DA:543,0
DA:551,0
DA:558,0
DA:561,0
DA:566,0
DA:573,0
DA:576,0
DA:580,0
DA:601,0
DA:602,0
DA:603,0
DA:606,0
LF:141
LH:6
end_of_record
SF:/qulacs-osaka/src/cppsim/observable.cpp
FN:19,_ZN24HermitianQuantumOperator12add_operatorEPK13PauliOperator
FNDA:928,_ZN24HermitianQuantumOperator12add_operatorEPK13PauliOperator
FN:28,_ZN24HermitianQuantumOperator12add_operatorESt7complexIdENSt7__cxx1112basic_stringIcSt11char_traitsIcESaIcEEE
FNDA:310,_ZN24HermitianQuantumOperator12add_operatorESt7complexIdENSt7__cxx1112basic_stringIcSt11char_traitsIcESaIcEEE
FN:38,_ZNK24HermitianQuantumOperator21get_expectation_valueEPK16QuantumStateBase
FNDA:72560,_ZNK24HermitianQuantumOperator21get_expectation_valueEPK16QuantumStateBase
FN:44,_ZNK24HermitianQuantumOperator47solve_ground_state_eigenvalue_by_lanczos_methodEP16QuantumStateBasejSt7complexIdE
FNDA:20,_ZNK24HermitianQuantumOperator47solve_ground_state_eigenvalue_by_lanczos_methodEP16QuantumStateBasejSt7complexIdE
FN:173,_ZNK24HermitianQuantumOperator9to_stringB5cxx11Ev
FNDA:0,_ZNK24HermitianQuantumOperator9to_stringB5cxx11Ev
FN:187,_ZN10observable39create_observable_from_openfermion_fileENSt7__cxx1112basic_stringIcSt11char_traitsIcESaIcEEE
FNDA:0,_ZN10observable39create_observable_from_openfermion_fileENSt7__cxx1112basic_stringIcSt11char_traitsIcESaIcEEE
FN:237,_ZN10observable39create_observable_from_openfermion_textERKNSt7__cxx1112basic_stringIcSt11char_traitsIcESaIcEEE
FNDA:6,_ZN10observable39create_observable_from_openfermion_textERKNSt7__cxx1112basic_stringIcSt11char_traitsIcESaIcEEE
FN:277,_ZN10observable23create_split_observableENSt7__cxx1112basic_stringIcSt11char_traitsIcESaIcEEE
FNDA:0,_ZN10observable23create_split_observableENSt7__cxx1112basic_stringIcSt11char_traitsIcESaIcEEE
FN:336,_Z28convert_observable_to_matrixRK24HermitianQuantumOperator
FNDA:80,_Z28convert_observable_to_matrixRK24HermitianQuantumOperator
FNF:9
FNH:6
DA:19,928
DA:20,928
DA:23,0
DA:25,928
DA:26,928
DA:28,310
DA:30,310
DA:33,0
DA:35,310
DA:36,310
DA:38,72560
DA:40,72560
DA:44,20
DA:47,20
DA:53,0
DA:61,20
DA:66,20
DA:67,40
DA:68,40
DA:71,20
DA:73,20
DA:74,20
DA:76,20
DA:77,20
DA:78,1400
DA:80,1400
DA:81,1400
DA:82,1400
DA:83,1400
DA:86,1400
DA:87,1400
DA:89,1400
DA:93,1380
DA:94,1380
DA:95,1380
DA:96,1380
DA:98,1360
DA:99,1360
DA:100,1360
DA:104,1380
DA:106,1380
DA:107,1380
DA:108,1380
DA:113,20
DA:114,20
DA:118,20
DA:119,1420
DA:120,1400
DA:127,20
DA:135,20
DA:136,20
DA:137,20
DA:138,1400
DA:140,1400
DA:141,1400
DA:142,1400
DA:145,1400
DA:146,1400
DA:147,1400
DA:148,1400
DA:149,1400
DA:154,1380
DA:155,1380
DA:156,1380
DA:157,1380
DA:159,1360
DA:160,1360
DA:161,1360
DA:165,1380
DA:166,1380
DA:167,1380
DA:170,20
DA:173,0
DA:174,0
DA:175,0
DA:176,0
DA:177,0
DA:178,0
DA:179,0
DA:180,0
DA:183,0
DA:187,0
DA:191,0
DA:193,0
DA:194,0
DA:196,0
DA:197,0
DA:202,0
DA:205,0
DA:207,0
DA:208,0
DA:209,0
DA:213,0
DA:214,0
DA:215,0
DA:217,0
DA:218,0
DA:222,0
DA:223,0
DA:225,0
DA:228,0
DA:230,0
DA:231,0
DA:234,0
DA:237,6
DA:241,6
DA:243,6
DA:245,6
DA:247,12
DA:248,96
DA:250,90
DA:251,90
DA:252,90
DA:256,90
DA:257,90
DA:258,180
DA:260,312
DA:261,222
DA:266,6
DA:268,96
DA:269,180
DA:270,90
DA:273,6
DA:277,0
DA:280,0
DA:282,0
DA:283,0
DA:285,0
DA:286,0
DA:291,0
DA:294,0
DA:296,0
DA:297,0
DA:298,0
DA:302,0
DA:303,0
DA:304,0
DA:306,0
DA:307,0
DA:311,0
DA:312,0
DA:314,0
DA:317,0
DA:319,0
DA:321,0
DA:322,0
DA:323,0
DA:324,0
DA:325,0
DA:327,0
DA:328,0
DA:332,0
DA:336,80
DA:337,80
DA:338,80
DA:339,80
DA:340,608
DA:342,528
DA:343,528
DA:344,528
DA:345,528
DA:347,528
DA:348,2704
DA:349,2176
DA:353,528
DA:354,528
DA:356,80
LF:167
LH:103
end_of_record
SF:/usr/include/c++/9/bits/random.tcc
FN:396,_ZNSt23mersenne_twister_engineImLm64ELm312ELm156ELm31ELm13043109905998158313ELm29ELm6148914691236517205ELm17ELm8202884508482404352ELm37ELm18444473444759240704ELm43ELm6364136223846793005EE11_M_gen_randEv
FNDA:0,_ZNSt23mersenne_twister_engineImLm64ELm312ELm156ELm31ELm13043109905998158313ELm29ELm6148914691236517205ELm17ELm8202884508482404352ELm37ELm18444473444759240704ELm43ELm6364136223846793005EE11_M_gen_randEv
FN:452,_ZNSt23mersenne_twister_engineImLm64ELm312ELm156ELm31ELm13043109905998158313ELm29ELm6148914691236517205ELm17ELm8202884508482404352ELm37ELm18444473444759240704ELm43ELm6364136223846793005EEclEv
FNDA:0,_ZNSt23mersenne_twister_engineImLm64ELm312ELm156ELm31ELm13043109905998158313ELm29ELm6148914691236517205ELm17ELm8202884508482404352ELm37ELm18444473444759240704ELm43ELm6364136223846793005EEclEv
FN:3316,_ZSt18generate_canonicalIdLm53ESt23mersenne_twister_engineImLm64ELm312ELm156ELm31ELm13043109905998158313ELm29ELm6148914691236517205ELm17ELm8202884508482404352ELm37ELm18444473444759240704ELm43ELm6364136223846793005EEET_RT1_
FNDA:0,_ZSt18generate_canonicalIdLm53ESt23mersenne_twister_engineImLm64ELm312ELm156ELm31ELm13043109905998158313ELm29ELm6148914691236517205ELm17ELm8202884508482404352ELm37ELm18444473444759240704ELm43ELm6364136223846793005EEET_RT1_
FNF:3
FNH:0
DA:329,0
DA:332,0
DA:334,0
DA:335,0
DA:336,0
DA:337,0
DA:338,0
DA:341,0
DA:396,0
DA:403,0
DA:405,0
DA:406,0
DA:407,0
DA:408,0
DA:411,0
DA:413,0
DA:414,0
DA:415,0
DA:416,0
DA:419,0
DA:420,0
DA:421,0
DA:422,0
DA:423,0
DA:424,0
DA:452,0
DA:457,0
DA:458,0
DA:461,0
DA:462,0
DA:463,0
DA:464,0
DA:465,0
DA:467,0
DA:3316,0
DA:3332,0
DA:3334,0
DA:3335,0
DA:3337,0
DA:3338,0
DA:3347,0
LF:41
LH:0
end_of_record
SF:/qulacs-osaka/include/Eigen/src/Core/util/Memory.h
FN:67,_ZN5Eigen8internal19throw_std_bad_allocEv
FNDA:0,_ZN5Eigen8internal19throw_std_bad_allocEv
FN:153,_ZN5Eigen8internal14aligned_mallocEm
FNDA:220,_ZN5Eigen8internal14aligned_mallocEm
FN:369,_ZN5Eigen8internal28conditional_aligned_new_autoISt7complexIdELb1EEEPT_m
FNDA:120,_ZN5Eigen8internal28conditional_aligned_new_autoISt7complexIdELb1EEEPT_m
FN:369,_ZN5Eigen8internal28conditional_aligned_new_autoIdLb1EEEPT_m
FNDA:100,_ZN5Eigen8internal28conditional_aligned_new_autoIdLb1EEEPT_m
FNF:4
FNH:3
DA:67,0
DA:70,0
DA:88,220
DA:89,220
DA:90,220
DA:91,220
DA:92,220
DA:98,668
DA:153,220
DA:167,220
DA:168,0
DA:170,220
DA:214,220
DA:288,220
DA:289,0
DA:369,120
DA:371,120
DA:374,120
DA:387,120
DA:369,100
DA:371,100
DA:374,100
DA:387,100
DA:451,1293
DA:459,1293
DA:460,1293
DA:493,40
DA:494,40
DA:496,40
LF:29
LH:25
end_of_record
SF:/usr/include/c++/9/iostream
LF:0
LH:0
end_of_record
SF:/usr/include/c++/9/bits/std_function.h
DA:686,0
DA:687,0
DA:688,0
LF:3
LH:0
end_of_record
SF:/usr/include/c++/9/bits/basic_string.tcc
FN:206,_ZNSt7__cxx1112basic_stringIcSt11char_traitsIcESaIcEE12_M_constructIPcEEvT_S7_St20forward_iterator_tag
FNDA:550,_ZNSt7__cxx1112basic_stringIcSt11char_traitsIcESaIcEE12_M_constructIPcEEvT_S7_St20forward_iterator_tag
FN:206,_ZNSt7__cxx1112basic_stringIcSt11char_traitsIcESaIcEE12_M_constructIPKcEEvT_S8_St20forward_iterator_tag
FNDA:22306,_ZNSt7__cxx1112basic_stringIcSt11char_traitsIcESaIcEE12_M_constructIPKcEEvT_S8_St20forward_iterator_tag
FNF:2
FNH:2
DA:206,550
DA:211,550
DA:212,0
DA:215,550
DA:217,550
DA:219,239
DA:220,239
DA:225,550
DA:232,550
DA:233,550
DA:206,22306
DA:211,22306
DA:212,0
DA:215,22306
DA:217,22306
DA:219,0
DA:220,0
DA:225,22306
DA:232,22306
DA:233,22306
LF:20
LH:16
end_of_record
SF:/usr/include/c++/9/bits/char_traits.h
DA:300,14
DA:363,22848
DA:365,22846
LF:3
LH:3
end_of_record
SF:/qulacs-osaka/include/Eigen/src/Core/EigenBase.h
DA:66,608
LF:1
LH:1
end_of_record
SF:/qulacs-osaka/include/Eigen/src/Core/AssignEvaluator.h
FN:322,_ZN5Eigen8internal21dense_assignment_loopINS0_31generic_dense_assignment_kernelINS0_9evaluatorINS_6MatrixISt7complexIdELin1ELin1ELi0ELin1ELin1EEEEENS3_INS_14CwiseNullaryOpINS0_18scalar_identity_opIS6_EES7_EEEENS0_9assign_opIS6_S6_EELi0EEELi0ELi0EE3runERSG_
FNDA:20,_ZN5Eigen8internal21dense_assignment_loopINS0_31generic_dense_assignment_kernelINS0_9evaluatorINS_6MatrixISt7complexIdELin1ELin1ELi0ELin1ELin1EEEEENS3_INS_14CwiseNullaryOpINS0_18scalar_identity_opIS6_EES7_EEEENS0_9assign_opIS6_S6_EELi0EEELi0ELi0EE3runERSG_
FN:397,_ZN5Eigen8internal21dense_assignment_loopINS0_31generic_dense_assignment_kernelINS0_9evaluatorINS_6MatrixIdLin1ELi1ELi0ELin1ELi1EEEEES6_NS0_9assign_opIddEELi0EEELi3ELi0EE3runERS9_
FNDA:40,_ZN5Eigen8internal21dense_assignment_loopINS0_31generic_dense_assignment_kernelINS0_9evaluatorINS_6MatrixIdLin1ELi1ELi0ELin1ELi1EEEEES6_NS0_9assign_opIddEELi0EEELi3ELi0EE3runERS9_
FN:397,_ZN5Eigen8internal21dense_assignment_loopINS0_31generic_dense_assignment_kernelINS0_9evaluatorINS_5BlockINS_6MatrixISt7complexIdELin1ELin1ELi0ELin1ELin1EEELin1ELi1ELb1EEEEESA_NS0_14swap_assign_opIS7_EELi0EEELi3ELi0EE3runERSD_
FNDA:1293,_ZN5Eigen8internal21dense_assignment_loopINS0_31generic_dense_assignment_kernelINS0_9evaluatorINS_5BlockINS_6MatrixISt7complexIdELin1ELin1ELi0ELin1ELin1EEELin1ELi1ELb1EEEEESA_NS0_14swap_assign_opIS7_EELi0EEELi3ELi0EE3runERSD_
FN:397,_ZN5Eigen8internal21dense_assignment_loopINS0_31generic_dense_assignment_kernelINS0_9evaluatorINS_6MatrixISt7complexIdELin1ELin1ELi1ELin1ELin1EEEEENS3_INS_14CwiseNullaryOpINS0_18scalar_constant_opIS6_EES7_EEEENS0_9assign_opIS6_S6_EELi0EEELi3ELi0EE3runERSG_
FNDA:80,_ZN5Eigen8internal21dense_assignment_loopINS0_31generic_dense_assignment_kernelINS0_9evaluatorINS_6MatrixISt7complexIdELin1ELin1ELi1ELin1ELin1EEEEENS3_INS_14CwiseNullaryOpINS0_18scalar_constant_opIS6_EES7_EEEENS0_9assign_opIS6_S6_EELi0EEELi3ELi0EE3runERSG_
FN:397,_ZN5Eigen8internal21dense_assignment_loopINS0_31generic_dense_assignment_kernelINS0_9evaluatorINS_6MatrixISt7complexIdELin1ELin1ELi1ELin1ELin1EEEEENS3_INS_13CwiseBinaryOpINS0_17scalar_product_opIS6_S6_EEKNS_14CwiseNullaryOpINS0_18scalar_constant_opIS6_EEKS7_EESF_EEEENS0_13add_assign_opIS6_S6_EELi0EEELi3ELi0EE3runERSM_
FNDA:528,_ZN5Eigen8internal21dense_assignment_loopINS0_31generic_dense_assignment_kernelINS0_9evaluatorINS_6MatrixISt7complexIdELin1ELin1ELi1ELin1ELin1EEEEENS3_INS_13CwiseBinaryOpINS0_17scalar_product_opIS6_S6_EEKNS_14CwiseNullaryOpINS0_18scalar_constant_opIS6_EEKS7_EESF_EEEENS0_13add_assign_opIS6_S6_EELi0EEELi3ELi0EE3runERSM_
FN:725,_ZN5Eigen8internal26call_dense_assignment_loopINS_6MatrixISt7complexIdELin1ELin1ELi0ELin1ELin1EEENS_14CwiseNullaryOpINS0_18scalar_identity_opIS4_EES5_EENS0_9assign_opIS4_S4_EEEEvRT_RKT0_RKT1_
FNDA:20,_ZN5Eigen8internal26call_dense_assignment_loopINS_6MatrixISt7complexIdELin1ELin1ELi0ELin1ELin1EEENS_14CwiseNullaryOpINS0_18scalar_identity_opIS4_EES5_EENS0_9assign_opIS4_S4_EEEEvRT_RKT0_RKT1_
FN:725,_ZN5Eigen8internal26call_dense_assignment_loopINS_6MatrixIdLin1ELi1ELi0ELin1ELi1EEES3_NS0_9assign_opIddEEEEvRT_RKT0_RKT1_
FNDA:40,_ZN5Eigen8internal26call_dense_assignment_loopINS_6MatrixIdLin1ELi1ELi0ELin1ELi1EEES3_NS0_9assign_opIddEEEEvRT_RKT0_RKT1_
FN:725,_ZN5Eigen8internal26call_dense_assignment_loopINS_5BlockINS_6MatrixISt7complexIdELin1ELin1ELi0ELin1ELin1EEELin1ELi1ELb1EEES7_NS0_14swap_assign_opIS5_EEEEvRT_RKT0_RKT1_
FNDA:1293,_ZN5Eigen8internal26call_dense_assignment_loopINS_5BlockINS_6MatrixISt7complexIdELin1ELin1ELi0ELin1ELin1EEELin1ELi1ELb1EEES7_NS0_14swap_assign_opIS5_EEEEvRT_RKT0_RKT1_
FN:725,_ZN5Eigen8internal26call_dense_assignment_loopINS_6MatrixISt7complexIdELin1ELin1ELi1ELin1ELin1EEENS_14CwiseNullaryOpINS0_18scalar_constant_opIS4_EES5_EENS0_9assign_opIS4_S4_EEEEvRT_RKT0_RKT1_
FNDA:80,_ZN5Eigen8internal26call_dense_assignment_loopINS_6MatrixISt7complexIdELin1ELin1ELi1ELin1ELin1EEENS_14CwiseNullaryOpINS0_18scalar_constant_opIS4_EES5_EENS0_9assign_opIS4_S4_EEEEvRT_RKT0_RKT1_
FN:725,_ZN5Eigen8internal26call_dense_assignment_loopINS_6MatrixISt7complexIdELin1ELin1ELi1ELin1ELin1EEENS_13CwiseBinaryOpINS0_17scalar_product_opIS4_S4_EEKNS_14CwiseNullaryOpINS0_18scalar_constant_opIS4_EEKS5_EESC_EENS0_13add_assign_opIS4_S4_EEEEvRT_RKT0_RKT1_
FNDA:528,_ZN5Eigen8internal26call_dense_assignment_loopINS_6MatrixISt7complexIdELin1ELin1ELi1ELin1ELin1EEENS_13CwiseBinaryOpINS0_17scalar_product_opIS4_S4_EEKNS_14CwiseNullaryOpINS0_18scalar_constant_opIS4_EEKS5_EESC_EENS0_13add_assign_opIS4_S4_EEEEvRT_RKT0_RKT1_
FNF:10
FNH:10
DA:322,20
DA:324,1420
DA:325,99400
DA:329,20
DA:389,3294
DA:390,0
DA:397,40
DA:399,40
DA:411,40
DA:415,720
DA:416,680
DA:419,40
DA:397,1293
DA:399,1293
DA:411,1293
DA:415,46548
DA:416,45255
DA:419,1293
DA:397,80
DA:399,80
DA:411,80
DA:415,32016
DA:416,31936
DA:419,80
DA:397,528
DA:399,528
DA:411,528
DA:415,209328
DA:416,208800
DA:419,528
DA:610,1961
DA:611,1961
DA:637,60
DA:645,98000
DA:658,241416
DA:689,1293
DA:719,140
DA:720,40
DA:725,20
DA:741,20
DA:742,20
DA:725,40
DA:741,40
DA:742,40
DA:725,1293
DA:741,1293
DA:742,1293
DA:725,80
DA:741,80
DA:742,80
DA:725,528
DA:741,528
DA:742,528
DA:782,20
DA:879,1941
LF:55
LH:54
end_of_record
SF:/qulacs-osaka/src/cppsim/pauli_operator.hpp
FN:92,_ZNK13PauliOperator14get_index_listEv
FNDA:528,_ZNK13PauliOperator14get_index_listEv
FN:110,_ZNK13PauliOperator17get_pauli_id_listEv
FNDA:528,_ZNK13PauliOperator17get_pauli_id_listEv
FN:201,_ZNK13PauliOperator8get_coefEv
FNDA:1456,_ZNK13PauliOperator8get_coefEv
FNF:3
FNH:3
DA:92,528
DA:96,528
DA:97,528
DA:110,528
DA:114,528
DA:115,528
DA:201,1456
LF:7
LH:7
end_of_record
SF:/usr/include/c++/9/bits/stl_uninitialized.h
DA:307,0
DA:927,0
DA:928,0
DA:929,0
DA:930,0
DA:949,0
LF:6
LH:0
end_of_record
SF:/qulacs-osaka/include/Eigen/src/Core/Swap.h
DA:48,45255
DA:49,45255
DA:50,45255
LF:3
LH:3
end_of_record
SF:/usr/include/c++/9/array
DA:94,80
LF:1
LH:1
end_of_record
SF:/qulacs-osaka/src/cppsim/exception.hpp
DA:35,0
DA:49,0
DA:91,0
DA:120,0
DA:148,0
DA:162,0
DA:177,0
DA:191,0
DA:205,0
DA:260,0
LF:10
LH:0
end_of_record
SF:/qulacs-osaka/include/Eigen/src/Core/functors/NullaryFunctors.h
DA:19,1216
DA:23,240736
DA:34,98000
LF:3
LH:3
end_of_record
SF:/qulacs-osaka/include/Eigen/src/Core/Visitor.h
DA:49,1380
DA:50,49680
DA:51,48300
DA:151,48300
LF:4
LH:4
end_of_record
SF:/qulacs-osaka/include/Eigen/src/Jacobi/Jacobi.h
FN:215,_ZN5Eigen14JacobiRotationIdE10makeGivensERKdS3_PdNS_8internal10false_typeE
FNDA:58206,_ZN5Eigen14JacobiRotationIdE10makeGivensERKdS3_PdNS_8internal10false_typeE
FN:292,_ZN5Eigen10MatrixBaseINS_3MapINS_6MatrixISt7complexIdELin1ELin1ELi0ELin1ELin1EEELi0ENS_6StrideILi0ELi0EEEEEE15applyOnTheRightIdEEvllRKNS_14JacobiRotationIT_EE
FNDA:58206,_ZN5Eigen10MatrixBaseINS_3MapINS_6MatrixISt7complexIdELin1ELin1ELi0ELin1ELin1EEELi0ENS_6StrideILi0ELi0EEEEEE15applyOnTheRightIdEEvllRKNS_14JacobiRotationIT_EE
FN:305,_ZN5Eigen8internal36apply_rotation_in_the_plane_selectorISt7complexIdEdLin1ELi0ELb0EE3runEPS3_lS5_lldd
FNDA:58206,_ZN5Eigen8internal36apply_rotation_in_the_plane_selectorISt7complexIdEdLin1ELi0ELb0EE3runEPS3_lS5_lldd
FN:432,_ZN5Eigen8internal27apply_rotation_in_the_planeINS_5BlockINS_3MapINS_6MatrixISt7complexIdELin1ELin1ELi0ELin1ELin1EEELi0ENS_6StrideILi0ELi0EEEEELin1ELi1ELb1EEESB_dEEvRNS_9DenseBaseIT_EERNSC_IT0_EERKNS_14JacobiRotationIT1_EE
FNDA:58206,_ZN5Eigen8internal27apply_rotation_in_the_planeINS_5BlockINS_3MapINS_6MatrixISt7complexIdELin1ELin1ELi0ELin1ELin1EEELi0ENS_6StrideILi0ELi0EEEEELin1ELi1ELb1EEESB_dEEvRNS_9DenseBaseIT_EERNSC_IT0_EERKNS_14JacobiRotationIT1_EE
FNF:4
FNH:4
DA:40,58206
DA:43,58206
DA:59,58206
DA:150,58206
DA:215,58206
DA:219,58206
DA:221,0
DA:222,0
DA:223,0
DA:225,58206
DA:227,0
DA:228,0
DA:229,0
DA:231,58206
DA:233,36016
DA:234,36016
DA:235,36016
DA:236,14637
DA:237,36016
DA:238,36016
DA:239,36016
DA:243,22190
DA:244,22190
DA:245,22190
DA:246,44
DA:247,22190
DA:248,22190
DA:249,22190
DA:252,58206
DA:292,58206
DA:296,58206
DA:297,58206
DA:305,58206
DA:307,4132630
DA:309,4074420
DA:310,4074420
DA:311,4074420
DA:312,4074420
DA:313,4074420
DA:314,4074420
DA:316,58206
DA:432,58206
DA:443,58206
DA:444,58206
DA:446,58206
DA:447,58206
DA:448,58206
DA:455,58206
LF:48
LH:42
end_of_record
SF:/usr/include/c++/9/ostream
DA:113,0
DA:196,0
DA:206,0
DA:221,0
DA:570,0
LF:5
LH:0
end_of_record
SF:/qulacs-osaka/include/Eigen/src/Core/CwiseBinaryOp.h
DA:105,528
DA:177,528
LF:2
LH:2
end_of_record
SF:/qulacs-osaka/src/cppsim/state.hpp
FN:66,_ZNK16QuantumStateBase15is_state_vectorEv
FNDA:0,_ZNK16QuantumStateBase15is_state_vectorEv
FN:253,_ZN16QuantumStateBase19get_classical_valueEj
FNDA:0,_ZN16QuantumStateBase19get_classical_valueEj
FN:267,_ZN16QuantumStateBase19set_classical_valueEjj
FNDA:0,_ZN16QuantumStateBase19set_classical_valueEjj
FN:279,_ZNK16QuantumStateBase22get_classical_registerEv
FNDA:0,_ZNK16QuantumStateBase22get_classical_registerEv
FN:299,_ZNK16QuantumStateBase9to_stringB5cxx11Ev
FNDA:0,_ZNK16QuantumStateBase9to_stringB5cxx11Ev
FN:333,_ZNK16QuantumStateBase15get_cuda_streamEv
FNDA:0,_ZNK16QuantumStateBase15get_cuda_streamEv
FN:347,_ZN15QuantumStateCpuC2Ej
FNDA:0,_ZN15QuantumStateCpuC2Ej
FN:356,_ZN15QuantumStateCpuD2Ev
FNDA:100,_ZN15QuantumStateCpuD2Ev
FN:356,_ZN15QuantumStateCpuD0Ev
FNDA:0,_ZN15QuantumStateCpuD0Ev
FN:360,_ZN15QuantumStateCpu14set_zero_stateEv
FNDA:20,_ZN15QuantumStateCpu14set_zero_stateEv
FN:367,_ZN15QuantumStateCpu19set_zero_norm_stateEv
FNDA:20,_ZN15QuantumStateCpu19set_zero_norm_stateEv
FN:377,_ZN15QuantumStateCpu23set_computational_basisEy
FNDA:0,_ZN15QuantumStateCpu23set_computational_basisEy
FN:392,_ZN15QuantumStateCpu21set_Haar_random_stateEv
FNDA:0,_ZN15QuantumStateCpu21set_Haar_random_stateEv
FN:400,_ZN15QuantumStateCpu21set_Haar_random_stateEj
FNDA:0,_ZN15QuantumStateCpu21set_Haar_random_stateEj
FN:411,_ZNK15QuantumStateCpu20get_zero_probabilityEj
FNDA:0,_ZNK15QuantumStateCpu20get_zero_probabilityEj
FN:427,_ZNK15QuantumStateCpu24get_marginal_probabilityESt6vectorIjSaIjEE
FNDA:0,_ZNK15QuantumStateCpu24get_marginal_probabilityESt6vectorIjSaIjEE
FN:454,_ZNK15QuantumStateCpu11get_entropyEv
FNDA:0,_ZNK15QuantumStateCpu11get_entropyEv
FN:464,_ZNK15QuantumStateCpu16get_squared_normEv
FNDA:1400,_ZNK15QuantumStateCpu16get_squared_normEv
FN:474,_ZNK15QuantumStateCpu30get_squared_norm_single_threadEv
FNDA:0,_ZNK15QuantumStateCpu30get_squared_norm_single_threadEv
FN:483,_ZN15QuantumStateCpu9normalizeEd
FNDA:20,_ZN15QuantumStateCpu9normalizeEd
FN:492,_ZN15QuantumStateCpu23normalize_single_threadEd
FNDA:0,_ZN15QuantumStateCpu23normalize_single_threadEd
FN:501,_ZNK15QuantumStateCpu15allocate_bufferEv
FNDA:0,_ZNK15QuantumStateCpu15allocate_bufferEv
FN:510,_ZNK15QuantumStateCpu4copyEv
FNDA:0,_ZNK15QuantumStateCpu4copyEv
FN:521,_ZN15QuantumStateCpu4loadEPK16QuantumStateBase
FNDA:12440,_ZN15QuantumStateCpu4loadEPK16QuantumStateBase
FN:541,_ZN15QuantumStateCpu4loadERKSt6vectorISt7complexIdESaIS2_EE
FNDA:0,_ZN15QuantumStateCpu4loadERKSt6vectorISt7complexIdESaIS2_EE
FN:554,_ZN15QuantumStateCpu4loadEPKSt7complexIdE
FNDA:0,_ZN15QuantumStateCpu4loadEPKSt7complexIdE
FN:562,_ZNK15QuantumStateCpu15get_device_nameB5cxx11Ev
FNDA:22120,_ZNK15QuantumStateCpu15get_device_nameB5cxx11Ev
FN:567,_ZNK15QuantumStateCpu4dataEv
FNDA:0,_ZNK15QuantumStateCpu4dataEv
FN:576,_ZNK15QuantumStateCpu8data_cppEv
FNDA:24880,_ZNK15QuantumStateCpu8data_cppEv
FN:582,_ZNK15QuantumStateCpu6data_cEv
FNDA:33240,_ZNK15QuantumStateCpu6data_cEv
FN:586,_ZNK15QuantumStateCpu16duplicate_data_cEv
FNDA:0,_ZNK15QuantumStateCpu16duplicate_data_cEv
FN:592,_ZNK15QuantumStateCpu18duplicate_data_cppEv
FNDA:0,_ZNK15QuantumStateCpu18duplicate_data_cppEv
FN:601,_ZN15QuantumStateCpu9add_stateEPK16QuantumStateBase
FNDA:9680,_ZN15QuantumStateCpu9add_stateEPK16QuantumStateBase
FN:612,_ZN15QuantumStateCpu19add_state_with_coefESt7complexIdEPK16QuantumStateBase
FNDA:0,_ZN15QuantumStateCpu19add_state_with_coefESt7complexIdEPK16QuantumStateBase
FN:625,_ZN15QuantumStateCpu33add_state_with_coef_single_threadESt7complexIdEPK16QuantumStateBase
FNDA:0,_ZN15QuantumStateCpu33add_state_with_coef_single_threadESt7complexIdEPK16QuantumStateBase
FN:639,_ZN15QuantumStateCpu13multiply_coefESt7complexIdE
FNDA:12440,_ZN15QuantumStateCpu13multiply_coefESt7complexIdE
FN:643,_ZN15QuantumStateCpu29multiply_elementwise_functionERKSt8functionIFSt7complexIdEyEE
FNDA:0,_ZN15QuantumStateCpu29multiply_elementwise_functionERKSt8functionIFSt7complexIdEyEE
FN:657,_ZN15QuantumStateCpu8samplingEj
FNDA:0,_ZN15QuantumStateCpu8samplingEj
FN:677,_ZN15QuantumStateCpu8samplingEjj
FNDA:0,_ZN15QuantumStateCpu8samplingEjj
FNF:39
FNH:11
DA:38,0
DA:39,0
DA:41,0
DA:42,0
DA:43,0
DA:44,0
DA:45,0
DA:61,100
DA:66,0
DA:253,0
DA:254,0
DA:255,0
DA:257,0
DA:267,0
DA:268,0
DA:269,0
DA:271,0
DA:272,0
DA:279,0
DA:280,0
DA:299,0
DA:300,0
DA:301,0
DA:302,0
DA:303,0
DA:305,0
DA:306,0
DA:307,0
DA:308,0
DA:333,0
DA:347,0
DA:348,0
DA:349,0
DA:350,0
DA:351,0
DA:352,0
DA:356,0
DA:356,200
DA:360,20
DA:361,20
DA:362,20
DA:367,20
DA:368,20
DA:369,20
DA:370,20
DA:377,0
DA:378,0
DA:382,0
DA:384,0
DA:385,0
DA:386,0
DA:387,0
DA:392,0
DA:393,0
DA:394,0
DA:395,0
DA:400,0
DA:401,0
DA:402,0
DA:411,0
DA:413,0
DA:416,0
DA:418,0
DA:427,0
DA:429,0
DA:433,0
DA:438,0
DA:439,0
DA:440,0
DA:441,0
DA:442,0
DA:445,0
DA:446,0
DA:454,0
DA:455,0
DA:464,1400
DA:465,1400
DA:474,0
DA:475,0
DA:483,20
DA:484,20
DA:485,20
DA:492,0
DA:493,0
DA:494,0
DA:501,0
DA:502,0
DA:503,0
DA:510,0
DA:511,0
DA:512,0
DA:513,0
DA:514,0
DA:515,0
DA:516,0
DA:521,12440
DA:522,12440
DA:525,0
DA:528,12440
DA:529,24880
DA:530,0
DA:531,0
DA:532,0
DA:534,12440
DA:535,12440
DA:537,12440
DA:541,0
DA:542,0
DA:545,0
DA:548,0
DA:549,0
DA:554,0
DA:555,0
DA:556,0
DA:562,22120
DA:567,0
DA:568,0
DA:576,24880
DA:582,33240
DA:583,100
DA:586,0
DA:587,0
DA:588,0
DA:589,0
DA:592,0
DA:593,0
DA:594,0
DA:595,0
DA:601,9680
DA:602,19360
DA:604,0
DA:606,9680
DA:607,9680
DA:612,0
DA:614,0
DA:617,0
DA:619,0
DA:625,0
DA:627,0
DA:630,0
DA:632,0
DA:633,0
DA:639,12440
DA:640,12440
DA:641,12440
DA:643,0
DA:645,0
DA:646,0
DA:647,0
DA:649,0
DA:657,0
DA:660,0
DA:661,0
DA:662,0
DA:663,0
DA:664,0
DA:665,0
DA:668,0
DA:672,0
DA:673,0
DA:675,0
DA:677,0
DA:679,0
DA:680,0
LF:164
LH:32
end_of_record
TN:
SF:/usr/include/c++/9/bits/predefined_ops.h
DA:43,20009
DA:65,0
DA:90,7537
LF:3
LH:2
end_of_record
SF:/qulacs-osaka/src/cppsim/qubit_info.hpp
FN:170,_ZNK15TargetQubitInfo19get_merged_propertyEj
FNDA:49,_ZNK15TargetQubitInfo19get_merged_propertyEj
FNF:1
FNH:1
DA:35,4443
DA:44,893
DA:96,67882
DA:116,4443
DA:170,49
DA:171,523
DA:181,3589
LF:7
LH:7
end_of_record
SF:/qulacs-osaka/include/Eigen/src/Core/products/GeneralMatrixMatrix.h
FN:59,_ZN5Eigen8internal29general_matrix_matrix_productIlSt7complexIdELi0ELb0ES3_Li0ELb0ELi0EE3runElllPKS3_lS6_lPS3_lS3_RNS0_15level3_blockingIS3_S3_EEPNS0_16GemmParallelInfoIlEE
FNDA:0,_ZN5Eigen8internal29general_matrix_matrix_productIlSt7complexIdELi0ELb0ES3_Li0ELb0ELi0EE3runElllPKS3_lS6_lPS3_lS3_RNS0_15level3_blockingIS3_S3_EEPNS0_16GemmParallelInfoIlEE
FN:215,_ZNK5Eigen8internal12gemm_functorISt7complexIdElNS0_29general_matrix_matrix_productIlS3_Li1ELb0ES3_Li1ELb0ELi1EEENS_6MatrixIS3_Lin1ELin1ELi1ELin1ELin1EEES7_S7_NS0_19gemm_blocking_spaceILi1ES3_S3_Lin1ELin1ELin1ELi1ELb0EEEE19initParallelSessionEl
FNDA:0,_ZNK5Eigen8internal12gemm_functorISt7complexIdElNS0_29general_matrix_matrix_productIlS3_Li1ELb0ES3_Li1ELb0ELi1EEENS_6MatrixIS3_Lin1ELin1ELi1ELin1ELin1EEES7_S7_NS0_19gemm_blocking_spaceILi1ES3_S3_Lin1ELin1ELin1ELi1ELb0EEEE19initParallelSessionEl
FN:221,_ZNK5Eigen8internal12gemm_functorISt7complexIdElNS0_29general_matrix_matrix_productIlS3_Li1ELb0ES3_Li1ELb0ELi1EEENS_6MatrixIS3_Lin1ELin1ELi1ELin1ELin1EEES7_S7_NS0_19gemm_blocking_spaceILi1ES3_S3_Lin1ELin1ELin1ELi1ELb0EEEEclEllllPNS0_16GemmParallelInfoIlEE
FNDA:0,_ZNK5Eigen8internal12gemm_functorISt7complexIdElNS0_29general_matrix_matrix_productIlS3_Li1ELb0ES3_Li1ELb0ELi1EEENS_6MatrixIS3_Lin1ELin1ELi1ELin1ELin1EEES7_S7_NS0_19gemm_blocking_spaceILi1ES3_S3_Lin1ELin1ELin1ELi1ELb0EEEEclEllllPNS0_16GemmParallelInfoIlEE
FN:343,_ZN5Eigen8internal19gemm_blocking_spaceILi1ESt7complexIdES3_Lin1ELin1ELin1ELi1ELb0EEC2Ellllb
FNDA:2397,_ZN5Eigen8internal19gemm_blocking_spaceILi1ESt7complexIdES3_Lin1ELin1ELin1ELi1ELb0EEC2Ellllb
FN:394,_ZN5Eigen8internal19gemm_blocking_spaceILi1ESt7complexIdES3_Lin1ELin1ELin1ELi1ELb0EED2Ev
FNDA:2397,_ZN5Eigen8internal19gemm_blocking_spaceILi1ESt7complexIdES3_Lin1ELin1ELin1ELi1ELb0EED2Ev
FN:428,_ZN5Eigen8internal20generic_product_implINS_6MatrixISt7complexIdELin1ELin1ELi1ELin1ELin1EEES5_NS_10DenseShapeES6_Li8EE6evalToIS5_EEvRT_RKS5_SC_
FNDA:3375,_ZN5Eigen8internal20generic_product_implINS_6MatrixISt7complexIdELin1ELin1ELi1ELin1ELin1EEES5_NS_10DenseShapeES6_Li8EE6evalToIS5_EEvRT_RKS5_SC_
FN:458,_ZN5Eigen8internal20generic_product_implINS_6MatrixISt7complexIdELin1ELin1ELi1ELin1ELin1EEES5_NS_10DenseShapeES6_Li8EE13scaleAndAddToIS5_EEvRT_RKS5_SC_RKS4_
FNDA:2397,_ZN5Eigen8internal20generic_product_implINS_6MatrixISt7complexIdELin1ELin1ELi1ELin1ELin1EEES5_NS_10DenseShapeES6_Li8EE13scaleAndAddToIS5_EEvRT_RKS5_SC_RKS4_
FNF:7
FNH:4
DA:43,0
DA:59,0
DA:74,0
DA:75,0
DA:76,0
DA:83,0
DA:86,0
DA:87,0
DA:89,0
DA:92,0
DA:93,0
DA:96,0
DA:98,0
DA:102,0
DA:110,0
DA:111,0
DA:113,0
DA:116,0
DA:119,0
DA:121,0
DA:126,0
DA:127,0
DA:131,0
DA:135,0
DA:137,0
DA:140,0
DA:143,0
DA:148,0
DA:149,0
DA:150,0
DA:159,0
DA:160,0
DA:162,0
DA:163,0
DA:165,0
DA:168,0
DA:170,0
DA:172,0
DA:174,0
DA:180,0
DA:183,0
DA:185,0
DA:190,0
DA:191,0
DA:194,0
DA:199,0
DA:211,2397
DA:212,2397
DA:215,0
DA:217,0
DA:218,0
DA:219,0
DA:221,0
DA:223,0
DA:224,0
DA:226,0
DA:227,0
DA:228,0
DA:229,0
DA:230,0
DA:231,0
DA:262,2397
DA:263,2397
DA:343,2397
DA:345,2397
DA:346,2397
DA:347,2397
DA:349,2397
DA:351,2397
DA:355,0
DA:356,0
DA:359,2397
DA:360,2397
DA:361,2397
DA:365,0
DA:366,0
DA:367,0
DA:370,0
DA:371,0
DA:372,0
DA:373,0
DA:378,0
DA:379,0
DA:394,2397
DA:396,2397
DA:397,2397
DA:398,2397
DA:428,3375
DA:430,3375
DA:434,2397
DA:435,2397
DA:437,3375
DA:458,2397
DA:461,2397
DA:462,0
DA:482,2397
DA:484,2397
LF:97
LH:26
end_of_record
SF:/qulacs-osaka/include/Eigen/src/Core/IO.h
FN:53,_ZN5Eigen8IOFormatC2EiiRKNSt7__cxx1112basic_stringIcSt11char_traitsIcESaIcEEES8_S8_S8_S8_S8_
FNDA:0,_ZN5Eigen8IOFormatC2EiiRKNSt7__cxx1112basic_stringIcSt11char_traitsIcESaIcEEES8_S8_S8_S8_S8_
FN:129,_ZN5Eigen8internal12print_matrixINS_6MatrixISt7complexIdELin1ELi1ELi0ELin1ELi1EEEEERSoS6_RKT_RKNS_8IOFormatE
FNDA:0,_ZN5Eigen8internal12print_matrixINS_6MatrixISt7complexIdELin1ELi1ELi0ELin1ELi1EEEEERSoS6_RKT_RKNS_8IOFormatE
FN:216,_ZN5EigenlsINS_6MatrixISt7complexIdELin1ELi1ELi0ELin1ELi1EEEEERSoS5_RKNS_9DenseBaseIT_EE
FNDA:0,_ZN5EigenlsINS_6MatrixISt7complexIdELin1ELi1ELi0ELin1ELi1EEEEERSoS5_RKNS_9DenseBaseIT_EE
FNF:3
FNH:0
DA:53,0
DA:57,0
DA:58,0
DA:62,0
DA:64,0
DA:65,0
DA:68,0
DA:129,0
DA:131,0
DA:134,0
DA:140,0
DA:143,0
DA:147,0
DA:160,0
DA:164,0
DA:166,0
DA:167,0
DA:170,0
DA:171,0
DA:173,0
DA:174,0
DA:175,0
DA:176,0
DA:180,0
DA:182,0
DA:185,0
DA:186,0
DA:194,0
DA:198,0
DA:216,0
DA:220,0
LF:31
LH:0
end_of_record
SF:/usr/lib/gcc/x86_64-linux-gnu/9/include/xmmintrin.h
DA:54,0
LF:1
LH:0
end_of_record
SF:/usr/include/c++/9/bits/stl_algobase.h
DA:203,93744
DA:204,0
DA:227,19693
DA:228,10512
DA:340,0
DA:342,0
DA:343,0
DA:344,0
DA:384,16134
DA:385,16134
DA:386,11508
DA:387,4626
DA:565,6647
DA:566,3701
DA:586,0
DA:587,0
DA:588,0
DA:713,0
DA:714,0
DA:770,25507
DA:771,35425
DA:772,25507
DA:974,0
DA:976,0
DA:979,0
DA:983,0
DA:1029,3400
LF:27
LH:13
end_of_record
SF:/usr/include/c++/9/bits/exception.h
DA:63,0
LF:1
LH:0
end_of_record
SF:/usr/include/c++/9/bits/stl_vector.h
FN:507,_ZNSt6vectorIjSaIjEEC2EmRKS0_
FNDA:6774,_ZNSt6vectorIjSaIjEEC2EmRKS0_
FN:519,_ZNSt6vectorIjSaIjEEC2EmRKjRKS0_
FNDA:3144,_ZNSt6vectorIjSaIjEEC2EmRKjRKS0_
FN:550,_ZNSt6vectorIjSaIjEEC2ERKS1_
FNDA:6786,_ZNSt6vectorIjSaIjEEC2ERKS1_
FN:550,_ZNSt6vectorIdSaIdEEC2ERKS1_
FNDA:24,_ZNSt6vectorIdSaIdEEC2ERKS1_
FN:550,_ZNSt6vectorIP15QuantumGateBaseSaIS1_EEC2ERKS3_
FNDA:72,_ZNSt6vectorIP15QuantumGateBaseSaIS1_EEC2ERKS3_
FN:954,_ZNSt6vectorIjSaIjEE6resizeEmRKj
FNDA:0,_ZNSt6vectorIjSaIjEE6resizeEmRKj
FN:1184,_ZNSt6vectorIjSaIjEE9push_backERKj
FNDA:0,_ZNSt6vectorIjSaIjEE9push_backERKj
FN:1184,_ZNSt6vectorIdSaIdEE9push_backERKd
FNDA:0,_ZNSt6vectorIdSaIdEE9push_backERKd
FN:1184,_ZNSt6vectorIP15QuantumGateBaseSaIS1_EE9push_backERKS1_
FNDA:0,_ZNSt6vectorIP15QuantumGateBaseSaIS1_EE9push_backERKS1_
FN:1376,_ZNSt6vectorIjSaIjEE6insertIN9__gnu_cxx17__normal_iteratorIPjS1_EEvEES6_NS4_IPKjS1_EET_SA_
FNDA:13548,_ZNSt6vectorIjSaIjEE6insertIN9__gnu_cxx17__normal_iteratorIPjS1_EEvEES6_NS4_IPKjS1_EET_SA_
FN:1753,_ZNKSt6vectorISt4pairIjjESaIS1_EE12_M_check_lenEmPKc
FNDA:9433,_ZNKSt6vectorISt4pairIjjESaIS1_EE12_M_check_lenEmPKc
FN:1753,_ZNKSt6vectorIjSaIjEE12_M_check_lenEmPKc
FNDA:4626,_ZNKSt6vectorIjSaIjEE12_M_check_lenEmPKc
FN:1753,_ZNKSt6vectorIdSaIdEE12_M_check_lenEmPKc
FNDA:0,_ZNKSt6vectorIdSaIdEE12_M_check_lenEmPKc
FN:1753,_ZNKSt6vectorIP15QuantumGateBaseSaIS1_EE12_M_check_lenEmPKc
FNDA:0,_ZNKSt6vectorIP15QuantumGateBaseSaIS1_EE12_M_check_lenEmPKc
FN:1753,_ZNKSt6vectorIySaIyEE12_M_check_lenEmPKc
FNDA:0,_ZNKSt6vectorIySaIyEE12_M_check_lenEmPKc
FN:1753,_ZNKSt6vectorISt4pairIdiESaIS1_EE12_M_check_lenEmPKc
FNDA:0,_ZNKSt6vectorISt4pairIdiESaIS1_EE12_M_check_lenEmPKc
FN:1753,_ZNKSt6vectorI15TargetQubitInfoSaIS0_EE12_M_check_lenEmPKc
FNDA:0,_ZNKSt6vectorI15TargetQubitInfoSaIS0_EE12_M_check_lenEmPKc
FN:1753,_ZNKSt6vectorI16ControlQubitInfoSaIS0_EE12_M_check_lenEmPKc
FNDA:0,_ZNKSt6vectorI16ControlQubitInfoSaIS0_EE12_M_check_lenEmPKc
FNF:18
FNH:8
DA:94,36927
DA:95,20181
DA:350,17203
DA:358,9918
DA:359,6882
DA:360,6774
DA:507,6774
DA:509,6774
DA:519,3144
DA:522,3144
DA:550,72
DA:552,72
DA:554,72
DA:555,72
DA:558,72
DA:550,24
DA:552,24
DA:554,24
DA:555,24
DA:558,24
DA:550,6786
DA:552,6786
DA:554,6786
DA:555,6786
DA:558,6786
DA:677,10275
DA:680,17937
DA:916,93687
DA:954,0
DA:956,0
DA:957,0
DA:958,0
DA:959,0
DA:960,0
DA:997,0
DA:1043,53053
DA:1061,0
DA:1184,0
DA:1186,0
DA:1189,0
DA:1191,0
DA:1195,0
DA:1196,0
DA:1184,0
DA:1186,0
DA:1189,0
DA:1191,0
DA:1195,0
DA:1196,0
DA:1184,0
DA:1186,0
DA:1189,0
DA:1191,0
DA:1195,0
DA:1196,0
DA:1201,30150
DA:1376,13548
DA:1379,13548
DA:1380,13548
DA:1382,13548
DA:1496,0
DA:1508,0
DA:1592,3144
DA:1602,6774
DA:1662,13548
DA:1708,0
DA:1753,9433
DA:1755,9433
DA:1756,0
DA:1758,9433
DA:1759,9433
DA:1753,0
DA:1755,0
DA:1756,0
DA:1758,0
DA:1759,0
DA:1753,0
DA:1755,0
DA:1756,0
DA:1758,0
DA:1759,0
DA:1753,0
DA:1755,0
DA:1756,0
DA:1758,0
DA:1759,0
DA:1753,0
DA:1755,0
DA:1756,0
DA:1758,0
DA:1759,0
DA:1753,0
DA:1755,0
DA:1756,0
DA:1758,0
DA:1759,0
DA:1753,0
DA:1755,0
DA:1756,0
DA:1758,0
DA:1759,0
DA:1753,4626
DA:1755,4626
DA:1756,0
DA:1758,4626
DA:1759,4626
DA:1766,9918
DA:1767,0
DA:1791,0
DA:1795,0
LF:110
LH:46
end_of_record
SF:/qulacs-osaka/include/Eigen/src/Core/Matrix.h
FN:291,_ZN5Eigen6MatrixISt7complexIdELin1ELi1ELi0ELin1ELi1EEC2IyEERKT_
FNDA:0,_ZN5Eigen6MatrixISt7complexIdELin1ELi1ELi0ELin1ELi1EEC2IyEERKT_
FNF:1
FNH:0
DA:178,23811
DA:208,0
DA:225,9171
DA:291,0
DA:294,0
DA:295,0
DA:376,3489
DA:377,3489
DA:378,3489
LF:9
LH:5
end_of_record
SF:/qulacs-osaka/src/cppsim/gate_general.hpp
FN:24,_ZN25QuantumGate_ProbabilisticC2ESt6vectorIdSaIdEES0_IP15QuantumGateBaseSaIS4_EE
FNDA:0,_ZN25QuantumGate_ProbabilisticC2ESt6vectorIdSaIdEES0_IP15QuantumGateBaseSaIS4_EE
FN:40,_ZN25QuantumGate_ProbabilisticD2Ev
FNDA:0,_ZN25QuantumGate_ProbabilisticD2Ev
FN:40,_ZN25QuantumGate_ProbabilisticD0Ev
FNDA:0,_ZN25QuantumGate_ProbabilisticD0Ev
FN:51,_ZN25QuantumGate_Probabilistic20update_quantum_stateEP16QuantumStateBase
FNDA:0,_ZN25QuantumGate_Probabilistic20update_quantum_stateEP16QuantumStateBase
FN:91,_ZNK25QuantumGate_Probabilistic4copyEv
FNDA:0,_ZNK25QuantumGate_Probabilistic4copyEv
FN:104,_ZNK25QuantumGate_Probabilistic10set_matrixERN5Eigen6MatrixISt7complexIdELin1ELin1ELi1ELin1ELin1EEE
FNDA:0,_ZNK25QuantumGate_Probabilistic10set_matrixERN5Eigen6MatrixISt7complexIdELin1ELin1ELi1ELin1ELin1EEE
FN:115,_ZN25QuantumGate_Probabilistic8set_seedEi
FNDA:0,_ZN25QuantumGate_Probabilistic8set_seedEi
FN:117,_ZN25QuantumGate_Probabilistic27get_cumulative_distributionEv
FNDA:0,_ZN25QuantumGate_Probabilistic27get_cumulative_distributionEv
FN:120,_ZN25QuantumGate_Probabilistic13get_gate_listEv
FNDA:0,_ZN25QuantumGate_Probabilistic13get_gate_listEv
FN:123,_ZN25QuantumGate_Probabilistic25optimize_ProbablisticGateEv
FNDA:0,_ZN25QuantumGate_Probabilistic25optimize_ProbablisticGateEv
FN:167,_ZN35QuantumGate_ProbabilisticInstrumentC2ESt6vectorIdSaIdEES0_IP15QuantumGateBaseSaIS4_EEj
FNDA:0,_ZN35QuantumGate_ProbabilisticInstrumentC2ESt6vectorIdSaIdEES0_IP15QuantumGateBaseSaIS4_EEj
FN:185,_ZN35QuantumGate_ProbabilisticInstrumentD2Ev
FNDA:0,_ZN35QuantumGate_ProbabilisticInstrumentD2Ev
FN:185,_ZN35QuantumGate_ProbabilisticInstrumentD0Ev
FNDA:0,_ZN35QuantumGate_ProbabilisticInstrumentD0Ev
FN:196,_ZN35QuantumGate_ProbabilisticInstrument20update_quantum_stateEP16QuantumStateBase
FNDA:0,_ZN35QuantumGate_ProbabilisticInstrument20update_quantum_stateEP16QuantumStateBase
FN:215,_ZNK35QuantumGate_ProbabilisticInstrument4copyEv
FNDA:0,_ZNK35QuantumGate_ProbabilisticInstrument4copyEv
FN:229,_ZNK35QuantumGate_ProbabilisticInstrument10set_matrixERN5Eigen6MatrixISt7complexIdELin1ELin1ELi1ELin1ELin1EEE
FNDA:0,_ZNK35QuantumGate_ProbabilisticInstrument10set_matrixERN5Eigen6MatrixISt7complexIdELin1ELin1ELi1ELin1ELin1EEE
FN:246,_ZN16QuantumGate_CPTPC2ESt6vectorIP15QuantumGateBaseSaIS2_EE
FNDA:44,_ZN16QuantumGate_CPTPC2ESt6vectorIP15QuantumGateBaseSaIS2_EE
FN:252,_ZN16QuantumGate_CPTPD2Ev
FNDA:0,_ZN16QuantumGate_CPTPD2Ev
FN:252,_ZN16QuantumGate_CPTPD0Ev
FNDA:0,_ZN16QuantumGate_CPTPD0Ev
FN:263,_ZN16QuantumGate_CPTP20update_quantum_stateEP16QuantumStateBase
FNDA:0,_ZN16QuantumGate_CPTP20update_quantum_stateEP16QuantumStateBase
FN:315,_ZNK16QuantumGate_CPTP4copyEv
FNDA:0,_ZNK16QuantumGate_CPTP4copyEv
FN:327,_ZNK16QuantumGate_CPTP10set_matrixERN5Eigen6MatrixISt7complexIdELin1ELin1ELi1ELin1ELin1EEE
FNDA:0,_ZNK16QuantumGate_CPTP10set_matrixERN5Eigen6MatrixISt7complexIdELin1ELin1ELi1ELin1ELin1EEE
FN:347,_ZN14QuantumGate_CPC2ESt6vectorIP15QuantumGateBaseSaIS2_EEbbb
FNDA:0,_ZN14QuantumGate_CPC2ESt6vectorIP15QuantumGateBaseSaIS2_EEbbb
FN:358,_ZN14QuantumGate_CPD2Ev
FNDA:0,_ZN14QuantumGate_CPD2Ev
FN:358,_ZN14QuantumGate_CPD0Ev
FNDA:0,_ZN14QuantumGate_CPD0Ev
FN:369,_ZN14QuantumGate_CP20update_quantum_stateEP16QuantumStateBase
FNDA:0,_ZN14QuantumGate_CP20update_quantum_stateEP16QuantumStateBase
FN:438,_ZNK14QuantumGate_CP4copyEv
FNDA:0,_ZNK14QuantumGate_CP4copyEv
FN:451,_ZNK14QuantumGate_CP10set_matrixERN5Eigen6MatrixISt7complexIdELin1ELin1ELi1ELin1ELin1EEE
FNDA:0,_ZNK14QuantumGate_CP10set_matrixERN5Eigen6MatrixISt7complexIdELin1ELin1ELi1ELin1ELin1EEE
FN:469,_ZN22QuantumGate_InstrumentC2ESt6vectorIP15QuantumGateBaseSaIS2_EEj
FNDA:4,_ZN22QuantumGate_InstrumentC2ESt6vectorIP15QuantumGateBaseSaIS2_EEj
FN:477,_ZN22QuantumGate_InstrumentD0Ev
FNDA:0,_ZN22QuantumGate_InstrumentD0Ev
FN:477,_ZN22QuantumGate_InstrumentD2Ev
FNDA:0,_ZN22QuantumGate_InstrumentD2Ev
FN:488,_ZN22QuantumGate_Instrument20update_quantum_stateEP16QuantumStateBase
FNDA:0,_ZN22QuantumGate_Instrument20update_quantum_stateEP16QuantumStateBase
FN:523,_ZNK22QuantumGate_Instrument4copyEv
FNDA:0,_ZNK22QuantumGate_Instrument4copyEv
FN:536,_ZNK22QuantumGate_Instrument10set_matrixERN5Eigen6MatrixISt7complexIdELin1ELin1ELi1ELin1ELin1EEE
FNDA:0,_ZNK22QuantumGate_Instrument10set_matrixERN5Eigen6MatrixISt7complexIdELin1ELin1ELi1ELin1ELin1EEE
FN:556,_ZN20QuantumGate_AdaptiveC2EP15QuantumGateBaseSt8functionIFbRKSt6vectorIjSaIjEEEE
FNDA:4,_ZN20QuantumGate_AdaptiveC2EP15QuantumGateBaseSt8functionIFbRKSt6vectorIjSaIjEEEE
FN:559,_ZN20QuantumGate_AdaptiveC2EP15QuantumGateBaseSt8functionIFbRKSt6vectorIjSaIjEEjEEj
FNDA:2,_ZN20QuantumGate_AdaptiveC2EP15QuantumGateBaseSt8functionIFbRKSt6vectorIjSaIjEEjEEj
FN:567,_ZN20QuantumGate_AdaptiveD2Ev
FNDA:6,_ZN20QuantumGate_AdaptiveD2Ev
FN:567,_ZN20QuantumGate_AdaptiveD0Ev
FNDA:6,_ZN20QuantumGate_AdaptiveD0Ev
FN:574,_ZN20QuantumGate_Adaptive20update_quantum_stateEP16QuantumStateBase
FNDA:12,_ZN20QuantumGate_Adaptive20update_quantum_stateEP16QuantumStateBase
FN:590,_ZNK20QuantumGate_Adaptive4copyEv
FNDA:0,_ZNK20QuantumGate_Adaptive4copyEv
FN:602,_ZNK20QuantumGate_Adaptive10set_matrixERN5Eigen6MatrixISt7complexIdELin1ELin1ELi1ELin1ELin1EEE
FNDA:0,_ZNK20QuantumGate_Adaptive10set_matrixERN5Eigen6MatrixISt7complexIdELin1ELin1ELi1ELin1ELin1EEE
FNF:41
FNH:7
DA:24,0
DA:26,0
DA:27,0
DA:28,0
DA:29,0
DA:30,0
DA:31,0
DA:35,0
DA:36,0
DA:37,0
DA:38,0
DA:40,0
DA:44,0
DA:40,0
DA:41,0
DA:42,0
DA:44,0
DA:51,0
DA:52,0
DA:58,0
DA:60,0
DA:61,0
DA:64,0
DA:65,0
DA:66,0
DA:68,0
DA:69,0
DA:70,0
DA:71,0
DA:72,0
DA:73,0
DA:74,0
DA:75,0
DA:77,0
DA:78,0
DA:79,0
DA:82,0
DA:83,0
DA:85,0
DA:91,0
DA:96,0
DA:104,0
DA:108,0
DA:109,0
DA:115,0
DA:117,0
DA:118,0
DA:120,0
DA:121,0
DA:123,0
DA:124,0
DA:126,0
DA:127,0
DA:131,0
DA:132,0
DA:133,0
DA:135,0
DA:137,0
DA:138,0
DA:139,0
DA:140,0
DA:141,0
DA:142,0
DA:144,0
DA:167,0
DA:170,0
DA:171,0
DA:172,0
DA:173,0
DA:174,0
DA:175,0
DA:176,0
DA:180,0
DA:181,0
DA:182,0
DA:183,0
DA:185,0
DA:189,0
DA:185,0
DA:186,0
DA:187,0
DA:189,0
DA:196,0
DA:202,0
DA:204,0
DA:205,0
DA:207,0
DA:208,0
DA:209,0
DA:215,0
DA:219,0
DA:221,0
DA:229,0
DA:233,0
DA:234,0
DA:246,44
DA:249,44
DA:250,44
DA:251,44
DA:252,0
DA:256,0
DA:252,0
DA:253,0
DA:254,0
DA:256,0
DA:263,0
DA:264,0
DA:268,0
DA:270,0
DA:271,0
DA:272,0
DA:273,0
DA:274,0
DA:275,0
DA:276,0
DA:277,0
DA:280,0
DA:283,0
DA:288,0
DA:290,0
DA:291,0
DA:292,0
DA:294,0
DA:295,0
DA:296,0
DA:297,0
DA:298,0
DA:299,0
DA:301,0
DA:302,0
DA:305,0
DA:306,0
DA:308,0
DA:315,0
DA:319,0
DA:320,0
DA:327,0
DA:331,0
DA:332,0
DA:347,0
DA:350,0
DA:352,0
DA:355,0
DA:356,0
DA:357,0
DA:358,0
DA:362,0
DA:358,0
DA:359,0
DA:360,0
DA:362,0
DA:369,0
DA:370,0
DA:374,0
DA:376,0
DA:382,0
DA:384,0
DA:385,0
DA:386,0
DA:387,0
DA:388,0
DA:392,0
DA:393,0
DA:394,0
DA:395,0
DA:396,0
DA:397,0
DA:398,0
DA:399,0
DA:403,0
DA:406,0
DA:407,0
DA:408,0
DA:411,0
DA:413,0
DA:414,0
DA:415,0
DA:417,0
DA:418,0
DA:419,0
DA:420,0
DA:421,0
DA:422,0
DA:424,0
DA:425,0
DA:428,0
DA:429,0
DA:431,0
DA:438,0
DA:442,0
DA:443,0
DA:444,0
DA:451,0
DA:455,0
DA:456,0
DA:469,4
DA:471,4
DA:474,4
DA:475,4
DA:476,4
DA:477,0
DA:481,0
DA:477,0
DA:478,0
DA:479,0
DA:481,0
DA:488,0
DA:492,0
DA:494,0
DA:496,0
DA:497,0
DA:498,0
DA:499,0
DA:500,0
DA:501,0
DA:502,0
DA:505,0
DA:506,0
DA:509,0
DA:514,0
DA:516,0
DA:517,0
DA:523,0
DA:527,0
DA:529,0
DA:536,0
DA:541,0
DA:542,0
DA:556,4
DA:558,4
DA:559,2
DA:562,4
DA:564,2
DA:565,2
DA:566,2
DA:567,6
DA:567,12
DA:574,12
DA:576,12
DA:577,16
DA:579,12
DA:581,12
DA:582,6
DA:584,12
DA:590,0
DA:591,0
DA:592,0
DA:594,0
DA:602,0
DA:607,0
DA:608,0
LF:251
LH:25
end_of_record
SF:/usr/include/c++/9/bits/stl_heap.h
FN:128,_ZSt11__push_heapIN9__gnu_cxx17__normal_iteratorIPSt4pairIjjESt6vectorIS3_SaIS3_EEEElS3_NS0_5__ops14_Iter_less_valEEvT_T0_SC_T1_RT2_
FNDA:0,_ZSt11__push_heapIN9__gnu_cxx17__normal_iteratorIPSt4pairIjjESt6vectorIS3_SaIS3_EEEElS3_NS0_5__ops14_Iter_less_valEEvT_T0_SC_T1_RT2_
FN:128,_ZSt11__push_heapISt16reverse_iteratorIN9__gnu_cxx17__normal_iteratorIPSt4pairIdiESt6vectorIS4_SaIS4_EEEEElS4_NS1_5__ops14_Iter_less_valEEvT_T0_SE_T1_RT2_
FNDA:0,_ZSt11__push_heapISt16reverse_iteratorIN9__gnu_cxx17__normal_iteratorIPSt4pairIdiESt6vectorIS4_SaIS4_EEEEElS4_NS1_5__ops14_Iter_less_valEEvT_T0_SE_T1_RT2_
FN:214,_ZSt13__adjust_heapIN9__gnu_cxx17__normal_iteratorIPSt4pairIjjESt6vectorIS3_SaIS3_EEEElS3_NS0_5__ops15_Iter_less_iterEEvT_T0_SC_T1_T2_
FNDA:0,_ZSt13__adjust_heapIN9__gnu_cxx17__normal_iteratorIPSt4pairIjjESt6vectorIS3_SaIS3_EEEElS3_NS0_5__ops15_Iter_less_iterEEvT_T0_SC_T1_T2_
FN:214,_ZSt13__adjust_heapISt16reverse_iteratorIN9__gnu_cxx17__normal_iteratorIPSt4pairIdiESt6vectorIS4_SaIS4_EEEEElS4_NS1_5__ops15_Iter_less_iterEEvT_T0_SE_T1_T2_
FNDA:0,_ZSt13__adjust_heapISt16reverse_iteratorIN9__gnu_cxx17__normal_iteratorIPSt4pairIdiESt6vectorIS4_SaIS4_EEEEElS4_NS1_5__ops15_Iter_less_iterEEvT_T0_SE_T1_T2_
FN:326,_ZSt11__make_heapIN9__gnu_cxx17__normal_iteratorIPSt4pairIjjESt6vectorIS3_SaIS3_EEEENS0_5__ops15_Iter_less_iterEEvT_SB_RT0_
FNDA:0,_ZSt11__make_heapIN9__gnu_cxx17__normal_iteratorIPSt4pairIjjESt6vectorIS3_SaIS3_EEEENS0_5__ops15_Iter_less_iterEEvT_SB_RT0_
FN:326,_ZSt11__make_heapISt16reverse_iteratorIN9__gnu_cxx17__normal_iteratorIPSt4pairIdiESt6vectorIS4_SaIS4_EEEEENS1_5__ops15_Iter_less_iterEEvT_SD_RT0_
FNDA:0,_ZSt11__make_heapISt16reverse_iteratorIN9__gnu_cxx17__normal_iteratorIPSt4pairIdiESt6vectorIS4_SaIS4_EEEEENS1_5__ops15_Iter_less_iterEEvT_SD_RT0_
FNF:6
FNH:0
DA:128,0
DA:132,0
DA:133,0
DA:137,0
DA:140,0
DA:128,0
DA:132,0
DA:133,0
DA:137,0
DA:140,0
DA:214,0
DA:219,0
DA:221,0
DA:222,0
DA:228,0
DA:230,0
DA:231,0
DA:237,0
DA:239,0
DA:214,0
DA:219,0
DA:221,0
DA:222,0
DA:228,0
DA:230,0
DA:231,0
DA:237,0
DA:239,0
DA:326,0
DA:334,0
DA:338,0
DA:339,0
DA:341,0
DA:342,0
DA:344,0
DA:345,0
DA:346,0
DA:326,0
DA:334,0
DA:338,0
DA:339,0
DA:341,0
DA:342,0
DA:344,0
DA:345,0
DA:346,0
LF:46
LH:0
end_of_record
SF:/usr/include/c++/9/bits/stl_iterator.h
DA:137,0
DA:143,0
DA:144,0
DA:179,0
DA:207,0
DA:231,0
DA:232,0
DA:255,0
DA:418,0
DA:807,87260
DA:811,13548
DA:815,6774
DA:829,0
DA:830,84046
DA:841,0
DA:842,7537
DA:856,0
DA:860,6090
DA:868,0
DA:910,13548
DA:925,0
DA:992,34407
LF:22
LH:8
end_of_record
SF:/usr/include/c++/9/new
DA:57,0
LF:1
LH:0
end_of_record
SF:/usr/include/c++/9/complex
DA:333,0
DA:393,2397
DA:684,0
DA:707,480
DA:1234,1944780
DA:1252,0
DA:1256,480
DA:1282,0
DA:1331,0
DA:1347,0
DA:1348,2397
LF:11
LH:5
end_of_record
SF:/usr/include/c++/9/bits/random.h
FN:1606,_ZNSt13random_deviceC2Ev
FNDA:0,_ZNSt13random_deviceC2Ev
FNF:1
FNH:0
DA:181,0
DA:519,0
DA:1606,0
DA:1612,0
DA:1643,0
DA:1751,0
DA:1752,0
DA:1862,0
DA:1981,0
DA:1982,0
DA:2017,0
DA:2019,0
LF:12
LH:0
end_of_record
SF:/qulacs-osaka/include/Eigen/src/Core/util/BlasUtil.h
DA:171,0
DA:218,0
LF:2
LH:0
end_of_record
SF:/qulacs-osaka/src/cppsim/utility.hpp
FN:58,_ZN6RandomC2Ev
FNDA:0,_ZN6RandomC2Ev
FNF:1
FNH:0
DA:58,0
DA:59,0
DA:60,0
DA:61,0
DA:74,0
DA:95,0
LF:6
LH:0
end_of_record
SF:/qulacs-osaka/include/Eigen/src/Core/util/XprHelper.h
DA:120,136709
LF:1
LH:1
end_of_record
SF:/qulacs-osaka/src/cppsim/gate.hpp
FN:92,_ZN15QuantumGateBaseC2Ev
FNDA:54,_ZN15QuantumGateBaseC2Ev
FN:95,_ZN15QuantumGateBaseC2ERKS_
FNDA:0,_ZN15QuantumGateBaseC2ERKS_
FN:109,_ZN15QuantumGateBaseD0Ev
FNDA:0,_ZN15QuantumGateBaseD0Ev
FN:109,_ZN15QuantumGateBaseD2Ev
FNDA:6,_ZN15QuantumGateBaseD2Ev
FN:122,_ZNK15QuantumGateBase21get_target_index_listEv
FNDA:6774,_ZNK15QuantumGateBase21get_target_index_listEv
FN:270,_ZN15QuantumGateBase8set_seedEi
FNDA:0,_ZN15QuantumGateBase8set_seedEi
FN:271,_ZN15QuantumGateBase27get_cumulative_distributionEv
FNDA:0,_ZN15QuantumGateBase27get_cumulative_distributionEv
FN:272,_ZN15QuantumGateBase13get_gate_listEv
FNDA:0,_ZN15QuantumGateBase13get_gate_listEv
FN:273,_ZN15QuantumGateBase25optimize_ProbablisticGateEv
FNDA:0,_ZN15QuantumGateBase25optimize_ProbablisticGateEv
FNF:9
FNH:3
DA:92,54
DA:93,54
DA:94,54
DA:95,0
DA:96,0
DA:97,0
DA:98,0
DA:99,0
DA:100,0
DA:101,0
DA:102,0
DA:109,0
DA:109,6
DA:122,6774
DA:123,6774
DA:124,21325
DA:125,14551
DA:126,6774
DA:270,0
DA:271,0
DA:272,0
DA:273,0
LF:22
LH:9
end_of_record
SF:/qulacs-osaka/include/Eigen/src/Core/MapBase.h
DA:37,0
DA:90,46115
DA:92,46115
DA:172,46115
LF:4
LH:3
end_of_record
SF:/usr/lib/gcc/x86_64-linux-gnu/9/include/avxintrin.h
DA:143,0
DA:155,0
DA:314,0
DA:339,0
DA:374,0
DA:741,501600
DA:862,72
DA:868,501672
DA:886,837212
DA:892,837212
DA:1306,0
LF:11
LH:5
end_of_record
SF:/usr/include/c++/9/sstream
DA:832,0
LF:1
LH:0
end_of_record
SF:/qulacs-osaka/include/Eigen/src/Core/CoreEvaluators.h
DA:154,978
DA:155,31333
DA:164,480
DA:172,0
DA:179,2033780
DA:187,501672
DA:195,534410
DA:204,0
DA:275,0
DA:472,9171
DA:530,102
DA:532,0
DA:549,0
DA:563,0
DA:699,12
DA:702,12
DA:719,0
DA:735,72
DA:821,71160
DA:822,71160
DA:824,71160
DA:834,0
DA:840,605604
DA:846,534410
DA:852,605604
DA:867,302802
DA:882,302802
DA:886,534410
LF:28
LH:20
end_of_record
SF:/usr/include/c++/9/bits/alloc_traits.h
DA:470,38885
DA:484,1554
LF:2
LH:2
end_of_record
SF:/qulacs-osaka/include/Eigen/src/Core/util/Meta.h
DA:507,0
LF:1
LH:0
end_of_record
SF:/usr/include/c++/9/bits/stl_iterator_base_funcs.h
DA:104,54
DA:180,0
DA:182,0
LF:3
LH:1
end_of_record
SF:/qulacs-osaka/include/Eigen/src/Core/MathFunctions.h
DA:818,88110
DA:826,0
LF:2
LH:1
end_of_record
SF:/qulacs-osaka/include/Eigen/src/Core/Block.h
DA:329,0
DA:347,50090
DA:353,25045
DA:371,21070
DA:374,21070
DA:375,21070
DA:437,46115
LF:7
LH:6
end_of_record
SF:/qulacs-osaka/src/cppsim/exception.hpp
DA:35,0
DA:49,0
DA:148,0
DA:191,0
DA:205,0
LF:5
LH:0
end_of_record
SF:/qulacs-osaka/include/Eigen/src/Core/functors/NullaryFunctors.h
DA:19,4794
DA:23,501600
DA:34,2033300
LF:3
LH:3
end_of_record
SF:/qulacs-osaka/include/Eigen/src/Core/products/GeneralBlockPanelKernel.h
FN:40,_ZN5Eigen8internal10CacheSizesC2Ev
FNDA:0,_ZN5Eigen8internal10CacheSizesC2Ev
FN:55,_ZN5Eigen8internal20manage_caching_sizesENS_6ActionEPlS2_S2_
FNDA:0,_ZN5Eigen8internal20manage_caching_sizesENS_6ActionEPlS2_S2_
FN:93,_ZN5Eigen8internal37evaluateProductBlockingSizesHeuristicISt7complexIdES3_Li1ElEEvRT2_S5_S5_S4_
FNDA:0,_ZN5Eigen8internal37evaluateProductBlockingSizesHeuristicISt7complexIdES3_Li1ElEEvRT2_S5_S5_S4_
FN:892,_ZN5Eigen8internal11gebp_kernelISt7complexIdES3_lNS0_16blas_data_mapperIS3_lLi0ELi0EEELi2ELi4ELb0ELb0EEclERKS5_PKS3_SA_lllS3_llll
FNDA:0,_ZN5Eigen8internal11gebp_kernelISt7complexIdES3_lNS0_16blas_data_mapperIS3_lLi0ELi0EEELi2ELi4ELb0ELb0EEclERKS5_PKS3_SA_lllS3_llll
FN:1703,_ZN5Eigen8internal13gemm_pack_lhsISt7complexIdElNS0_22const_blas_data_mapperIS3_lLi0EEELi2ELi2ELi0ELb0ELb0EEclEPS3_RKS5_llll
FNDA:0,_ZN5Eigen8internal13gemm_pack_lhsISt7complexIdElNS0_22const_blas_data_mapperIS3_lLi0EEELi2ELi2ELi0ELb0ELb0EEclEPS3_RKS5_llll
FN:1907,_ZN5Eigen8internal13gemm_pack_rhsISt7complexIdElNS0_22const_blas_data_mapperIS3_lLi0EEELi4ELi0ELb0ELb0EEclEPS3_RKS5_llll
FNDA:0,_ZN5Eigen8internal13gemm_pack_rhsISt7complexIdElNS0_22const_blas_data_mapperIS3_lLi0EEELi4ELi0ELb0ELb0EEclEPS3_RKS5_llll
FNF:6
FNH:0
DA:25,0
DA:40,0
DA:42,0
DA:43,0
DA:44,0
DA:45,0
DA:46,0
DA:55,0
DA:57,0
DA:59,0
DA:63,0
DA:64,0
DA:65,0
DA:67,0
DA:70,0
DA:71,0
DA:72,0
DA:78,0
DA:93,0
DA:103,0
DA:105,0
DA:118,0
DA:119,0
DA:120,0
DA:124,0
DA:125,0
DA:126,0
DA:129,0
DA:132,0
DA:135,0
DA:137,0
DA:138,0
DA:139,0
DA:140,0
DA:143,0
DA:160,0
DA:161,0
DA:177,0
DA:179,0
DA:184,0
DA:185,0
DA:209,0
DA:210,0
DA:211,0
DA:214,0
DA:219,0
DA:222,0
DA:223,0
DA:229,0
DA:230,0
DA:232,0
DA:237,0
DA:239,0
DA:240,0
DA:246,0
DA:250,0
DA:251,0
DA:253,0
DA:254,0
DA:255,0
DA:256,0
DA:257,0
DA:300,2397
DA:302,2397
DA:326,0
DA:892,0
DA:900,0
DA:901,0
DA:903,0
DA:906,0
DA:908,0
DA:1361,0
DA:1364,0
DA:1369,0
DA:1380,0
DA:1381,0
DA:1382,0
DA:1390,0
DA:1394,0
DA:1396,0
DA:1412,0
DA:1413,0
DA:1414,0
DA:1415,0
DA:1416,0
DA:1417,0
DA:1418,0
DA:1419,0
DA:1420,0
DA:1421,0
DA:1423,0
DA:1424,0
DA:1426,0
DA:1429,0
DA:1432,0
DA:1433,0
DA:1434,0
DA:1457,0
DA:1460,0
DA:1470,0
DA:1473,0
DA:1475,0
DA:1488,0
DA:1489,0
DA:1490,0
DA:1491,0
DA:1492,0
DA:1493,0
DA:1494,0
DA:1495,0
DA:1497,0
DA:1498,0
DA:1500,0
DA:1504,0
DA:1507,0
DA:1508,0
DA:1509,0
DA:1521,0
DA:1524,0
DA:1527,0
DA:1529,0
DA:1531,0
DA:1627,0
DA:1629,0
DA:1634,0
DA:1636,0
DA:1637,0
DA:1641,0
DA:1642,0
DA:1646,0
DA:1649,0
DA:1650,0
DA:1651,0
DA:1656,0
DA:1659,0
DA:1661,0
DA:1664,0
DA:1665,0
DA:1666,0
DA:1668,0
DA:1669,0
DA:1676,0
DA:1703,0
DA:1709,0
DA:1719,0
DA:1766,0
DA:1770,0
DA:1774,0
DA:1775,0
DA:1794,0
DA:1797,0
DA:1798,0
DA:1801,0
DA:1907,0
DA:1910,0
DA:1916,0
DA:1967,0
DA:1972,0
DA:1973,0
DA:1974,0
DA:1993,0
DA:1995,0
DA:1996,0
DA:1997,0
DA:1998,0
DA:1999,0
DA:2007,0
DA:2011,0
DA:2013,0
DA:2014,0
DA:2018,0
LF:171
LH:2
end_of_record
SF:/qulacs-osaka/src/cppsim/gate_matrix.hpp
FN:73,_ZN17QuantumGateMatrixD0Ev
FNDA:0,_ZN17QuantumGateMatrixD0Ev
FN:73,_ZN17QuantumGateMatrixD2Ev
FNDA:0,_ZN17QuantumGateMatrixD2Ev
FN:97,_ZN17QuantumGateMatrix17set_gate_propertyEj
FNDA:3387,_ZN17QuantumGateMatrix17set_gate_propertyEj
FN:113,_ZNK17QuantumGateMatrix4copyEv
FNDA:0,_ZNK17QuantumGateMatrix4copyEv
FN:122,_ZNK17QuantumGateMatrix10set_matrixERN5Eigen6MatrixISt7complexIdELin1ELin1ELi1ELin1ELin1EEE
FNDA:0,_ZNK17QuantumGateMatrix10set_matrixERN5Eigen6MatrixISt7complexIdELin1ELin1ELi1ELin1ELin1EEE
FNF:5
FNH:1
DA:73,0
DA:73,0
DA:97,3387
DA:98,3387
DA:99,3387
DA:113,0
DA:114,0
DA:122,0
DA:123,0
DA:124,0
LF:10
LH:3
end_of_record
SF:/qulacs-osaka/include/Eigen/src/Core/CwiseBinaryOp.h
DA:105,12
LF:1
LH:1
end_of_record
SF:/usr/include/c++/9/ostream
DA:113,0
DA:196,0
DA:206,0
DA:570,0
LF:4
LH:0
end_of_record
SF:/qulacs-osaka/include/Eigen/src/Core/arch/AVX/Complex.h
DA:256,0
LF:1
LH:0
end_of_record
SF:/qulacs-osaka/src/cppsim/state.hpp
FN:66,_ZNK16QuantumStateBase15is_state_vectorEv
FNDA:0,_ZNK16QuantumStateBase15is_state_vectorEv
FN:253,_ZN16QuantumStateBase19get_classical_valueEj
FNDA:0,_ZN16QuantumStateBase19get_classical_valueEj
FN:267,_ZN16QuantumStateBase19set_classical_valueEjj
FNDA:0,_ZN16QuantumStateBase19set_classical_valueEjj
FN:279,_ZNK16QuantumStateBase22get_classical_registerEv
FNDA:12,_ZNK16QuantumStateBase22get_classical_registerEv
FN:299,_ZNK16QuantumStateBase9to_stringB5cxx11Ev
FNDA:0,_ZNK16QuantumStateBase9to_stringB5cxx11Ev
FN:333,_ZNK16QuantumStateBase15get_cuda_streamEv
FNDA:0,_ZNK16QuantumStateBase15get_cuda_streamEv
FN:347,_ZN15QuantumStateCpuC2Ej
FNDA:0,_ZN15QuantumStateCpuC2Ej
FN:356,_ZN15QuantumStateCpuD2Ev
FNDA:0,_ZN15QuantumStateCpuD2Ev
FN:356,_ZN15QuantumStateCpuD0Ev
FNDA:0,_ZN15QuantumStateCpuD0Ev
FN:360,_ZN15QuantumStateCpu14set_zero_stateEv
FNDA:0,_ZN15QuantumStateCpu14set_zero_stateEv
FN:367,_ZN15QuantumStateCpu19set_zero_norm_stateEv
FNDA:0,_ZN15QuantumStateCpu19set_zero_norm_stateEv
FN:377,_ZN15QuantumStateCpu23set_computational_basisEy
FNDA:0,_ZN15QuantumStateCpu23set_computational_basisEy
FN:392,_ZN15QuantumStateCpu21set_Haar_random_stateEv
FNDA:0,_ZN15QuantumStateCpu21set_Haar_random_stateEv
FN:400,_ZN15QuantumStateCpu21set_Haar_random_stateEj
FNDA:0,_ZN15QuantumStateCpu21set_Haar_random_stateEj
FN:411,_ZNK15QuantumStateCpu20get_zero_probabilityEj
FNDA:0,_ZNK15QuantumStateCpu20get_zero_probabilityEj
FN:427,_ZNK15QuantumStateCpu24get_marginal_probabilityESt6vectorIjSaIjEE
FNDA:0,_ZNK15QuantumStateCpu24get_marginal_probabilityESt6vectorIjSaIjEE
FN:454,_ZNK15QuantumStateCpu11get_entropyEv
FNDA:0,_ZNK15QuantumStateCpu11get_entropyEv
FN:464,_ZNK15QuantumStateCpu16get_squared_normEv
FNDA:0,_ZNK15QuantumStateCpu16get_squared_normEv
FN:474,_ZNK15QuantumStateCpu30get_squared_norm_single_threadEv
FNDA:0,_ZNK15QuantumStateCpu30get_squared_norm_single_threadEv
FN:483,_ZN15QuantumStateCpu9normalizeEd
FNDA:0,_ZN15QuantumStateCpu9normalizeEd
FN:492,_ZN15QuantumStateCpu23normalize_single_threadEd
FNDA:0,_ZN15QuantumStateCpu23normalize_single_threadEd
FN:501,_ZNK15QuantumStateCpu15allocate_bufferEv
FNDA:0,_ZNK15QuantumStateCpu15allocate_bufferEv
FN:510,_ZNK15QuantumStateCpu4copyEv
FNDA:0,_ZNK15QuantumStateCpu4copyEv
FN:521,_ZN15QuantumStateCpu4loadEPK16QuantumStateBase
FNDA:0,_ZN15QuantumStateCpu4loadEPK16QuantumStateBase
FN:541,_ZN15QuantumStateCpu4loadERKSt6vectorISt7complexIdESaIS2_EE
FNDA:0,_ZN15QuantumStateCpu4loadERKSt6vectorISt7complexIdESaIS2_EE
FN:554,_ZN15QuantumStateCpu4loadEPKSt7complexIdE
FNDA:0,_ZN15QuantumStateCpu4loadEPKSt7complexIdE
FN:562,_ZNK15QuantumStateCpu15get_device_nameB5cxx11Ev
FNDA:0,_ZNK15QuantumStateCpu15get_device_nameB5cxx11Ev
FN:567,_ZNK15QuantumStateCpu4dataEv
FNDA:0,_ZNK15QuantumStateCpu4dataEv
FN:576,_ZNK15QuantumStateCpu8data_cppEv
FNDA:0,_ZNK15QuantumStateCpu8data_cppEv
FN:582,_ZNK15QuantumStateCpu6data_cEv
FNDA:0,_ZNK15QuantumStateCpu6data_cEv
FN:586,_ZNK15QuantumStateCpu16duplicate_data_cEv
FNDA:0,_ZNK15QuantumStateCpu16duplicate_data_cEv
FN:592,_ZNK15QuantumStateCpu18duplicate_data_cppEv
FNDA:0,_ZNK15QuantumStateCpu18duplicate_data_cppEv
FN:601,_ZN15QuantumStateCpu9add_stateEPK16QuantumStateBase
FNDA:0,_ZN15QuantumStateCpu9add_stateEPK16QuantumStateBase
FN:612,_ZN15QuantumStateCpu19add_state_with_coefESt7complexIdEPK16QuantumStateBase
FNDA:0,_ZN15QuantumStateCpu19add_state_with_coefESt7complexIdEPK16QuantumStateBase
FN:625,_ZN15QuantumStateCpu33add_state_with_coef_single_threadESt7complexIdEPK16QuantumStateBase
FNDA:0,_ZN15QuantumStateCpu33add_state_with_coef_single_threadESt7complexIdEPK16QuantumStateBase
FN:639,_ZN15QuantumStateCpu13multiply_coefESt7complexIdE
FNDA:0,_ZN15QuantumStateCpu13multiply_coefESt7complexIdE
FN:643,_ZN15QuantumStateCpu29multiply_elementwise_functionERKSt8functionIFSt7complexIdEyEE
FNDA:0,_ZN15QuantumStateCpu29multiply_elementwise_functionERKSt8functionIFSt7complexIdEyEE
FN:657,_ZN15QuantumStateCpu8samplingEj
FNDA:0,_ZN15QuantumStateCpu8samplingEj
FN:677,_ZN15QuantumStateCpu8samplingEjj
FNDA:0,_ZN15QuantumStateCpu8samplingEjj
FNF:39
FNH:1
DA:38,0
DA:39,0
DA:41,0
DA:42,0
DA:43,0
DA:44,0
DA:45,0
DA:61,0
DA:66,0
DA:253,0
DA:254,0
DA:255,0
DA:257,0
DA:267,0
DA:268,0
DA:269,0
DA:271,0
DA:272,0
DA:279,12
DA:280,12
DA:299,0
DA:300,0
DA:301,0
DA:302,0
DA:303,0
DA:305,0
DA:306,0
DA:307,0
DA:308,0
DA:333,0
DA:347,0
DA:348,0
DA:349,0
DA:350,0
DA:351,0
DA:352,0
DA:356,0
DA:356,0
DA:360,0
DA:361,0
DA:362,0
DA:367,0
DA:368,0
DA:369,0
DA:370,0
DA:377,0
DA:378,0
DA:382,0
DA:384,0
DA:385,0
DA:386,0
DA:387,0
DA:392,0
DA:393,0
DA:394,0
DA:395,0
DA:400,0
DA:401,0
DA:402,0
DA:411,0
DA:413,0
DA:416,0
DA:418,0
DA:427,0
DA:429,0
DA:433,0
DA:438,0
DA:439,0
DA:440,0
DA:441,0
DA:442,0
DA:445,0
DA:446,0
DA:454,0
DA:455,0
DA:464,0
DA:465,0
DA:474,0
DA:475,0
DA:483,0
DA:484,0
DA:485,0
DA:492,0
DA:493,0
DA:494,0
DA:501,0
DA:502,0
DA:503,0
DA:510,0
DA:511,0
DA:512,0
DA:513,0
DA:514,0
DA:515,0
DA:516,0
DA:521,0
DA:522,0
DA:525,0
DA:528,0
DA:529,0
DA:530,0
DA:531,0
DA:532,0
DA:534,0
DA:535,0
DA:537,0
DA:541,0
DA:542,0
DA:545,0
DA:548,0
DA:549,0
DA:554,0
DA:555,0
DA:556,0
DA:562,0
DA:567,0
DA:568,0
DA:576,0
DA:582,0
DA:583,0
DA:586,0
DA:587,0
DA:588,0
DA:589,0
DA:592,0
DA:593,0
DA:594,0
DA:595,0
DA:601,0
DA:602,0
DA:604,0
DA:606,0
DA:607,0
DA:612,0
DA:614,0
DA:617,0
DA:619,0
DA:625,0
DA:627,0
DA:630,0
DA:632,0
DA:633,0
DA:639,0
DA:640,0
DA:641,0
DA:643,0
DA:645,0
DA:646,0
DA:647,0
DA:649,0
DA:657,0
DA:660,0
DA:661,0
DA:662,0
DA:663,0
DA:664,0
DA:665,0
DA:668,0
DA:672,0
DA:673,0
DA:675,0
DA:677,0
DA:679,0
DA:680,0
LF:164
LH:2
end_of_record
SF:/qulacs-osaka/src/csim/utility.hpp
DA:12,25045
DA:13,25045
LF:2
LH:2
end_of_record
SF:/qulacs-osaka/include/Eigen/src/Core/Redux.h
FN:190,_ZN5Eigen8internal10redux_implINS0_13scalar_sum_opISt7complexIdES4_EENS0_15redux_evaluatorINS_13CwiseBinaryOpINS0_17scalar_product_opIS4_S4_EEKNS_9TransposeIKNS_5BlockIKNS_6MatrixIS4_Lin1ELin1ELi1ELin1ELin1EEELi1ELin1ELb1EEEEEKNSB_ISE_Lin1ELi1ELb0EEEEEEELi0ELi0EE3runERKSM_RKS5_
FNDA:0,_ZN5Eigen8internal10redux_implINS0_13scalar_sum_opISt7complexIdES4_EENS0_15redux_evaluatorINS_13CwiseBinaryOpINS0_17scalar_product_opIS4_S4_EEKNS_9TransposeIKNS_5BlockIKNS_6MatrixIS4_Lin1ELin1ELi1ELin1ELin1EEELi1ELin1ELb1EEEEEKNSB_ISE_Lin1ELi1ELb0EEEEEEELi0ELi0EE3runERKSM_RKS5_
FN:411,_ZNK5Eigen9DenseBaseINS_13CwiseBinaryOpINS_8internal17scalar_product_opISt7complexIdES5_EEKNS_9TransposeIKNS_5BlockIKNS_6MatrixIS5_Lin1ELin1ELi1ELin1ELin1EEELi1ELin1ELb1EEEEEKNS8_ISB_Lin1ELi1ELb0EEEEEE5reduxINS2_13scalar_sum_opIS5_S5_EEEES5_RKT_
FNDA:0,_ZNK5Eigen9DenseBaseINS_13CwiseBinaryOpINS_8internal17scalar_product_opISt7complexIdES5_EEKNS_9TransposeIKNS_5BlockIKNS_6MatrixIS5_Lin1ELin1ELi1ELin1ELin1EEELi1ELin1ELb1EEEEEKNS8_ISB_Lin1ELi1ELb0EEEEEE5reduxINS2_13scalar_sum_opIS5_S5_EEEES5_RKT_
FN:449,_ZNK5Eigen9DenseBaseINS_13CwiseBinaryOpINS_8internal17scalar_product_opISt7complexIdES5_EEKNS_9TransposeIKNS_5BlockIKNS_6MatrixIS5_Lin1ELin1ELi1ELin1ELin1EEELi1ELin1ELb1EEEEEKNS8_ISB_Lin1ELi1ELb0EEEEEE3sumEv
FNDA:0,_ZNK5Eigen9DenseBaseINS_13CwiseBinaryOpINS_8internal17scalar_product_opISt7complexIdES5_EEKNS_9TransposeIKNS_5BlockIKNS_6MatrixIS5_Lin1ELin1ELi1ELin1ELin1EEELi1ELin1ELb1EEEEEKNS8_ISB_Lin1ELi1ELb0EEEEEE3sumEv
FNF:3
FNH:0
DA:190,0
DA:195,0
DA:200,0
DA:338,0
DA:411,0
DA:418,0
DA:449,0
DA:451,0
DA:452,0
DA:453,0
LF:10
LH:0
end_of_record
SF:/qulacs-osaka/include/Eigen/src/Core/GenericPacketMath.h
FN:151,_ZN5Eigen8internal4paddISt7complexIdEEET_RKS4_S6_
FNDA:0,_ZN5Eigen8internal4paddISt7complexIdEEET_RKS4_S6_
FNF:1
FNH:0
DA:151,0
DA:152,0
LF:2
LH:0
end_of_record
SF:/qulacs-osaka/include/Eigen/src/Core/products/Parallelizer.h
FN:48,_ZN5Eigen12initParallelEv
FNDA:0,_ZN5Eigen12initParallelEv
FN:86,_ZN5Eigen8internal16parallelize_gemmILb1ENS0_12gemm_functorISt7complexIdElNS0_29general_matrix_matrix_productIlS4_Li1ELb0ES4_Li1ELb0ELi1EEENS_6MatrixIS4_Lin1ELin1ELi1ELin1ELin1EEES8_S8_NS0_19gemm_blocking_spaceILi1ES4_S4_Lin1ELin1ELin1ELi1ELb0EEEEElEEvRKT0_T1_SF_SF_b
FNDA:0,_ZN5Eigen8internal16parallelize_gemmILb1ENS0_12gemm_functorISt7complexIdElNS0_29general_matrix_matrix_productIlS4_Li1ELb0ES4_Li1ELb0ELi1EEENS_6MatrixIS4_Lin1ELin1ELi1ELin1ELin1EEES8_S8_NS0_19gemm_blocking_spaceILi1ES4_S4_Lin1ELin1ELin1ELi1ELb0EEEEElEEvRKT0_T1_SF_SF_b
FNF:2
FNH:0
DA:31,0
DA:34,0
DA:48,0
DA:53,0
DA:54,0
DA:76,0
DA:86,0
DA:108,0
DA:109,0
DA:112,0
DA:115,0
DA:118,0
DA:123,0
DA:124,0
DA:126,0
DA:127,0
DA:129,0
DA:132,0
DA:134,0
LF:19
LH:0
end_of_record
SF:/usr/include/c++/9/iostream
LF:0
LH:0
end_of_record
SF:/qulacs-osaka/include/Eigen/src/Core/util/Memory.h
FN:67,_ZN5Eigen8internal19throw_std_bad_allocEv
FNDA:0,_ZN5Eigen8internal19throw_std_bad_allocEv
FN:153,_ZN5Eigen8internal14aligned_mallocEm
FNDA:3489,_ZN5Eigen8internal14aligned_mallocEm
FN:296,_ZN5Eigen8internal11aligned_newISt7complexIdEEEPT_m
FNDA:0,_ZN5Eigen8internal11aligned_newISt7complexIdEEEPT_m
FN:369,_ZN5Eigen8internal28conditional_aligned_new_autoISt7complexIdELb1EEEPT_m
FNDA:3489,_ZN5Eigen8internal28conditional_aligned_new_autoISt7complexIdELb1EEEPT_m
FN:801,_ZN5Eigen8internal28queryCacheSizes_intel_directERiS1_S1_
FNDA:0,_ZN5Eigen8internal28queryCacheSizes_intel_directERiS1_S1_
FN:833,_ZN5Eigen8internal27queryCacheSizes_intel_codesERiS1_S1_
FNDA:0,_ZN5Eigen8internal27queryCacheSizes_intel_codesERiS1_S1_
FN:913,_ZN5Eigen8internal21queryCacheSizes_intelERiS1_S1_i
FNDA:0,_ZN5Eigen8internal21queryCacheSizes_intelERiS1_S1_i
FN:936,_ZN5Eigen8internal15queryCacheSizesERiS1_S1_
FNDA:0,_ZN5Eigen8internal15queryCacheSizesERiS1_S1_
FNF:8
FNH:2
DA:67,0
DA:70,0
DA:88,3489
DA:89,3489
DA:90,3489
DA:91,3489
DA:92,3489
DA:98,16211
DA:153,3489
DA:167,3489
DA:168,0
DA:170,3489
DA:214,3489
DA:270,0
DA:288,3489
DA:289,0
DA:296,0
DA:299,0
DA:369,3489
DA:371,3489
DA:374,3489
DA:387,3489
DA:451,25045
DA:459,25045
DA:460,25045
DA:493,0
DA:494,0
DA:496,0
DA:567,0
DA:574,0
DA:798,0
DA:801,0
DA:804,0
DA:809,0
DA:810,0
DA:811,0
DA:813,0
DA:814,0
DA:815,0
DA:816,0
DA:819,0
DA:821,0
DA:823,0
DA:824,0
DA:825,0
DA:829,0
DA:830,0
DA:831,0
DA:833,0
DA:836,0
DA:837,0
DA:838,0
DA:841,0
DA:843,0
DA:845,0
DA:846,0
DA:847,0
DA:848,0
DA:849,0
DA:850,0
DA:851,0
DA:852,0
DA:853,0
DA:854,0
DA:855,0
DA:856,0
DA:857,0
DA:858,0
DA:859,0
DA:860,0
DA:861,0
DA:862,0
DA:863,0
DA:864,0
DA:865,0
DA:866,0
DA:867,0
DA:868,0
DA:869,0
DA:870,0
DA:871,0
DA:872,0
DA:873,0
DA:874,0
DA:875,0
DA:876,0
DA:877,0
DA:878,0
DA:879,0
DA:880,0
DA:881,0
DA:882,0
DA:883,0
DA:884,0
DA:885,0
DA:886,0
DA:887,0
DA:888,0
DA:889,0
DA:890,0
DA:891,0
DA:892,0
DA:893,0
DA:894,0
DA:895,0
DA:896,0
DA:897,0
DA:898,0
DA:899,0
DA:900,0
DA:901,0
DA:906,0
DA:907,0
DA:908,0
DA:909,0
DA:910,0
DA:911,0
DA:913,0
DA:915,0
DA:916,0
DA:918,0
DA:919,0
DA:925,0
DA:926,0
DA:928,0
DA:929,0
DA:930,0
DA:931,0
DA:936,0
DA:945,0
DA:948,0
DA:953,0
DA:969,0
LF:133
LH:18
end_of_record
SF:/qulacs-osaka/include/Eigen/src/Core/AssignEvaluator.h
FN:322,_ZN5Eigen8internal21dense_assignment_loopINS0_31generic_dense_assignment_kernelINS0_9evaluatorINS_6MatrixISt7complexIdELin1ELin1ELi1ELin1ELin1EEEEENS3_INS_9TransposeIS7_EEEENS0_9assign_opIS6_S6_EELi0EEELi0ELi0EE3runERSE_
FNDA:0,_ZN5Eigen8internal21dense_assignment_loopINS0_31generic_dense_assignment_kernelINS0_9evaluatorINS_6MatrixISt7complexIdELin1ELin1ELi1ELin1ELin1EEEEENS3_INS_9TransposeIS7_EEEENS0_9assign_opIS6_S6_EELi0EEELi0ELi0EE3runERSE_
FN:322,_ZN5Eigen8internal21dense_assignment_loopINS0_31generic_dense_assignment_kernelINS0_9evaluatorINS_5BlockINS_6MatrixISt7complexIdELin1ELin1ELi1ELin1ELin1EEELin1ELin1ELb0EEEEENS3_IS8_EENS0_9assign_opIS7_S7_EELi0EEELi0ELi0EE3runERSE_
FNDA:0,_ZN5Eigen8internal21dense_assignment_loopINS0_31generic_dense_assignment_kernelINS0_9evaluatorINS_5BlockINS_6MatrixISt7complexIdELin1ELin1ELi1ELin1ELin1EEELin1ELin1ELb0EEEEENS3_IS8_EENS0_9assign_opIS7_S7_EELi0EEELi0ELi0EE3runERSE_
FN:322,_ZN5Eigen8internal21dense_assignment_loopINS0_31generic_dense_assignment_kernelINS0_9evaluatorINS_6MatrixISt7complexIdELin1ELin1ELi1ELin1ELin1EEEEENS3_INS_14CwiseNullaryOpINS0_18scalar_identity_opIS6_EES7_EEEENS0_9assign_opIS6_S6_EELi0EEELi0ELi0EE3runERSG_
FNDA:6774,_ZN5Eigen8internal21dense_assignment_loopINS0_31generic_dense_assignment_kernelINS0_9evaluatorINS_6MatrixISt7complexIdELin1ELin1ELi1ELin1ELin1EEEEENS3_INS_14CwiseNullaryOpINS0_18scalar_identity_opIS6_EES7_EEEENS0_9assign_opIS6_S6_EELi0EEELi0ELi0EE3runERSG_
FN:322,_ZN5Eigen8internal21dense_assignment_loopINS0_31generic_dense_assignment_kernelINS0_9evaluatorINS_6MatrixISt7complexIdELin1ELin1ELi1ELin1ELin1EEEEENS3_INS_14CwiseNullaryOpINS0_18scalar_constant_opIS6_EENS4_IS6_Lin1ELin1ELi0ELin1ELin1EEEEEEENS0_9assign_opIS6_S6_EELi0EEELi0ELi0EE3runERSH_
FNDA:0,_ZN5Eigen8internal21dense_assignment_loopINS0_31generic_dense_assignment_kernelINS0_9evaluatorINS_6MatrixISt7complexIdELin1ELin1ELi1ELin1ELin1EEEEENS3_INS_14CwiseNullaryOpINS0_18scalar_constant_opIS6_EENS4_IS6_Lin1ELin1ELi0ELin1ELin1EEEEEEENS0_9assign_opIS6_S6_EELi0EEELi0ELi0EE3runERSH_
FN:322,_ZN5Eigen8internal21dense_assignment_loopINS0_31generic_dense_assignment_kernelINS0_9evaluatorINS_6MatrixISt7complexIdELin1ELin1ELi1ELin1ELin1EEEEENS3_INS_12CwiseUnaryOpINS0_19scalar_conjugate_opIS6_EEKNS_9TransposeIKS7_EEEEEENS0_9assign_opIS6_S6_EELi0EEELi0ELi0EE3runERSK_
FNDA:102,_ZN5Eigen8internal21dense_assignment_loopINS0_31generic_dense_assignment_kernelINS0_9evaluatorINS_6MatrixISt7complexIdELin1ELin1ELi1ELin1ELin1EEEEENS3_INS_12CwiseUnaryOpINS0_19scalar_conjugate_opIS6_EEKNS_9TransposeIKS7_EEEEEENS0_9assign_opIS6_S6_EELi0EEELi0ELi0EE3runERSK_
FN:397,_ZN5Eigen8internal21dense_assignment_loopINS0_31generic_dense_assignment_kernelINS0_9evaluatorINS_6MatrixISt7complexIdELin1ELin1ELi1ELin1ELin1EEEEENS3_INS_14CwiseNullaryOpINS0_18scalar_constant_opIS6_EES7_EEEENS0_9assign_opIS6_S6_EELi0EEELi3ELi0EE3runERSG_
FNDA:2397,_ZN5Eigen8internal21dense_assignment_loopINS0_31generic_dense_assignment_kernelINS0_9evaluatorINS_6MatrixISt7complexIdELin1ELin1ELi1ELin1ELin1EEEEENS3_INS_14CwiseNullaryOpINS0_18scalar_constant_opIS6_EES7_EEEENS0_9assign_opIS6_S6_EELi0EEELi3ELi0EE3runERSG_
FN:397,_ZN5Eigen8internal21dense_assignment_loopINS0_31generic_dense_assignment_kernelINS0_9evaluatorINS_5BlockINS_6MatrixISt7complexIdELin1ELin1ELi1ELin1ELin1EEELi1ELin1ELb1EEEEESA_NS0_14swap_assign_opIS7_EELi0EEELi3ELi0EE3runERSD_
FNDA:25045,_ZN5Eigen8internal21dense_assignment_loopINS0_31generic_dense_assignment_kernelINS0_9evaluatorINS_5BlockINS_6MatrixISt7complexIdELin1ELin1ELi1ELin1ELin1EEELi1ELin1ELb1EEEEESA_NS0_14swap_assign_opIS7_EELi0EEELi3ELi0EE3runERSD_
FN:397,_ZN5Eigen8internal21dense_assignment_loopINS0_31generic_dense_assignment_kernelINS0_9evaluatorINS_6MatrixISt7complexIdELin1ELin1ELi1ELin1ELin1EEEEENS3_INS_13CwiseBinaryOpINS0_13scalar_sum_opIS6_S6_EEKS7_SC_EEEENS0_9assign_opIS6_S6_EELi0EEELi3ELi0EE3runERSH_
FNDA:12,_ZN5Eigen8internal21dense_assignment_loopINS0_31generic_dense_assignment_kernelINS0_9evaluatorINS_6MatrixISt7complexIdELin1ELin1ELi1ELin1ELin1EEEEENS3_INS_13CwiseBinaryOpINS0_13scalar_sum_opIS6_S6_EEKS7_SC_EEEENS0_9assign_opIS6_S6_EELi0EEELi3ELi0EE3runERSH_
FN:397,_ZN5Eigen8internal21dense_assignment_loopINS0_31generic_dense_assignment_kernelINS0_9evaluatorINS_6MatrixISt7complexIdELin1ELin1ELi1ELin1ELin1EEEEENS3_INS_12CwiseUnaryOpINS0_19scalar_conjugate_opIS6_EEKS7_EEEENS0_9assign_opIS6_S6_EELi0EEELi3ELi0EE3runERSH_
FNDA:0,_ZN5Eigen8internal21dense_assignment_loopINS0_31generic_dense_assignment_kernelINS0_9evaluatorINS_6MatrixISt7complexIdELin1ELin1ELi1ELin1ELin1EEEEENS3_INS_12CwiseUnaryOpINS0_19scalar_conjugate_opIS6_EEKS7_EEEENS0_9assign_opIS6_S6_EELi0EEELi3ELi0EE3runERSH_
FN:397,_ZN5Eigen8internal21dense_assignment_loopINS0_31generic_dense_assignment_kernelINS0_9evaluatorINS_6MatrixISt7complexIdELin1ELin1ELi1ELin1ELin1EEEEES8_NS0_9assign_opIS6_S6_EELi0EEELi3ELi0EE3runERSB_
FNDA:0,_ZN5Eigen8internal21dense_assignment_loopINS0_31generic_dense_assignment_kernelINS0_9evaluatorINS_6MatrixISt7complexIdELin1ELin1ELi1ELin1ELin1EEEEES8_NS0_9assign_opIS6_S6_EELi0EEELi3ELi0EE3runERSB_
FN:493,_ZN5Eigen8internal21dense_assignment_loopINS0_31generic_dense_assignment_kernelINS0_9evaluatorINS_5BlockINS_6MatrixISt7complexIdELin1ELin1ELi1ELin1ELin1EEELin1ELi1ELb0EEEEESA_NS0_14swap_assign_opIS7_EELi0EEELi1ELi0EE3runERSD_
FNDA:25045,_ZN5Eigen8internal21dense_assignment_loopINS0_31generic_dense_assignment_kernelINS0_9evaluatorINS_5BlockINS_6MatrixISt7complexIdELin1ELin1ELi1ELin1ELin1EEELin1ELi1ELb0EEEEESA_NS0_14swap_assign_opIS7_EELi0EEELi1ELi0EE3runERSD_
FN:518,_ZN5Eigen8internal21dense_assignment_loopINS0_31generic_dense_assignment_kernelINS0_9evaluatorINS_6MatrixISt7complexIdELin1ELin1ELi1ELin1ELin1EEEEENS3_INS_7ProductIS7_S7_Li1EEEEENS0_9assign_opIS6_S6_EELi0EEELi4ELi0EE3runERSE_
FNDA:0,_ZN5Eigen8internal21dense_assignment_loopINS0_31generic_dense_assignment_kernelINS0_9evaluatorINS_6MatrixISt7complexIdELin1ELin1ELi1ELin1ELin1EEEEENS3_INS_7ProductIS7_S7_Li1EEEEENS0_9assign_opIS6_S6_EELi0EEELi4ELi0EE3runERSE_
FN:518,_ZN5Eigen8internal21dense_assignment_loopINS0_31generic_dense_assignment_kernelINS0_9evaluatorINS_5BlockINS_6MatrixISt7complexIdELin1ELin1ELi1ELin1ELin1EEELin1ELin1ELb0EEEEENS3_IS8_EENS0_9assign_opIS7_S7_EELi0EEELi4ELi0EE3runERSE_
FNDA:21070,_ZN5Eigen8internal21dense_assignment_loopINS0_31generic_dense_assignment_kernelINS0_9evaluatorINS_5BlockINS_6MatrixISt7complexIdELin1ELin1ELi1ELin1ELin1EEELin1ELin1ELb0EEEEENS3_IS8_EENS0_9assign_opIS7_S7_EELi0EEELi4ELi0EE3runERSE_
FN:725,_ZN5Eigen8internal26call_dense_assignment_loopINS_5BlockINS_6MatrixISt7complexIdELin1ELin1ELi1ELin1ELin1EEELi1ELin1ELb1EEES7_NS0_14swap_assign_opIS5_EEEEvRT_RKT0_RKT1_
FNDA:25045,_ZN5Eigen8internal26call_dense_assignment_loopINS_5BlockINS_6MatrixISt7complexIdELin1ELin1ELi1ELin1ELin1EEELi1ELin1ELb1EEES7_NS0_14swap_assign_opIS5_EEEEvRT_RKT0_RKT1_
FN:725,_ZN5Eigen8internal26call_dense_assignment_loopINS_5BlockINS_6MatrixISt7complexIdELin1ELin1ELi1ELin1ELin1EEELin1ELin1ELb0EEES6_NS0_9assign_opIS5_S5_EEEEvRT_RKT0_RKT1_
FNDA:21070,_ZN5Eigen8internal26call_dense_assignment_loopINS_5BlockINS_6MatrixISt7complexIdELin1ELin1ELi1ELin1ELin1EEELin1ELin1ELb0EEES6_NS0_9assign_opIS5_S5_EEEEvRT_RKT0_RKT1_
FN:725,_ZN5Eigen8internal26call_dense_assignment_loopINS_5BlockINS_6MatrixISt7complexIdELin1ELin1ELi1ELin1ELin1EEELin1ELi1ELb0EEES7_NS0_14swap_assign_opIS5_EEEEvRT_RKT0_RKT1_
FNDA:25045,_ZN5Eigen8internal26call_dense_assignment_loopINS_5BlockINS_6MatrixISt7complexIdELin1ELin1ELi1ELin1ELin1EEELin1ELi1ELb0EEES7_NS0_14swap_assign_opIS5_EEEEvRT_RKT0_RKT1_
FN:725,_ZN5Eigen8internal26call_dense_assignment_loopINS_6MatrixISt7complexIdELin1ELin1ELi1ELin1ELin1EEENS_13CwiseBinaryOpINS0_13scalar_sum_opIS4_S4_EEKS5_S9_EENS0_9assign_opIS4_S4_EEEEvRT_RKT0_RKT1_
FNDA:12,_ZN5Eigen8internal26call_dense_assignment_loopINS_6MatrixISt7complexIdELin1ELin1ELi1ELin1ELin1EEENS_13CwiseBinaryOpINS0_13scalar_sum_opIS4_S4_EEKS5_S9_EENS0_9assign_opIS4_S4_EEEEvRT_RKT0_RKT1_
FN:725,_ZN5Eigen8internal26call_dense_assignment_loopINS_6MatrixISt7complexIdELin1ELin1ELi1ELin1ELin1EEENS_9TransposeIS5_EENS0_9assign_opIS4_S4_EEEEvRT_RKT0_RKT1_
FNDA:0,_ZN5Eigen8internal26call_dense_assignment_loopINS_6MatrixISt7complexIdELin1ELin1ELi1ELin1ELin1EEENS_9TransposeIS5_EENS0_9assign_opIS4_S4_EEEEvRT_RKT0_RKT1_
FN:725,_ZN5Eigen8internal26call_dense_assignment_loopINS_6MatrixISt7complexIdELin1ELin1ELi1ELin1ELin1EEENS_12CwiseUnaryOpINS0_19scalar_conjugate_opIS4_EEKS5_EENS0_9assign_opIS4_S4_EEEEvRT_RKT0_RKT1_
FNDA:0,_ZN5Eigen8internal26call_dense_assignment_loopINS_6MatrixISt7complexIdELin1ELin1ELi1ELin1ELin1EEENS_12CwiseUnaryOpINS0_19scalar_conjugate_opIS4_EEKS5_EENS0_9assign_opIS4_S4_EEEEvRT_RKT0_RKT1_
FN:725,_ZN5Eigen8internal26call_dense_assignment_loopINS_6MatrixISt7complexIdELin1ELin1ELi1ELin1ELin1EEENS_12CwiseUnaryOpINS0_19scalar_conjugate_opIS4_EEKNS_9TransposeIKS5_EEEENS0_9assign_opIS4_S4_EEEEvRT_RKT0_RKT1_
FNDA:102,_ZN5Eigen8internal26call_dense_assignment_loopINS_6MatrixISt7complexIdELin1ELin1ELi1ELin1ELin1EEENS_12CwiseUnaryOpINS0_19scalar_conjugate_opIS4_EEKNS_9TransposeIKS5_EEEENS0_9assign_opIS4_S4_EEEEvRT_RKT0_RKT1_
FN:725,_ZN5Eigen8internal26call_dense_assignment_loopINS_6MatrixISt7complexIdELin1ELin1ELi1ELin1ELin1EEES5_NS0_9assign_opIS4_S4_EEEEvRT_RKT0_RKT1_
FNDA:0,_ZN5Eigen8internal26call_dense_assignment_loopINS_6MatrixISt7complexIdELin1ELin1ELi1ELin1ELin1EEES5_NS0_9assign_opIS4_S4_EEEEvRT_RKT0_RKT1_
FN:725,_ZN5Eigen8internal26call_dense_assignment_loopINS_6MatrixISt7complexIdELin1ELin1ELi1ELin1ELin1EEENS_14CwiseNullaryOpINS0_18scalar_constant_opIS4_EENS2_IS4_Lin1ELin1ELi0ELin1ELin1EEEEENS0_9assign_opIS4_S4_EEEEvRT_RKT0_RKT1_
FNDA:0,_ZN5Eigen8internal26call_dense_assignment_loopINS_6MatrixISt7complexIdELin1ELin1ELi1ELin1ELin1EEENS_14CwiseNullaryOpINS0_18scalar_constant_opIS4_EENS2_IS4_Lin1ELin1ELi0ELin1ELin1EEEEENS0_9assign_opIS4_S4_EEEEvRT_RKT0_RKT1_
FN:725,_ZN5Eigen8internal26call_dense_assignment_loopINS_6MatrixISt7complexIdELin1ELin1ELi1ELin1ELin1EEENS_14CwiseNullaryOpINS0_18scalar_identity_opIS4_EES5_EENS0_9assign_opIS4_S4_EEEEvRT_RKT0_RKT1_
FNDA:6774,_ZN5Eigen8internal26call_dense_assignment_loopINS_6MatrixISt7complexIdELin1ELin1ELi1ELin1ELin1EEENS_14CwiseNullaryOpINS0_18scalar_identity_opIS4_EES5_EENS0_9assign_opIS4_S4_EEEEvRT_RKT0_RKT1_
FN:725,_ZN5Eigen8internal26call_dense_assignment_loopINS_6MatrixISt7complexIdELin1ELin1ELi1ELin1ELin1EEENS_7ProductIS5_S5_Li1EEENS0_9assign_opIS4_S4_EEEEvRT_RKT0_RKT1_
FNDA:978,_ZN5Eigen8internal26call_dense_assignment_loopINS_6MatrixISt7complexIdELin1ELin1ELi1ELin1ELin1EEENS_7ProductIS5_S5_Li1EEENS0_9assign_opIS4_S4_EEEEvRT_RKT0_RKT1_
FN:725,_ZN5Eigen8internal26call_dense_assignment_loopINS_6MatrixISt7complexIdELin1ELin1ELi1ELin1ELin1EEENS_14CwiseNullaryOpINS0_18scalar_constant_opIS4_EES5_EENS0_9assign_opIS4_S4_EEEEvRT_RKT0_RKT1_
FNDA:2397,_ZN5Eigen8internal26call_dense_assignment_loopINS_6MatrixISt7complexIdELin1ELin1ELi1ELin1ELin1EEENS_14CwiseNullaryOpINS0_18scalar_constant_opIS4_EES5_EENS0_9assign_opIS4_S4_EEEEvRT_RKT0_RKT1_
FNF:25
FNH:15
DA:322,0
DA:324,0
DA:325,0
DA:329,0
DA:322,6774
DA:324,100090
DA:325,2126620
DA:329,6774
DA:322,0
DA:324,0
DA:325,0
DA:329,0
DA:322,102
DA:324,318
DA:325,696
DA:329,102
DA:322,0
DA:324,0
DA:325,0
DA:329,0
DA:389,52499
DA:390,0
DA:397,2397
DA:399,2397
DA:411,2397
DA:415,503997
DA:416,501600
DA:419,2397
DA:397,0
DA:399,0
DA:411,0
DA:415,0
DA:416,0
DA:419,0
DA:397,0
DA:399,0
DA:411,0
DA:415,0
DA:416,0
DA:419,0
DA:397,12
DA:399,12
DA:411,12
DA:415,84
DA:416,72
DA:419,12
DA:397,25045
DA:399,25045
DA:411,25045
DA:415,327847
DA:416,302802
DA:419,25045
DA:493,25045
DA:495,25045
DA:496,630649
DA:497,605604
DA:498,25045
DA:518,0
DA:530,0
DA:537,0
DA:539,0
DA:542,0
DA:544,0
DA:546,0
DA:550,0
DA:554,0
DA:557,0
DA:518,21070
DA:530,21070
DA:531,21070
DA:534,0
DA:537,21070
DA:542,109180
DA:544,88110
DA:546,88110
DA:550,622520
DA:554,88110
DA:557,88110
DA:610,81423
DA:611,81423
DA:637,0
DA:645,2033780
DA:658,501672
DA:666,534410
DA:689,46115
DA:719,9171
DA:720,6774
DA:725,2397
DA:741,2397
DA:742,2397
DA:725,978
DA:734,978
DA:741,978
DA:742,978
DA:725,6774
DA:741,6774
DA:742,6774
DA:725,0
DA:741,0
DA:742,0
DA:725,0
DA:741,0
DA:742,0
DA:725,102
DA:734,102
DA:741,102
DA:742,102
DA:725,0
DA:734,0
DA:741,0
DA:742,0
DA:725,0
DA:734,0
DA:741,0
DA:742,0
DA:725,12
DA:734,12
DA:741,12
DA:742,12
DA:725,21070
DA:741,21070
DA:742,21070
DA:725,25045
DA:741,25045
DA:742,25045
DA:725,25045
DA:741,25045
DA:742,25045
DA:782,27844
DA:836,3375
DA:879,56378
LF:131
LH:80
end_of_record
SF:/usr/include/c++/9/bits/char_traits.h
DA:300,0
DA:363,54
DA:365,54
LF:3
LH:2
end_of_record
SF:/qulacs-osaka/include/Eigen/src/Core/EigenBase.h
DA:66,2409
LF:1
LH:1
end_of_record
SF:/usr/include/c++/9/bits/basic_string.tcc
FN:206,_ZNSt7__cxx1112basic_stringIcSt11char_traitsIcESaIcEE12_M_constructIPcEEvT_S7_St20forward_iterator_tag
FNDA:0,_ZNSt7__cxx1112basic_stringIcSt11char_traitsIcESaIcEE12_M_constructIPcEEvT_S7_St20forward_iterator_tag
FN:206,_ZNSt7__cxx1112basic_stringIcSt11char_traitsIcESaIcEE12_M_constructIPKcEEvT_S8_St20forward_iterator_tag
FNDA:54,_ZNSt7__cxx1112basic_stringIcSt11char_traitsIcESaIcEE12_M_constructIPKcEEvT_S8_St20forward_iterator_tag
FNF:2
FNH:1
DA:206,0
DA:211,0
DA:212,0
DA:215,0
DA:217,0
DA:219,0
DA:220,0
DA:225,0
DA:232,0
DA:233,0
DA:206,54
DA:211,54
DA:212,0
DA:215,54
DA:217,54
DA:219,0
DA:220,0
DA:225,54
DA:232,54
DA:233,54
LF:20
LH:7
end_of_record
SF:/usr/include/c++/9/bits/std_function.h
FN:653,_ZNSt8functionIFbRKSt6vectorIjSaIjEEjEEC2ERKS6_
FNDA:4,_ZNSt8functionIFbRKSt6vectorIjSaIjEEjEEC2ERKS6_
FN:653,_ZNSt8functionIFbRKSt6vectorIjSaIjEEEEC2ERKS6_
FNDA:8,_ZNSt8functionIFbRKSt6vectorIjSaIjEEEEC2ERKS6_
FNF:2
FNH:2
DA:255,18
DA:258,0
DA:259,12
DA:260,12
DA:369,10
DA:396,6
DA:565,12
DA:653,4
DA:657,4
DA:659,4
DA:660,4
DA:661,4
DA:663,4
DA:653,8
DA:657,8
DA:659,8
DA:660,8
DA:661,8
DA:663,8
DA:686,12
DA:687,0
DA:688,12
LF:22
LH:20
end_of_record
SF:/qulacs-osaka/include/Eigen/src/Core/Swap.h
DA:48,302802
DA:49,302802
DA:50,302802
LF:3
LH:3
end_of_record
SF:/usr/include/c++/9/bits/stl_uninitialized.h
DA:82,0
DA:83,0
DA:307,0
DA:927,0
DA:928,0
DA:929,0
DA:930,0
DA:949,29664
LF:8
LH:1
end_of_record
SF:/usr/include/c++/9/streambuf
LF:0
LH:0
end_of_record
SF:/usr/include/x86_64-linux-gnu/bits/string_fortified.h
DA:34,0
LF:1
LH:0
end_of_record
SF:/qulacs-osaka/include/Eigen/src/Core/ProductEvaluators.h
FN:550,_ZNK5Eigen8internal17product_evaluatorINS_7ProductINS_6MatrixISt7complexIdELin1ELin1ELi1ELin1ELin1EEES6_Li1EEELi8ENS_10DenseShapeES8_S5_S5_E5coeffEll
FNDA:0,_ZNK5Eigen8internal17product_evaluatorINS_7ProductINS_6MatrixISt7complexIdELin1ELin1ELi1ELin1ELin1EEES6_Li1EEELi8ENS_10DenseShapeES8_S5_S5_E5coeffEll
FN:674,_ZN5Eigen8internal24etor_product_packet_implILi1ELin1ENS0_9evaluatorINS_6MatrixISt7complexIdELin1ELin1ELi1ELin1ELin1EEEEES7_NS0_9Packet2cdELi0EE3runEllRKS7_SB_lRS8_
FNDA:0,_ZN5Eigen8internal24etor_product_packet_implILi1ELin1ENS0_9evaluatorINS_6MatrixISt7complexIdELin1ELin1ELi1ELin1ELin1EEEEES7_NS0_9Packet2cdELi0EE3runEllRKS7_SB_lRS8_
FNF:2
FNH:0
DA:397,978
DA:398,978
DA:445,978
DA:451,978
DA:550,0
DA:552,0
DA:674,0
DA:676,0
DA:677,0
DA:678,0
DA:679,0
LF:11
LH:4
end_of_record
SF:/usr/include/c++/9/bits/move.h
DA:193,5634
DA:194,611238
DA:195,611238
DA:196,0
LF:4
LH:3
end_of_record
SF:/usr/include/c++/9/bits/stl_algo.h
FN:78,_ZSt22__move_median_to_firstIN9__gnu_cxx17__normal_iteratorIPSt4pairIjjESt6vectorIS3_SaIS3_EEEENS0_5__ops15_Iter_less_iterEEvT_SB_SB_SB_T0_
FNDA:0,_ZSt22__move_median_to_firstIN9__gnu_cxx17__normal_iteratorIPSt4pairIjjESt6vectorIS3_SaIS3_EEEENS0_5__ops15_Iter_less_iterEEvT_SB_SB_SB_T0_
FN:78,_ZSt22__move_median_to_firstISt16reverse_iteratorIN9__gnu_cxx17__normal_iteratorIPSt4pairIdiESt6vectorIS4_SaIS4_EEEEENS1_5__ops15_Iter_less_iterEEvT_SD_SD_SD_T0_
FNDA:0,_ZSt22__move_median_to_firstISt16reverse_iteratorIN9__gnu_cxx17__normal_iteratorIPSt4pairIdiESt6vectorIS4_SaIS4_EEEEENS1_5__ops15_Iter_less_iterEEvT_SD_SD_SD_T0_
FN:1667,_ZSt13__heap_selectIN9__gnu_cxx17__normal_iteratorIPSt4pairIjjESt6vectorIS3_SaIS3_EEEENS0_5__ops15_Iter_less_iterEEvT_SB_SB_T0_
FNDA:0,_ZSt13__heap_selectIN9__gnu_cxx17__normal_iteratorIPSt4pairIjjESt6vectorIS3_SaIS3_EEEENS0_5__ops15_Iter_less_iterEEvT_SB_SB_T0_
FN:1667,_ZSt13__heap_selectISt16reverse_iteratorIN9__gnu_cxx17__normal_iteratorIPSt4pairIdiESt6vectorIS4_SaIS4_EEEEENS1_5__ops15_Iter_less_iterEEvT_SD_SD_T0_
FNDA:0,_ZSt13__heap_selectISt16reverse_iteratorIN9__gnu_cxx17__normal_iteratorIPSt4pairIdiESt6vectorIS4_SaIS4_EEEEENS1_5__ops15_Iter_less_iterEEvT_SD_SD_T0_
FN:1820,_ZSt25__unguarded_linear_insertISt16reverse_iteratorIN9__gnu_cxx17__normal_iteratorIPSt4pairIdiESt6vectorIS4_SaIS4_EEEEENS1_5__ops14_Val_less_iterEEvT_T0_
FNDA:0,_ZSt25__unguarded_linear_insertISt16reverse_iteratorIN9__gnu_cxx17__normal_iteratorIPSt4pairIdiESt6vectorIS4_SaIS4_EEEEENS1_5__ops14_Val_less_iterEEvT_T0_
FN:1839,_ZSt16__insertion_sortIN9__gnu_cxx17__normal_iteratorIPSt4pairIjjESt6vectorIS3_SaIS3_EEEENS0_5__ops15_Iter_less_iterEEvT_SB_T0_
FNDA:3144,_ZSt16__insertion_sortIN9__gnu_cxx17__normal_iteratorIPSt4pairIjjESt6vectorIS3_SaIS3_EEEENS0_5__ops15_Iter_less_iterEEvT_SB_T0_
FN:1839,_ZSt16__insertion_sortISt16reverse_iteratorIN9__gnu_cxx17__normal_iteratorIPSt4pairIdiESt6vectorIS4_SaIS4_EEEEENS1_5__ops15_Iter_less_iterEEvT_SD_T0_
FNDA:0,_ZSt16__insertion_sortISt16reverse_iteratorIN9__gnu_cxx17__normal_iteratorIPSt4pairIdiESt6vectorIS4_SaIS4_EEEEENS1_5__ops15_Iter_less_iterEEvT_SD_T0_
FN:1879,_ZSt22__final_insertion_sortISt16reverse_iteratorIN9__gnu_cxx17__normal_iteratorIPSt4pairIdiESt6vectorIS4_SaIS4_EEEEENS1_5__ops15_Iter_less_iterEEvT_SD_T0_
FNDA:0,_ZSt22__final_insertion_sortISt16reverse_iteratorIN9__gnu_cxx17__normal_iteratorIPSt4pairIdiESt6vectorIS4_SaIS4_EEEEENS1_5__ops15_Iter_less_iterEEvT_SD_T0_
FN:1895,_ZSt21__unguarded_partitionISt16reverse_iteratorIN9__gnu_cxx17__normal_iteratorIPSt4pairIdiESt6vectorIS4_SaIS4_EEEEENS1_5__ops15_Iter_less_iterEET_SD_SD_SD_T0_
FNDA:0,_ZSt21__unguarded_partitionISt16reverse_iteratorIN9__gnu_cxx17__normal_iteratorIPSt4pairIdiESt6vectorIS4_SaIS4_EEEEENS1_5__ops15_Iter_less_iterEET_SD_SD_SD_T0_
FN:1895,_ZSt21__unguarded_partitionIN9__gnu_cxx17__normal_iteratorIPSt4pairIjjESt6vectorIS3_SaIS3_EEEENS0_5__ops15_Iter_less_iterEET_SB_SB_SB_T0_
FNDA:0,_ZSt21__unguarded_partitionIN9__gnu_cxx17__normal_iteratorIPSt4pairIjjESt6vectorIS3_SaIS3_EEEENS0_5__ops15_Iter_less_iterEET_SB_SB_SB_T0_
FN:1916,_ZSt27__unguarded_partition_pivotISt16reverse_iteratorIN9__gnu_cxx17__normal_iteratorIPSt4pairIdiESt6vectorIS4_SaIS4_EEEEENS1_5__ops15_Iter_less_iterEET_SD_SD_T0_
FNDA:0,_ZSt27__unguarded_partition_pivotISt16reverse_iteratorIN9__gnu_cxx17__normal_iteratorIPSt4pairIdiESt6vectorIS4_SaIS4_EEEEENS1_5__ops15_Iter_less_iterEET_SD_SD_T0_
FN:1916,_ZSt27__unguarded_partition_pivotIN9__gnu_cxx17__normal_iteratorIPSt4pairIjjESt6vectorIS3_SaIS3_EEEENS0_5__ops15_Iter_less_iterEET_SB_SB_T0_
FNDA:0,_ZSt27__unguarded_partition_pivotIN9__gnu_cxx17__normal_iteratorIPSt4pairIjjESt6vectorIS3_SaIS3_EEEENS0_5__ops15_Iter_less_iterEET_SB_SB_T0_
FN:1939,_ZSt16__introsort_loopIN9__gnu_cxx17__normal_iteratorIP16ControlQubitInfoSt6vectorIS2_SaIS2_EEEElNS0_5__ops15_Iter_comp_iterIZN4gate3addEPK15QuantumGateBaseSD_EUlRKS2_SF_E0_EEEvT_SI_T0_T1_
FNDA:0,_ZSt16__introsort_loopIN9__gnu_cxx17__normal_iteratorIP16ControlQubitInfoSt6vectorIS2_SaIS2_EEEElNS0_5__ops15_Iter_comp_iterIZN4gate3addEPK15QuantumGateBaseSD_EUlRKS2_SF_E0_EEEvT_SI_T0_T1_
FN:1939,_ZSt16__introsort_loopIN9__gnu_cxx17__normal_iteratorIP15TargetQubitInfoSt6vectorIS2_SaIS2_EEEElNS0_5__ops15_Iter_comp_iterIZN4gate3addEPK15QuantumGateBaseSD_EUlRKS2_SF_E_EEEvT_SI_T0_T1_
FNDA:12,_ZSt16__introsort_loopIN9__gnu_cxx17__normal_iteratorIP15TargetQubitInfoSt6vectorIS2_SaIS2_EEEElNS0_5__ops15_Iter_comp_iterIZN4gate3addEPK15QuantumGateBaseSD_EUlRKS2_SF_E_EEEvT_SI_T0_T1_
FN:1939,_ZSt16__introsort_loopIN9__gnu_cxx17__normal_iteratorIP16ControlQubitInfoSt6vectorIS2_SaIS2_EEEElNS0_5__ops15_Iter_comp_iterIZN4gate5mergeEPK15QuantumGateBaseSD_EUlRKS2_SF_E0_EEEvT_SI_T0_T1_
FNDA:13,_ZSt16__introsort_loopIN9__gnu_cxx17__normal_iteratorIP16ControlQubitInfoSt6vectorIS2_SaIS2_EEEElNS0_5__ops15_Iter_comp_iterIZN4gate5mergeEPK15QuantumGateBaseSD_EUlRKS2_SF_E0_EEEvT_SI_T0_T1_
FN:1939,_ZSt16__introsort_loopIN9__gnu_cxx17__normal_iteratorIP15TargetQubitInfoSt6vectorIS2_SaIS2_EEEElNS0_5__ops15_Iter_comp_iterIZN4gate5mergeEPK15QuantumGateBaseSD_EUlRKS2_SF_E_EEEvT_SI_T0_T1_
FNDA:3375,_ZSt16__introsort_loopIN9__gnu_cxx17__normal_iteratorIP15TargetQubitInfoSt6vectorIS2_SaIS2_EEEElNS0_5__ops15_Iter_comp_iterIZN4gate5mergeEPK15QuantumGateBaseSD_EUlRKS2_SF_E_EEEvT_SI_T0_T1_
FN:1939,_ZSt16__introsort_loopISt16reverse_iteratorIN9__gnu_cxx17__normal_iteratorIPSt4pairIdiESt6vectorIS4_SaIS4_EEEEElNS1_5__ops15_Iter_less_iterEEvT_SD_T0_T1_
FNDA:0,_ZSt16__introsort_loopISt16reverse_iteratorIN9__gnu_cxx17__normal_iteratorIPSt4pairIdiESt6vectorIS4_SaIS4_EEEEElNS1_5__ops15_Iter_less_iterEEvT_SD_T0_T1_
FN:1962,_ZSt6__sortIN9__gnu_cxx17__normal_iteratorIP16ControlQubitInfoSt6vectorIS2_SaIS2_EEEENS0_5__ops15_Iter_comp_iterIZN4gate3addEPK15QuantumGateBaseSD_EUlRKS2_SF_E0_EEEvT_SI_T0_
FNDA:12,_ZSt6__sortIN9__gnu_cxx17__normal_iteratorIP16ControlQubitInfoSt6vectorIS2_SaIS2_EEEENS0_5__ops15_Iter_comp_iterIZN4gate3addEPK15QuantumGateBaseSD_EUlRKS2_SF_E0_EEEvT_SI_T0_
FN:1962,_ZSt6__sortIN9__gnu_cxx17__normal_iteratorIP15TargetQubitInfoSt6vectorIS2_SaIS2_EEEENS0_5__ops15_Iter_comp_iterIZN4gate3addEPK15QuantumGateBaseSD_EUlRKS2_SF_E_EEEvT_SI_T0_
FNDA:12,_ZSt6__sortIN9__gnu_cxx17__normal_iteratorIP15TargetQubitInfoSt6vectorIS2_SaIS2_EEEENS0_5__ops15_Iter_comp_iterIZN4gate3addEPK15QuantumGateBaseSD_EUlRKS2_SF_E_EEEvT_SI_T0_
FN:1962,_ZSt6__sortIN9__gnu_cxx17__normal_iteratorIP16ControlQubitInfoSt6vectorIS2_SaIS2_EEEENS0_5__ops15_Iter_comp_iterIZN4gate5mergeEPK15QuantumGateBaseSD_EUlRKS2_SF_E0_EEEvT_SI_T0_
FNDA:3375,_ZSt6__sortIN9__gnu_cxx17__normal_iteratorIP16ControlQubitInfoSt6vectorIS2_SaIS2_EEEENS0_5__ops15_Iter_comp_iterIZN4gate5mergeEPK15QuantumGateBaseSD_EUlRKS2_SF_E0_EEEvT_SI_T0_
FN:1962,_ZSt6__sortIN9__gnu_cxx17__normal_iteratorIP15TargetQubitInfoSt6vectorIS2_SaIS2_EEEENS0_5__ops15_Iter_comp_iterIZN4gate5mergeEPK15QuantumGateBaseSD_EUlRKS2_SF_E_EEEvT_SI_T0_
FNDA:3375,_ZSt6__sortIN9__gnu_cxx17__normal_iteratorIP15TargetQubitInfoSt6vectorIS2_SaIS2_EEEENS0_5__ops15_Iter_comp_iterIZN4gate5mergeEPK15QuantumGateBaseSD_EUlRKS2_SF_E_EEEvT_SI_T0_
FNF:21
FNH:8
DA:78,0
DA:96,0
DA:78,0
DA:96,0
DA:161,68088
DA:1667,0
DA:1671,0
DA:1672,0
DA:1674,0
DA:1675,0
DA:1667,0
DA:1671,0
DA:1672,0
DA:1674,0
DA:1675,0
DA:1820,0
DA:1824,4866
DA:1830,0
DA:1834,0
DA:1839,3144
DA:1842,3144
DA:1844,10956
DA:1849,2946
DA:1839,0
DA:1842,0
DA:1844,0
DA:1849,0
DA:1854,0
DA:1865,0
DA:1866,0
DA:1879,0
DA:1882,0
DA:1884,0
DA:1889,0
DA:1890,0
DA:1895,0
DA:1906,0
DA:1907,0
DA:1895,0
DA:1906,0
DA:1907,0
DA:1916,0
DA:1919,0
DA:1920,0
DA:1922,0
DA:1916,0
DA:1919,0
DA:1920,0
DA:1922,0
DA:1939,0
DA:1943,0
DA:1945,0
DA:1947,0
DA:1948,0
DA:1950,0
DA:1952,0
DA:1953,0
DA:1954,0
DA:1939,12
DA:1943,12
DA:1945,0
DA:1947,0
DA:1948,0
DA:1950,0
DA:1952,0
DA:1953,0
DA:1954,0
DA:1939,13
DA:1943,13
DA:1945,0
DA:1947,0
DA:1948,0
DA:1950,0
DA:1952,0
DA:1953,0
DA:1954,0
DA:1939,3375
DA:1943,3375
DA:1945,0
DA:1947,0
DA:1948,0
DA:1950,0
DA:1952,0
DA:1953,0
DA:1954,0
DA:1939,0
DA:1943,0
DA:1945,0
DA:1947,0
DA:1948,0
DA:1950,0
DA:1951,0
DA:1953,0
DA:1954,0
DA:1962,12
DA:1965,12
DA:1967,0
DA:1970,0
DA:1972,12
DA:1962,12
DA:1965,12
DA:1967,12
DA:1970,12
DA:1972,12
DA:1962,3375
DA:1965,3375
DA:1967,13
DA:1970,13
DA:1972,3375
DA:1962,3375
DA:1965,3375
DA:1967,3375
DA:1970,3375
DA:1972,3375
DA:3226,6774
DA:3230,15827
DA:3231,12197
DA:3963,68088
DA:4867,3144
DA:4868,3144
DA:4899,3387
LF:121
LH:37
end_of_record
SF:/qulacs-osaka/include/Eigen/src/Core/CwiseUnaryOp.h
DA:66,102
DA:71,102
LF:2
LH:2
end_of_record
SF:/qulacs-osaka/include/Eigen/src/Core/DenseStorage.h
FN:353,_ZN5Eigen12DenseStorageISt7complexIdELin1ELin1ELin1ELi1EEC2ERKS3_
FNDA:0,_ZN5Eigen12DenseStorageISt7complexIdELin1ELin1ELin1ELi1EEC2ERKS3_
FN:402,_ZN5Eigen12DenseStorageISt7complexIdELin1ELin1ELin1ELi1EE6resizeElll
FNDA:3489,_ZN5Eigen12DenseStorageISt7complexIdELin1ELin1ELin1ELi1EE6resizeElll
FNF:2
FNH:1
DA:344,17201
DA:353,0
DA:354,0
DA:355,0
DA:356,0
DA:359,0
DA:360,0
DA:391,20486
DA:402,3489
DA:404,3489
DA:406,3489
DA:407,3489
DA:408,3489
DA:410,0
DA:413,3489
DA:414,3489
DA:415,3489
DA:500,0
DA:542,0
LF:19
LH:10
end_of_record
SF:/qulacs-osaka/include/Eigen/src/Core/DenseBase.h
DA:418,25045
LF:1
LH:1
end_of_record
SF:/qulacs-osaka/include/Eigen/src/Core/functors/AssignmentFunctors.h
DA:24,2033780
LF:1
LH:1
end_of_record
SF:/usr/include/c++/9/bits/random.tcc
FN:396,_ZNSt23mersenne_twister_engineImLm64ELm312ELm156ELm31ELm13043109905998158313ELm29ELm6148914691236517205ELm17ELm8202884508482404352ELm37ELm18444473444759240704ELm43ELm6364136223846793005EE11_M_gen_randEv
FNDA:0,_ZNSt23mersenne_twister_engineImLm64ELm312ELm156ELm31ELm13043109905998158313ELm29ELm6148914691236517205ELm17ELm8202884508482404352ELm37ELm18444473444759240704ELm43ELm6364136223846793005EE11_M_gen_randEv
FN:452,_ZNSt23mersenne_twister_engineImLm64ELm312ELm156ELm31ELm13043109905998158313ELm29ELm6148914691236517205ELm17ELm8202884508482404352ELm37ELm18444473444759240704ELm43ELm6364136223846793005EEclEv
FNDA:0,_ZNSt23mersenne_twister_engineImLm64ELm312ELm156ELm31ELm13043109905998158313ELm29ELm6148914691236517205ELm17ELm8202884508482404352ELm37ELm18444473444759240704ELm43ELm6364136223846793005EEclEv
FN:3316,_ZSt18generate_canonicalIdLm53ESt23mersenne_twister_engineImLm64ELm312ELm156ELm31ELm13043109905998158313ELm29ELm6148914691236517205ELm17ELm8202884508482404352ELm37ELm18444473444759240704ELm43ELm6364136223846793005EEET_RT1_
FNDA:0,_ZSt18generate_canonicalIdLm53ESt23mersenne_twister_engineImLm64ELm312ELm156ELm31ELm13043109905998158313ELm29ELm6148914691236517205ELm17ELm8202884508482404352ELm37ELm18444473444759240704ELm43ELm6364136223846793005EEET_RT1_
FNF:3
FNH:0
DA:329,0
DA:332,0
DA:334,0
DA:335,0
DA:336,0
DA:337,0
DA:338,0
DA:341,0
DA:396,0
DA:403,0
DA:405,0
DA:406,0
DA:407,0
DA:408,0
DA:411,0
DA:413,0
DA:414,0
DA:415,0
DA:416,0
DA:419,0
DA:420,0
DA:421,0
DA:422,0
DA:423,0
DA:424,0
DA:452,0
DA:457,0
DA:458,0
DA:461,0
DA:462,0
DA:463,0
DA:464,0
DA:465,0
DA:467,0
DA:3316,0
DA:3332,0
DA:3334,0
DA:3335,0
DA:3337,0
DA:3338,0
DA:3347,0
LF:41
LH:0
end_of_record
SF:/usr/include/c++/9/bits/vector.tcc
FN:109,_ZNSt6vectorIP15QuantumGateBaseSaIS1_EE12emplace_backIJS1_EEEvDpOT_
FNDA:172,_ZNSt6vectorIP15QuantumGateBaseSaIS1_EE12emplace_backIJS1_EEEvDpOT_
FN:109,_ZNSt6vectorIdSaIdEE12emplace_backIJdEEEvDpOT_
FNDA:0,_ZNSt6vectorIdSaIdEE12emplace_backIJdEEEvDpOT_
FN:109,_ZNSt6vectorIySaIyEE12emplace_backIJyEEEvDpOT_
FNDA:0,_ZNSt6vectorIySaIyEE12emplace_backIJyEEEvDpOT_
FN:109,_ZNSt6vectorISt4pairIdiESaIS1_EE12emplace_backIJS1_EEEvDpOT_
FNDA:0,_ZNSt6vectorISt4pairIdiESaIS1_EE12emplace_backIJS1_EEEvDpOT_
FN:109,_ZNSt6vectorI15TargetQubitInfoSaIS0_EE12emplace_backIJS0_EEEvDpOT_
FNDA:11244,_ZNSt6vectorI15TargetQubitInfoSaIS0_EE12emplace_backIJS0_EEEvDpOT_
FN:109,_ZNSt6vectorI16ControlQubitInfoSaIS0_EE12emplace_backIJS0_EEEvDpOT_
FNDA:13,_ZNSt6vectorI16ControlQubitInfoSaIS0_EE12emplace_backIJS0_EEEvDpOT_
FN:109,_ZNSt6vectorIjSaIjEE12emplace_backIJjEEEvDpOT_
FNDA:7937,_ZNSt6vectorIjSaIjEE12emplace_backIJjEEEvDpOT_
FN:109,_ZNSt6vectorISt4pairIjjESaIS1_EE12emplace_backIJS1_EEEvDpOT_
FNDA:10956,_ZNSt6vectorISt4pairIjjESaIS1_EE12emplace_backIJS1_EEEvDpOT_
FN:198,_ZNSt6vectorI15TargetQubitInfoSaIS0_EEaSERKS2_
FNDA:0,_ZNSt6vectorI15TargetQubitInfoSaIS0_EEaSERKS2_
FN:198,_ZNSt6vectorI16ControlQubitInfoSaIS0_EEaSERKS2_
FNDA:0,_ZNSt6vectorI16ControlQubitInfoSaIS0_EEaSERKS2_
FN:198,_ZNSt6vectorIjSaIjEEaSERKS1_
FNDA:0,_ZNSt6vectorIjSaIjEEaSERKS1_
FN:198,_ZNSt6vectorIP15QuantumGateBaseSaIS1_EEaSERKS3_
FNDA:0,_ZNSt6vectorIP15QuantumGateBaseSaIS1_EEaSERKS3_
FN:426,_ZNSt6vectorISt4pairIjjESaIS1_EE17_M_realloc_insertIJS1_EEEvN9__gnu_cxx17__normal_iteratorIPS1_S3_EEDpOT_
FNDA:9433,_ZNSt6vectorISt4pairIjjESaIS1_EE17_M_realloc_insertIJS1_EEEvN9__gnu_cxx17__normal_iteratorIPS1_S3_EEDpOT_
FN:426,_ZNSt6vectorIjSaIjEE17_M_realloc_insertIJRKjEEEvN9__gnu_cxx17__normal_iteratorIPjS1_EEDpOT_
FNDA:0,_ZNSt6vectorIjSaIjEE17_M_realloc_insertIJRKjEEEvN9__gnu_cxx17__normal_iteratorIPjS1_EEDpOT_
FN:426,_ZNSt6vectorIP15QuantumGateBaseSaIS1_EE17_M_realloc_insertIJS1_EEEvN9__gnu_cxx17__normal_iteratorIPS1_S3_EEDpOT_
FNDA:0,_ZNSt6vectorIP15QuantumGateBaseSaIS1_EE17_M_realloc_insertIJS1_EEEvN9__gnu_cxx17__normal_iteratorIPS1_S3_EEDpOT_
FN:426,_ZNSt6vectorIdSaIdEE17_M_realloc_insertIJRKdEEEvN9__gnu_cxx17__normal_iteratorIPdS1_EEDpOT_
FNDA:0,_ZNSt6vectorIdSaIdEE17_M_realloc_insertIJRKdEEEvN9__gnu_cxx17__normal_iteratorIPdS1_EEDpOT_
FN:426,_ZNSt6vectorIySaIyEE17_M_realloc_insertIJyEEEvN9__gnu_cxx17__normal_iteratorIPyS1_EEDpOT_
FNDA:0,_ZNSt6vectorIySaIyEE17_M_realloc_insertIJyEEEvN9__gnu_cxx17__normal_iteratorIPyS1_EEDpOT_
FN:426,_ZNSt6vectorIP15QuantumGateBaseSaIS1_EE17_M_realloc_insertIJRKS1_EEEvN9__gnu_cxx17__normal_iteratorIPS1_S3_EEDpOT_
FNDA:0,_ZNSt6vectorIP15QuantumGateBaseSaIS1_EE17_M_realloc_insertIJRKS1_EEEvN9__gnu_cxx17__normal_iteratorIPS1_S3_EEDpOT_
FN:426,_ZNSt6vectorIjSaIjEE17_M_realloc_insertIJjEEEvN9__gnu_cxx17__normal_iteratorIPjS1_EEDpOT_
FNDA:0,_ZNSt6vectorIjSaIjEE17_M_realloc_insertIJjEEEvN9__gnu_cxx17__normal_iteratorIPjS1_EEDpOT_
FN:426,_ZNSt6vectorI16ControlQubitInfoSaIS0_EE17_M_realloc_insertIJS0_EEEvN9__gnu_cxx17__normal_iteratorIPS0_S2_EEDpOT_
FNDA:0,_ZNSt6vectorI16ControlQubitInfoSaIS0_EE17_M_realloc_insertIJS0_EEEvN9__gnu_cxx17__normal_iteratorIPS0_S2_EEDpOT_
FN:426,_ZNSt6vectorI15TargetQubitInfoSaIS0_EE17_M_realloc_insertIJS0_EEEvN9__gnu_cxx17__normal_iteratorIPS0_S2_EEDpOT_
FNDA:0,_ZNSt6vectorI15TargetQubitInfoSaIS0_EE17_M_realloc_insertIJS0_EEEvN9__gnu_cxx17__normal_iteratorIPS0_S2_EEDpOT_
FN:426,_ZNSt6vectorISt4pairIdiESaIS1_EE17_M_realloc_insertIJS1_EEEvN9__gnu_cxx17__normal_iteratorIPS1_S3_EEDpOT_
FNDA:0,_ZNSt6vectorISt4pairIdiESaIS1_EE17_M_realloc_insertIJS1_EEEvN9__gnu_cxx17__normal_iteratorIPS1_S3_EEDpOT_
FN:426,_ZNSt6vectorIdSaIdEE17_M_realloc_insertIJdEEEvN9__gnu_cxx17__normal_iteratorIPdS1_EEDpOT_
FNDA:0,_ZNSt6vectorIdSaIdEE17_M_realloc_insertIJdEEEvN9__gnu_cxx17__normal_iteratorIPdS1_EEDpOT_
FN:509,_ZNSt6vectorIjSaIjEE14_M_fill_insertEN9__gnu_cxx17__normal_iteratorIPjS1_EEmRKj
FNDA:0,_ZNSt6vectorIjSaIjEE14_M_fill_insertEN9__gnu_cxx17__normal_iteratorIPjS1_EEmRKj
FN:721,_ZNSt6vectorIjSaIjEE15_M_range_insertIN9__gnu_cxx17__normal_iteratorIPjS1_EEEEvS6_T_S7_St20forward_iterator_tag
FNDA:13548,_ZNSt6vectorIjSaIjEE15_M_range_insertIN9__gnu_cxx17__normal_iteratorIPjS1_EEEEvS6_T_S7_St20forward_iterator_tag
FNF:25
FNH:7
DA:109,172
DA:112,172
DA:115,28
DA:117,28
DA:121,144
DA:125,172
DA:109,10956
DA:112,10956
DA:117,1523
DA:121,9433
DA:125,10956
DA:109,7937
DA:112,7937
DA:115,299
DA:117,299
DA:121,7638
DA:125,7937
DA:109,13
DA:112,13
DA:117,0
DA:121,13
DA:125,13
DA:109,11244
DA:112,11244
DA:117,1554
DA:121,9690
DA:125,11244
DA:109,0
DA:112,0
DA:117,0
DA:121,0
DA:125,0
DA:109,0
DA:112,0
DA:115,0
DA:117,0
DA:121,0
DA:125,0
DA:109,0
DA:112,0
DA:115,0
DA:117,0
DA:121,0
DA:125,0
DA:198,0
DA:201,0
DA:223,0
DA:224,0
DA:226,0
DA:228,0
DA:233,0
DA:234,0
DA:236,0
DA:243,0
DA:245,0
DA:246,0
DA:250,0
DA:252,0
DA:198,0
DA:201,0
DA:223,0
DA:224,0
DA:226,0
DA:228,0
DA:233,0
DA:234,0
DA:236,0
DA:243,0
DA:245,0
DA:246,0
DA:250,0
DA:252,0
DA:198,0
DA:201,0
DA:223,0
DA:224,0
DA:228,0
DA:233,0
DA:234,0
DA:236,0
DA:243,0
DA:250,0
DA:252,0
DA:198,0
DA:201,0
DA:223,0
DA:224,0
DA:228,0
DA:233,0
DA:234,0
DA:236,0
DA:243,0
DA:250,0
DA:252,0
DA:426,0
DA:435,0
DA:437,0
DA:438,0
DA:440,0
DA:449,0
DA:450,0
DA:464,0
DA:502,0
DA:503,0
DA:504,0
DA:505,0
DA:426,9433
DA:435,9433
DA:437,9433
DA:438,9433
DA:440,9433
DA:449,9433
DA:450,9433
DA:464,9433
DA:502,9433
DA:503,9433
DA:504,9433
DA:505,9433
DA:426,0
DA:435,0
DA:437,0
DA:438,0
DA:440,0
DA:449,0
DA:450,0
DA:464,0
DA:502,0
DA:503,0
DA:504,0
DA:505,0
DA:426,0
DA:435,0
DA:437,0
DA:438,0
DA:440,0
DA:449,0
DA:450,0
DA:464,0
DA:502,0
DA:503,0
DA:504,0
DA:505,0
DA:426,0
DA:435,0
DA:437,0
DA:438,0
DA:440,0
DA:449,0
DA:450,0
DA:464,0
DA:502,0
DA:503,0
DA:504,0
DA:505,0
DA:426,0
DA:435,0
DA:437,0
DA:438,0
DA:440,0
DA:449,0
DA:450,0
DA:464,0
DA:502,0
DA:503,0
DA:504,0
DA:505,0
DA:426,0
DA:435,0
DA:437,0
DA:438,0
DA:440,0
DA:449,0
DA:450,0
DA:464,0
DA:502,0
DA:503,0
DA:504,0
DA:505,0
DA:426,0
DA:435,0
DA:437,0
DA:438,0
DA:440,0
DA:449,0
DA:450,0
DA:464,0
DA:502,0
DA:503,0
DA:504,0
DA:505,0
DA:426,0
DA:435,0
DA:437,0
DA:438,0
DA:440,0
DA:449,0
DA:450,0
DA:464,0
DA:502,0
DA:503,0
DA:504,0
DA:505,0
DA:426,0
DA:435,0
DA:437,0
DA:438,0
DA:440,0
DA:449,0
DA:450,0
DA:464,0
DA:502,0
DA:503,0
DA:504,0
DA:505,0
DA:426,0
DA:435,0
DA:437,0
DA:438,0
DA:440,0
DA:449,0
DA:450,0
DA:464,0
DA:502,0
DA:503,0
DA:504,0
DA:505,0
DA:509,0
DA:512,0
DA:514,0
DA:515,0
DA:523,0
DA:525,0
DA:528,0
DA:532,0
DA:536,0
DA:542,0
DA:543,0
DA:551,0
DA:558,0
DA:561,0
DA:566,0
DA:573,0
DA:576,0
DA:580,0
DA:601,0
DA:602,0
DA:603,0
DA:606,0
DA:721,13548
DA:725,13548
DA:727,4626
DA:728,4626
DA:729,4626
DA:731,0
DA:733,0
DA:736,0
DA:740,0
DA:754,0
DA:760,0
DA:767,4626
DA:769,4626
DA:775,4626
DA:783,4626
DA:799,4626
DA:800,4626
DA:801,4626
DA:804,13548
LF:267
LH:51
end_of_record
SF:/qulacs-osaka/src/cppsim/gate_merge.cpp
FN:27,_Z18get_new_qubit_listPK15QuantumGateBaseS1_RSt6vectorI15TargetQubitInfoSaIS3_EERS2_I16ControlQubitInfoSaIS7_EE
FNDA:3387,_Z18get_new_qubit_listPK15QuantumGateBaseS1_RSt6vectorI15TargetQubitInfoSaIS3_EERS2_I16ControlQubitInfoSaIS7_EE
FN:161,_Z19get_extended_matrixPK15QuantumGateBaseRKSt6vectorI15TargetQubitInfoSaIS3_EERKS2_I16ControlQubitInfoSaIS8_EERN5Eigen6MatrixISt7complexIdELin1ELin1ELi1ELin1ELin1EEE
FNDA:6774,_Z19get_extended_matrixPK15QuantumGateBaseRKSt6vectorI15TargetQubitInfoSaIS3_EERKS2_I16ControlQubitInfoSaIS8_EERN5Eigen6MatrixISt7complexIdELin1ELin1ELi1ELin1ELin1EEE
FN:324,_ZN4gate5mergeEPK15QuantumGateBaseS2_
FNDA:3375,_ZN4gate5mergeEPK15QuantumGateBaseS2_
FN:366,_ZN4gate5mergeESt6vectorIPK15QuantumGateBaseSaIS3_EE
FNDA:0,_ZN4gate5mergeESt6vectorIPK15QuantumGateBaseSaIS3_EE
FN:381,_ZN4gate3addESt6vectorIPK15QuantumGateBaseSaIS3_EE
FNDA:0,_ZN4gate3addESt6vectorIPK15QuantumGateBaseSaIS3_EE
FN:397,_ZN4gate3addEPK15QuantumGateBaseS2_
FNDA:12,_ZN4gate3addEPK15QuantumGateBaseS2_
FN:438,_ZN4gate14to_matrix_gateEPK15QuantumGateBase
FNDA:62,_ZN4gate14to_matrix_gateEPK15QuantumGateBase
FN:452,_ZN4gate18get_transpose_gateEPK15QuantumGateBase
FNDA:0,_ZN4gate18get_transpose_gateEPK15QuantumGateBase
FN:460,_ZN4gate18get_conjugate_gateEPK15QuantumGateBase
FNDA:0,_ZN4gate18get_conjugate_gateEPK15QuantumGateBase
FN:468,_ZN4gate16get_adjoint_gateEPK15QuantumGateBase
FNDA:102,_ZN4gate16get_adjoint_gateEPK15QuantumGateBase
FN:477,_ZN4gate13ProbabilisticESt6vectorIdSaIdEES0_IP15QuantumGateBaseSaIS4_EE
FNDA:24,_ZN4gate13ProbabilisticESt6vectorIdSaIdEES0_IP15QuantumGateBaseSaIS4_EE
FN:482,_ZN4gate23ProbabilisticInstrumentESt6vectorIdSaIdEES0_IP15QuantumGateBaseSaIS4_EEj
FNDA:0,_ZN4gate23ProbabilisticInstrumentESt6vectorIdSaIdEES0_IP15QuantumGateBaseSaIS4_EEj
FN:488,_ZN4gate4CPTPESt6vectorIP15QuantumGateBaseSaIS2_EE
FNDA:44,_ZN4gate4CPTPESt6vectorIP15QuantumGateBaseSaIS2_EE
FN:492,_ZN4gate2CPESt6vectorIP15QuantumGateBaseSaIS2_EEbbb
FNDA:0,_ZN4gate2CPESt6vectorIP15QuantumGateBaseSaIS2_EEbbb
FN:499,_ZN4gate10InstrumentESt6vectorIP15QuantumGateBaseSaIS2_EEj
FNDA:4,_ZN4gate10InstrumentESt6vectorIP15QuantumGateBaseSaIS2_EEj
FN:504,_ZN4gate8AdaptiveEP15QuantumGateBaseSt8functionIFbRKSt6vectorIjSaIjEEEE
FNDA:4,_ZN4gate8AdaptiveEP15QuantumGateBaseSt8functionIFbRKSt6vectorIjSaIjEEEE
FN:509,_ZN4gate8AdaptiveEP15QuantumGateBaseSt8functionIFbRKSt6vectorIjSaIjEEjEEj
FNDA:2,_ZN4gate8AdaptiveEP15QuantumGateBaseSt8functionIFbRKSt6vectorIjSaIjEEjEEj
FNF:17
FNH:11
DA:27,3387
DA:31,13542
DA:35,10155
DA:39,10155
DA:40,3589
DA:42,3589
DA:48,6566
DA:52,6566
DA:53,523
DA:55,523
DA:61,6043
DA:65,3570
DA:69,183
DA:73,183
DA:74,49
DA:75,49
DA:76,49
DA:83,134
DA:87,134
DA:88,13
DA:89,13
DA:92,0
DA:94,13
DA:101,121
DA:105,7783
DA:107,4396
DA:111,4396
DA:112,3589
DA:115,807
DA:119,807
DA:120,49
DA:126,758
DA:130,4084
DA:132,697
DA:136,697
DA:137,523
DA:140,174
DA:144,174
DA:145,13
DA:152,161
DA:157,3387
DA:161,6774
DA:168,6774
DA:173,29262
DA:175,22488
DA:179,22488
DA:180,854
DA:182,854
DA:183,854
DA:189,29262
DA:191,22488
DA:195,22488
DA:199,22488
DA:200,7937
DA:201,7083
DA:206,6774
DA:208,6774
DA:210,6774
DA:227,6774
DA:228,6774
DA:229,6774
DA:233,6774
DA:234,6774
DA:238,6774
DA:239,6774
DA:240,6774
DA:241,27844
DA:242,21070
DA:243,21070
DA:244,21070
DA:251,6774
DA:256,14100
DA:258,10956
DA:260,3144
DA:262,3144
DA:263,14100
DA:264,10956
DA:271,3144
DA:272,19734
DA:273,16590
DA:274,5634
DA:277,5634
DA:279,5634
DA:282,5634
DA:283,5634
DA:284,5634
DA:285,5634
DA:287,5634
DA:289,30679
DA:296,25045
DA:297,25045
DA:299,25045
DA:300,25045
DA:301,25045
DA:302,25045
DA:305,10956
DA:316,6774
DA:324,3375
DA:329,3375
DA:331,3375
DA:335,3375
DA:342,3375
DA:344,3375
DA:348,3375
DA:349,3375
DA:354,3375
DA:358,3375
DA:359,3375
DA:360,3375
DA:363,3375
DA:366,0
DA:369,0
DA:370,0
DA:371,0
DA:373,0
DA:374,0
DA:378,0
DA:381,0
DA:384,0
DA:385,0
DA:386,0
DA:388,0
DA:389,0
DA:393,0
DA:397,12
DA:402,12
DA:404,12
DA:408,12
DA:415,12
DA:417,12
DA:421,12
DA:422,12
DA:427,0
DA:431,12
DA:432,12
DA:435,12
DA:438,62
DA:440,62
DA:442,124
DA:452,0
DA:455,0
DA:456,0
DA:458,0
DA:460,0
DA:463,0
DA:464,0
DA:466,0
DA:468,102
DA:471,102
DA:472,0
DA:474,204
DA:477,24
DA:479,72
DA:482,0
DA:485,0
DA:488,44
DA:489,88
DA:492,0
DA:496,0
DA:499,4
DA:501,8
DA:504,4
DA:506,8
DA:509,2
DA:511,4
LF:165
LH:136
end_of_record
SF:/qulacs-osaka/include/Eigen/src/Core/PlainObjectBase.h
FN:279,_ZN5Eigen15PlainObjectBaseINS_6MatrixISt7complexIdELin1ELin1ELi1ELin1ELin1EEEE6resizeEll
FNDA:3489,_ZN5Eigen15PlainObjectBaseINS_6MatrixISt7complexIdELin1ELin1ELi1ELin1ELin1EEEE6resizeEll
FN:362,_ZN5Eigen15PlainObjectBaseINS_6MatrixISt7complexIdELin1ELin1ELi1ELin1ELin1EEEE10resizeLikeINS_12CwiseUnaryOpINS_8internal19scalar_conjugate_opIS3_EEKNS_9TransposeIKS4_EEEEEEvRKNS_9EigenBaseIT_EE
FNDA:102,_ZN5Eigen15PlainObjectBaseINS_6MatrixISt7complexIdELin1ELin1ELi1ELin1ELin1EEEE10resizeLikeINS_12CwiseUnaryOpINS_8internal19scalar_conjugate_opIS3_EEKNS_9TransposeIKS4_EEEEEEvRKNS_9EigenBaseIT_EE
FN:362,_ZN5Eigen15PlainObjectBaseINS_6MatrixISt7complexIdELin1ELin1ELi1ELin1ELin1EEEE10resizeLikeINS_12CwiseUnaryOpINS_8internal19scalar_conjugate_opIS3_EEKS4_EEEEvRKNS_9EigenBaseIT_EE
FNDA:0,_ZN5Eigen15PlainObjectBaseINS_6MatrixISt7complexIdELin1ELin1ELi1ELin1ELin1EEEE10resizeLikeINS_12CwiseUnaryOpINS_8internal19scalar_conjugate_opIS3_EEKS4_EEEEvRKNS_9EigenBaseIT_EE
FN:362,_ZN5Eigen15PlainObjectBaseINS_6MatrixISt7complexIdELin1ELin1ELi1ELin1ELin1EEEE10resizeLikeINS_9TransposeIS4_EEEEvRKNS_9EigenBaseIT_EE
FNDA:0,_ZN5Eigen15PlainObjectBaseINS_6MatrixISt7complexIdELin1ELin1ELi1ELin1ELin1EEEE10resizeLikeINS_9TransposeIS4_EEEEvRKNS_9EigenBaseIT_EE
FN:362,_ZN5Eigen15PlainObjectBaseINS_6MatrixISt7complexIdELin1ELin1ELi1ELin1ELin1EEEE10resizeLikeINS_13CwiseBinaryOpINS_8internal13scalar_sum_opIS3_S3_EEKS4_SB_EEEEvRKNS_9EigenBaseIT_EE
FNDA:12,_ZN5Eigen15PlainObjectBaseINS_6MatrixISt7complexIdELin1ELin1ELi1ELin1ELin1EEEE10resizeLikeINS_13CwiseBinaryOpINS_8internal13scalar_sum_opIS3_S3_EEKS4_SB_EEEEvRKNS_9EigenBaseIT_EE
FN:362,_ZN5Eigen15PlainObjectBaseINS_6MatrixISt7complexIdELin1ELin1ELi1ELin1ELin1EEEE10resizeLikeINS_7ProductIS4_S4_Li0EEEEEvRKNS_9EigenBaseIT_EE
FNDA:3375,_ZN5Eigen15PlainObjectBaseINS_6MatrixISt7complexIdELin1ELin1ELi1ELin1ELin1EEEE10resizeLikeINS_7ProductIS4_S4_Li0EEEEEvRKNS_9EigenBaseIT_EE
FN:532,_ZN5Eigen15PlainObjectBaseINS_6MatrixISt7complexIdELin1ELin1ELi1ELin1ELin1EEEEC2INS_12CwiseUnaryOpINS_8internal19scalar_conjugate_opIS3_EEKNS_9TransposeIKS4_EEEEEERKNS_9DenseBaseIT_EE
FNDA:102,_ZN5Eigen15PlainObjectBaseINS_6MatrixISt7complexIdELin1ELin1ELi1ELin1ELin1EEEEC2INS_12CwiseUnaryOpINS_8internal19scalar_conjugate_opIS3_EEKNS_9TransposeIKS4_EEEEEERKNS_9DenseBaseIT_EE
FN:532,_ZN5Eigen15PlainObjectBaseINS_6MatrixISt7complexIdELin1ELin1ELi1ELin1ELin1EEEEC2INS_12CwiseUnaryOpINS_8internal19scalar_conjugate_opIS3_EEKS4_EEEERKNS_9DenseBaseIT_EE
FNDA:0,_ZN5Eigen15PlainObjectBaseINS_6MatrixISt7complexIdELin1ELin1ELi1ELin1ELin1EEEEC2INS_12CwiseUnaryOpINS_8internal19scalar_conjugate_opIS3_EEKS4_EEEERKNS_9DenseBaseIT_EE
FN:532,_ZN5Eigen15PlainObjectBaseINS_6MatrixISt7complexIdELin1ELin1ELi1ELin1ELin1EEEEC2INS_9TransposeIS4_EEEERKNS_9DenseBaseIT_EE
FNDA:0,_ZN5Eigen15PlainObjectBaseINS_6MatrixISt7complexIdELin1ELin1ELi1ELin1ELin1EEEEC2INS_9TransposeIS4_EEEERKNS_9DenseBaseIT_EE
FN:532,_ZN5Eigen15PlainObjectBaseINS_6MatrixISt7complexIdELin1ELin1ELi1ELin1ELin1EEEEC2INS_13CwiseBinaryOpINS_8internal13scalar_sum_opIS3_S3_EEKS4_SB_EEEERKNS_9DenseBaseIT_EE
FNDA:12,_ZN5Eigen15PlainObjectBaseINS_6MatrixISt7complexIdELin1ELin1ELi1ELin1ELin1EEEEC2INS_13CwiseBinaryOpINS_8internal13scalar_sum_opIS3_S3_EEKS4_SB_EEEERKNS_9DenseBaseIT_EE
FN:532,_ZN5Eigen15PlainObjectBaseINS_6MatrixISt7complexIdELin1ELin1ELi1ELin1ELin1EEEEC2INS_7ProductIS4_S4_Li0EEEEERKNS_9DenseBaseIT_EE
FNDA:3375,_ZN5Eigen15PlainObjectBaseINS_6MatrixISt7complexIdELin1ELin1ELi1ELin1ELin1EEEEC2INS_7ProductIS4_S4_Li0EEEEERKNS_9DenseBaseIT_EE
FNF:11
FNH:7
DA:45,13956
DA:46,6978
DA:48,0
DA:98,0
DA:151,115351
DA:153,2196770
DA:165,0
DA:186,0
DA:207,0
DA:256,31333
DA:260,46115
DA:279,3489
DA:293,3489
DA:295,3489
DA:319,0
DA:362,102
DA:377,102
DA:378,102
DA:362,0
DA:365,0
DA:377,0
DA:378,0
DA:362,0
DA:365,0
DA:377,0
DA:378,0
DA:362,12
DA:365,12
DA:377,12
DA:378,12
DA:362,3375
DA:365,3375
DA:377,3375
DA:378,3375
DA:532,102
DA:536,102
DA:538,102
DA:532,0
DA:536,0
DA:538,0
DA:532,0
DA:536,0
DA:538,0
DA:532,12
DA:536,12
DA:538,12
DA:532,3375
DA:536,3375
DA:538,3375
DA:732,114
DA:781,0
LF:51
LH:30
end_of_record
SF:/qulacs-osaka/include/Eigen/src/Core/CwiseNullaryOp.h
FN:499,_ZN5Eigen9DenseBaseINS_6MatrixISt7complexIdELin1ELin1ELi1ELin1ELin1EEEE7setZeroEv
FNDA:2397,_ZN5Eigen9DenseBaseINS_6MatrixISt7complexIdELin1ELin1ELi1ELin1ELin1EEEE7setZeroEv
FNF:1
FNH:1
DA:78,9171
DA:80,9171
DA:327,2397
DA:499,2397
DA:501,2397
LF:5
LH:5
end_of_record
SF:/usr/include/c++/9/bits/basic_string.h
DA:159,0
DA:160,0
DA:179,0
DA:183,54
DA:193,0
DA:203,6
DA:211,0
DA:217,54
DA:222,6
DA:231,6
DA:237,0
DA:247,0
DA:348,54
DA:349,0
DA:448,0
DA:451,0
DA:658,6
DA:705,50
DA:1070,0
DA:1188,0
DA:1366,0
DA:2313,0
DA:6177,0
DA:6421,0
LF:24
LH:8
end_of_record
SF:/usr/include/c++/9/bits/locale_facets.h
FN:872,_ZNKSt5ctypeIcE5widenEc
FNDA:0,_ZNKSt5ctypeIcE5widenEc
FN:1084,_ZNKSt5ctypeIcE8do_widenEc
FNDA:0,_ZNKSt5ctypeIcE8do_widenEc
FNF:2
FNH:0
DA:872,0
DA:874,0
DA:875,0
DA:876,0
DA:877,0
DA:1084,0
DA:1085,0
LF:7
LH:0
end_of_record
SF:/usr/include/c++/9/ext/new_allocator.h
DA:128,38885
LF:1
LH:1
end_of_record
SF:/usr/include/c++/9/bits/stl_pair.h
DA:396,14184
DA:397,14184
DA:456,15349
LF:3
LH:3
end_of_record
SF:/usr/include/c++/9/bits/ios_base.h
DA:707,0
DA:708,0
DA:709,0
DA:731,0
DA:732,0
LF:5
LH:0
end_of_record
TN:
SF:/usr/include/c++/9/bits/char_traits.h
DA:300,0
DA:363,144
DA:365,144
LF:3
LH:2
end_of_record
SF:/usr/include/c++/9/bits/basic_string.tcc
FN:206,_ZNSt7__cxx1112basic_stringIcSt11char_traitsIcESaIcEE12_M_constructIPcEEvT_S7_St20forward_iterator_tag
FNDA:144,_ZNSt7__cxx1112basic_stringIcSt11char_traitsIcESaIcEE12_M_constructIPcEEvT_S7_St20forward_iterator_tag
FN:206,_ZNSt7__cxx1112basic_stringIcSt11char_traitsIcESaIcEE12_M_constructIPKcEEvT_S8_St20forward_iterator_tag
FNDA:0,_ZNSt7__cxx1112basic_stringIcSt11char_traitsIcESaIcEE12_M_constructIPKcEEvT_S8_St20forward_iterator_tag
FNF:2
FNH:1
DA:206,144
DA:211,144
DA:212,0
DA:215,144
DA:217,144
DA:219,24
DA:220,24
DA:225,144
DA:232,144
DA:233,144
DA:206,0
DA:211,0
DA:212,0
DA:215,0
DA:217,0
DA:219,0
DA:220,0
DA:225,0
DA:232,0
DA:233,0
LF:20
LH:9
end_of_record
SF:/usr/include/c++/9/iostream
LF:0
LH:0
end_of_record
SF:/usr/include/c++/9/ostream
DA:113,0
DA:196,0
DA:570,0
LF:3
LH:0
end_of_record
SF:/qulacs-osaka/src/cppsim/exception.hpp
DA:233,0
LF:1
LH:0
end_of_record
SF:/usr/include/c++/9/ext/new_allocator.h
DA:128,0
LF:1
LH:0
end_of_record
SF:/usr/include/c++/9/bits/basic_string.h
DA:160,144
DA:179,24
DA:183,144
DA:193,144
DA:211,24
DA:217,144
DA:222,0
DA:231,0
DA:237,0
DA:247,144
DA:348,144
DA:349,0
DA:451,144
DA:2313,0
DA:6421,0
LF:15
LH:9
end_of_record
SF:/usr/include/c++/9/bits/locale_facets.h
FN:872,_ZNKSt5ctypeIcE5widenEc
FNDA:0,_ZNKSt5ctypeIcE5widenEc
FN:1084,_ZNKSt5ctypeIcE8do_widenEc
FNDA:0,_ZNKSt5ctypeIcE8do_widenEc
FNF:2
FNH:0
DA:872,0
DA:874,0
DA:875,0
DA:876,0
DA:877,0
DA:1084,0
DA:1085,0
LF:7
LH:0
end_of_record
SF:/usr/include/c++/9/streambuf
LF:0
LH:0
end_of_record
SF:/usr/include/c++/9/bits/stl_algo.h
DA:161,0
DA:171,4
DA:566,4
DA:3963,0
LF:4
LH:2
end_of_record
SF:/usr/include/c++/9/bits/stl_iterator.h
DA:829,90513
DA:830,90513
DA:896,4
LF:3
LH:3
end_of_record
SF:/qulacs-osaka/src/cppsim/gate.cpp
FN:11,_ZNK15QuantumGateBase10is_commuteEPKS_
FNDA:32904,_ZNK15QuantumGateBase10is_commuteEPKS_
FN:32,_ZNK15QuantumGateBase8is_PauliEv
FNDA:0,_ZNK15QuantumGateBase8is_PauliEv
FN:35,_ZNK15QuantumGateBase11is_CliffordEv
FNDA:2,_ZNK15QuantumGateBase11is_CliffordEv
FN:38,_ZNK15QuantumGateBase11is_GaussianEv
FNDA:2,_ZNK15QuantumGateBase11is_GaussianEv
FN:41,_ZNK15QuantumGateBase13is_parametricEv
FNDA:85682,_ZNK15QuantumGateBase13is_parametricEv
FN:45,_ZNK15QuantumGateBase11is_diagonalEv
FNDA:4,_ZNK15QuantumGateBase11is_diagonalEv
FN:59,_ZNK15QuantumGateBase18get_property_valueEv
FNDA:6750,_ZNK15QuantumGateBase18get_property_valueEv
FN:63,_ZNK15QuantumGateBase16commute_Pauli_atEjj
FNDA:0,_ZNK15QuantumGateBase16commute_Pauli_atEjj
FN:98,_ZNK15QuantumGateBase9to_stringB5cxx11Ev
FNDA:0,_ZNK15QuantumGateBase9to_stringB5cxx11Ev
FN:127,_ZNK15QuantumGateBase8get_nameB5cxx11Ev
FNDA:144,_ZNK15QuantumGateBase8get_nameB5cxx11Ev
FN:129,_ZlsRSoRK15QuantumGateBase
FNDA:0,_ZlsRSoRK15QuantumGateBase
FN:133,_ZlsRSoPK15QuantumGateBase
FNDA:0,_ZlsRSoPK15QuantumGateBase
FNF:12
FNH:7
DA:11,32904
DA:12,61769
DA:13,98101
DA:15,68155
DA:17,35819
DA:19,6954
DA:22,17885
DA:23,3018
DA:25,1849
DA:29,16425
DA:32,0
DA:33,0
DA:35,2
DA:36,2
DA:38,2
DA:39,2
DA:41,85682
DA:42,85682
DA:45,4
DA:48,4
DA:50,4
DA:59,6750
DA:60,6750
DA:63,0
DA:65,0
DA:66,0
DA:67,0
DA:71,0
DA:72,0
DA:73,0
DA:74,0
DA:75,0
DA:77,0
DA:78,0
DA:80,0
DA:81,0
DA:88,0
DA:89,0
DA:90,0
DA:93,0
DA:98,0
DA:99,0
DA:103,0
DA:107,0
DA:110,0
DA:114,0
DA:116,0
DA:118,0
DA:120,0
DA:122,0
DA:124,0
DA:127,144
DA:129,0
DA:130,0
DA:131,0
DA:133,0
DA:134,0
DA:135,0
LF:58
LH:22
end_of_record
SF:/qulacs-osaka/src/cppsim/qubit_info.hpp
DA:44,8414
DA:96,115057
DA:124,0
DA:133,0
DA:142,0
LF:5
LH:2
end_of_record
SF:/usr/include/c++/9/bits/stl_iterator_base_funcs.h
DA:104,144
LF:1
LH:1
end_of_record
SF:/usr/include/c++/9/sstream
DA:832,0
LF:1
LH:0
end_of_record
SF:/qulacs-osaka/src/cppsim/gate.hpp
FN:270,_ZN15QuantumGateBase8set_seedEi
FNDA:0,_ZN15QuantumGateBase8set_seedEi
FN:271,_ZN15QuantumGateBase27get_cumulative_distributionEv
FNDA:0,_ZN15QuantumGateBase27get_cumulative_distributionEv
FN:272,_ZN15QuantumGateBase13get_gate_listEv
FNDA:0,_ZN15QuantumGateBase13get_gate_listEv
FN:273,_ZN15QuantumGateBase25optimize_ProbablisticGateEv
FNDA:0,_ZN15QuantumGateBase25optimize_ProbablisticGateEv
FNF:4
FNH:0
DA:270,0
DA:271,0
DA:272,0
DA:273,0
LF:4
LH:0
end_of_record
TN:
SF:/qulacs-osaka/include/Eigen/src/Core/util/XprHelper.h
DA:120,1296
LF:1
LH:1
end_of_record
SF:/qulacs-osaka/src/cppsim/utility.hpp
FN:24,_ZL20count_population_cppy
FNDA:12088,_ZL20count_population_cppy
FNF:1
FNH:1
DA:24,12088
DA:25,12088
DA:26,12088
DA:27,12088
DA:28,12088
DA:29,12088
DA:30,12088
DA:31,12088
LF:8
LH:8
end_of_record
SF:/qulacs-osaka/src/cppsim/utility.cpp
FN:9,_Z16get_Pauli_matrixRN5Eigen6MatrixISt7complexIdELin1ELin1ELi1ELin1ELin1EEERKSt6vectorIjSaIjEE
FNDA:648,_Z16get_Pauli_matrixRN5Eigen6MatrixISt7complexIdELin1ELin1ELi1ELin1ELin1EEERKSt6vectorIjSaIjEE
FN:36,_Z5splitRKNSt7__cxx1112basic_stringIcSt11char_traitsIcESaIcEEES6_
FNDA:224,_Z5splitRKNSt7__cxx1112basic_stringIcSt11char_traitsIcESaIcEEES6_
FN:55,_Z5chfmtRNSt7__cxx1112basic_stringIcSt11char_traitsIcESaIcEEE
FNDA:210,_Z5chfmtRNSt7__cxx1112basic_stringIcSt11char_traitsIcESaIcEEE
FN:63,_Z22parse_openfermion_lineNSt7__cxx1112basic_stringIcSt11char_traitsIcESaIcEEE
FNDA:90,_Z22parse_openfermion_lineNSt7__cxx1112basic_stringIcSt11char_traitsIcESaIcEEE
FN:108,_Z26check_is_unique_index_listRKSt6vectorIjSaIjEE
FNDA:1730,_Z26check_is_unique_index_listRKSt6vectorIjSaIjEE
FN:119,_Z5rtrimRNSt7__cxx1112basic_stringIcSt11char_traitsIcESaIcEEE
FNDA:758,_Z5rtrimRNSt7__cxx1112basic_stringIcSt11char_traitsIcESaIcEEE
FNF:6
FNH:6
DA:9,648
DA:11,648
DA:12,648
DA:17,3016
DA:18,2368
DA:19,2368
DA:20,561
DA:21,1807
DA:22,601
DA:23,601
DA:24,601
DA:25,1206
DA:26,551
DA:29,648
DA:30,12736
DA:31,12088
DA:32,12088
DA:34,648
DA:36,224
DA:41,10788
DA:42,10564
DA:43,1604
DA:50,224
DA:52,224
DA:55,210
DA:56,1546
DA:57,1336
DA:58,510
DA:61,210
DA:63,90
DA:70,90
DA:71,90
DA:73,90
DA:74,0
DA:76,0
DA:78,90
DA:83,0
DA:85,0
DA:86,0
DA:89,0
DA:90,0
DA:91,0
DA:92,0
DA:96,0
DA:98,0
DA:102,90
DA:103,90
DA:108,1730
DA:109,1730
DA:110,1730
DA:112,3684
DA:113,1972
DA:114,1972
DA:116,1730
DA:119,758
DA:120,758
DA:121,758
DA:122,758
DA:123,758
LF:59
LH:48
end_of_record
SF:/qulacs-osaka/include/Eigen/src/Core/CoreEvaluators.h
DA:155,648
DA:179,12088
DA:187,209472
DA:472,648
LF:4
LH:4
end_of_record
SF:/usr/lib/gcc/x86_64-linux-gnu/9/include/avxintrin.h
DA:741,209472
DA:868,209472
LF:2
LH:2
end_of_record
SF:/usr/include/c++/9/bits/stl_iterator_base_funcs.h
DA:104,90
LF:1
LH:1
end_of_record
SF:/usr/include/c++/9/bits/alloc_traits.h
DA:470,2378
DA:484,0
DA:497,0
LF:3
LH:1
end_of_record
SF:/usr/include/c++/9/bits/stl_construct.h
DA:107,0
LF:1
LH:0
end_of_record
SF:/usr/include/c++/9/bits/predefined_ops.h
DA:43,100
DA:65,0
DA:90,120
LF:3
LH:2
end_of_record
SF:/usr/include/c++/9/bits/exception.h
DA:63,0
LF:1
LH:0
end_of_record
SF:/usr/include/c++/9/bits/stl_algobase.h
DA:227,0
DA:228,0
DA:586,4
DA:587,4
DA:588,4
LF:5
LH:3
end_of_record
SF:/usr/include/c++/9/tuple
DA:133,90
LF:1
LH:1
end_of_record
SF:/qulacs-osaka/include/Eigen/src/Core/Matrix.h
DA:225,648
LF:1
LH:1
end_of_record
SF:/usr/include/c++/9/bits/stl_vector.h
FN:622,_ZNSt6vectorISt7complexIdESaIS1_EEC2ESt16initializer_listIS1_ERKS2_
FNDA:648,_ZNSt6vectorISt7complexIdESaIS1_EEC2ESt16initializer_listIS1_ERKS2_
FN:650,_ZNSt6vectorIjSaIjEEC2IN9__gnu_cxx17__normal_iteratorIPKjS1_EEvEET_S8_RKS0_
FNDA:1730,_ZNSt6vectorIjSaIjEEC2IN9__gnu_cxx17__normal_iteratorIPKjS1_EEvEET_S8_RKS0_
FN:675,_ZNSt6vectorINSt7__cxx1112basic_stringIcSt11char_traitsIcESaIcEEESaIS5_EED2Ev
FNDA:0,_ZNSt6vectorINSt7__cxx1112basic_stringIcSt11char_traitsIcESaIcEEESaIS5_EED2Ev
FN:1184,_ZNSt6vectorINSt7__cxx1112basic_stringIcSt11char_traitsIcESaIcEEESaIS5_EE9push_backERKS5_
FNDA:1016,_ZNSt6vectorINSt7__cxx1112basic_stringIcSt11char_traitsIcESaIcEEESaIS5_EE9push_backERKS5_
FN:1753,_ZNKSt6vectorINSt7__cxx1112basic_stringIcSt11char_traitsIcESaIcEEESaIS5_EE12_M_check_lenEmPKc
FNDA:0,_ZNKSt6vectorINSt7__cxx1112basic_stringIcSt11char_traitsIcESaIcEEESaIS5_EE12_M_check_lenEmPKc
FNF:5
FNH:3
DA:94,2378
DA:95,224
DA:333,0
DA:334,0
DA:350,1730
DA:622,648
DA:626,648
DA:628,648
DA:650,1730
DA:654,1730
DA:656,1730
DA:675,0
DA:677,648
DA:680,0
DA:916,7348
DA:1043,14060
DA:1061,2368
DA:1184,1016
DA:1186,1016
DA:1191,278
DA:1195,738
DA:1196,1016
DA:1753,0
DA:1755,0
DA:1756,0
DA:1758,0
DA:1759,0
LF:27
LH:18
end_of_record
SF:/usr/include/c++/9/complex
DA:404,12088
DA:457,648
DA:1303,12088
LF:3
LH:3
end_of_record
SF:/usr/include/c++/9/new
DA:57,0
LF:1
LH:0
end_of_record
SF:/usr/include/c++/9/bits/stl_iterator.h
DA:137,758
DA:807,1730
DA:811,758
DA:815,758
DA:829,10664
DA:830,10664
DA:841,120
DA:842,120
DA:860,64
DA:868,0
DA:925,0
DA:992,120
LF:12
LH:10
end_of_record
SF:/usr/include/c++/9/bits/stl_heap.h
FN:214,_ZSt13__adjust_heapIN9__gnu_cxx17__normal_iteratorIPjSt6vectorIjSaIjEEEEljNS0_5__ops15_Iter_less_iterEEvT_T0_SA_T1_T2_
FNDA:0,_ZSt13__adjust_heapIN9__gnu_cxx17__normal_iteratorIPjSt6vectorIjSaIjEEEEljNS0_5__ops15_Iter_less_iterEEvT_T0_SA_T1_T2_
FN:326,_ZSt11__make_heapIN9__gnu_cxx17__normal_iteratorIPjSt6vectorIjSaIjEEEENS0_5__ops15_Iter_less_iterEEvT_S9_RT0_
FNDA:0,_ZSt11__make_heapIN9__gnu_cxx17__normal_iteratorIPjSt6vectorIjSaIjEEEENS0_5__ops15_Iter_less_iterEEvT_S9_RT0_
FNF:2
FNH:0
DA:132,0
DA:133,0
DA:135,0
DA:137,0
DA:139,0
DA:214,0
DA:219,0
DA:221,0
DA:222,0
DA:225,0
DA:228,0
DA:230,0
DA:231,0
DA:239,0
DA:252,0
DA:253,0
DA:326,0
DA:334,0
DA:338,0
DA:339,0
DA:341,0
DA:342,0
DA:344,0
DA:346,0
LF:24
LH:0
end_of_record
SF:/qulacs-osaka/include/Eigen/src/Core/DenseStorage.h
FN:402,_ZN5Eigen12DenseStorageISt7complexIdELin1ELin1ELin1ELi1EE6resizeElll
FNDA:648,_ZN5Eigen12DenseStorageISt7complexIdELin1ELin1ELin1ELi1EE6resizeElll
FNF:1
FNH:1
DA:402,648
DA:404,648
DA:406,648
DA:407,648
DA:408,648
DA:410,0
DA:413,648
DA:414,648
DA:415,648
LF:9
LH:8
end_of_record
SF:/usr/include/c++/9/bits/stl_algo.h
FN:78,_ZSt22__move_median_to_firstIN9__gnu_cxx17__normal_iteratorIPjSt6vectorIjSaIjEEEENS0_5__ops15_Iter_less_iterEEvT_S9_S9_S9_T0_
FNDA:0,_ZSt22__move_median_to_firstIN9__gnu_cxx17__normal_iteratorIPjSt6vectorIjSaIjEEEENS0_5__ops15_Iter_less_iterEEvT_S9_S9_S9_T0_
FN:1667,_ZSt13__heap_selectIN9__gnu_cxx17__normal_iteratorIPjSt6vectorIjSaIjEEEENS0_5__ops15_Iter_less_iterEEvT_S9_S9_T0_
FNDA:0,_ZSt13__heap_selectIN9__gnu_cxx17__normal_iteratorIPjSt6vectorIjSaIjEEEENS0_5__ops15_Iter_less_iterEEvT_S9_S9_T0_
FN:1839,_ZSt16__insertion_sortIN9__gnu_cxx17__normal_iteratorIPjSt6vectorIjSaIjEEEENS0_5__ops15_Iter_less_iterEEvT_S9_T0_
FNDA:60,_ZSt16__insertion_sortIN9__gnu_cxx17__normal_iteratorIPjSt6vectorIjSaIjEEEENS0_5__ops15_Iter_less_iterEEvT_S9_T0_
FN:1879,_ZSt22__final_insertion_sortIN9__gnu_cxx17__normal_iteratorIPjSt6vectorIjSaIjEEEENS0_5__ops15_Iter_less_iterEEvT_S9_T0_
FNDA:60,_ZSt22__final_insertion_sortIN9__gnu_cxx17__normal_iteratorIPjSt6vectorIjSaIjEEEENS0_5__ops15_Iter_less_iterEEvT_S9_T0_
FN:1916,_ZSt27__unguarded_partition_pivotIN9__gnu_cxx17__normal_iteratorIPjSt6vectorIjSaIjEEEENS0_5__ops15_Iter_less_iterEET_S9_S9_T0_
FNDA:0,_ZSt27__unguarded_partition_pivotIN9__gnu_cxx17__normal_iteratorIPjSt6vectorIjSaIjEEEENS0_5__ops15_Iter_less_iterEET_S9_S9_T0_
FN:1939,_ZSt16__introsort_loopIN9__gnu_cxx17__normal_iteratorIPjSt6vectorIjSaIjEEEElNS0_5__ops15_Iter_less_iterEEvT_S9_T0_T1_
FNDA:60,_ZSt16__introsort_loopIN9__gnu_cxx17__normal_iteratorIPjSt6vectorIjSaIjEEEElNS0_5__ops15_Iter_less_iterEEvT_S9_T0_T1_
FNF:6
FNH:3
DA:78,0
DA:81,0
DA:83,0
DA:85,0
DA:90,0
DA:92,0
DA:96,0
DA:1667,0
DA:1671,0
DA:1672,0
DA:1673,0
DA:1675,0
DA:1824,0
DA:1827,120
DA:1829,24
DA:1833,96
DA:1839,60
DA:1842,60
DA:1844,160
DA:1846,100
DA:1851,4
DA:1865,0
DA:1879,60
DA:1882,60
DA:1884,0
DA:1889,60
DA:1890,60
DA:1901,0
DA:1904,0
DA:1906,0
DA:1916,0
DA:1919,0
DA:1920,0
DA:1922,0
DA:1932,0
DA:1933,0
DA:1939,60
DA:1943,60
DA:1945,0
DA:1947,0
DA:1948,0
DA:1950,0
DA:1952,0
DA:1953,0
DA:1954,0
DA:4867,1730
LF:46
LH:15
end_of_record
SF:/usr/include/c++/9/bits/move.h
DA:193,0
DA:194,0
DA:195,0
LF:3
LH:0
end_of_record
SF:/usr/include/x86_64-linux-gnu/bits/string_fortified.h
DA:90,6
LF:1
LH:1
end_of_record
SF:/usr/include/c++/9/bits/vector.tcc
FN:426,_ZNSt6vectorINSt7__cxx1112basic_stringIcSt11char_traitsIcESaIcEEESaIS5_EE17_M_realloc_insertIJRKS5_EEEvN9__gnu_cxx17__normal_iteratorIPS5_S7_EEDpOT_
FNDA:0,_ZNSt6vectorINSt7__cxx1112basic_stringIcSt11char_traitsIcESaIcEEESaIS5_EE17_M_realloc_insertIJRKS5_EEEvN9__gnu_cxx17__normal_iteratorIPS5_S7_EEDpOT_
FNF:1
FNH:0
DA:426,0
DA:435,0
DA:437,0
DA:438,0
DA:440,0
DA:449,0
DA:450,0
DA:464,0
DA:485,0
DA:487,0
DA:493,0
DA:502,0
DA:503,0
DA:504,0
DA:505,0
LF:15
LH:0
end_of_record
SF:/usr/include/c++/9/initializer_list
DA:79,648
LF:1
LH:1
end_of_record
SF:/qulacs-osaka/include/Eigen/src/Core/functors/AssignmentFunctors.h
DA:24,0
LF:1
LH:0
end_of_record
SF:/usr/include/c++/9/bits/basic_string.h
DA:156,90
DA:157,90
DA:159,502
DA:160,592
DA:179,0
DA:183,1918
DA:193,368
DA:203,0
DA:211,0
DA:217,1604
DA:222,314
DA:231,314
DA:237,54
DA:247,458
DA:348,90
DA:349,0
DA:431,224
DA:448,278
DA:451,368
DA:510,90
DA:513,90
DA:525,0
DA:552,0
DA:555,0
DA:563,0
DA:569,0
DA:658,90
DA:827,758
DA:835,224
DA:843,758
DA:851,224
DA:1024,1604
DA:1032,1828
DA:1070,1426
DA:1188,8960
DA:2301,0
LF:36
LH:26
end_of_record
SF:/qulacs-osaka/include/Eigen/src/Core/CwiseNullaryOp.h
DA:78,648
DA:80,648
LF:2
LH:2
end_of_record
SF:/qulacs-osaka/include/Eigen/src/Core/PlainObjectBase.h
FN:279,_ZN5Eigen15PlainObjectBaseINS_6MatrixISt7complexIdELin1ELin1ELi1ELin1ELin1EEEE6resizeEll
FNDA:648,_ZN5Eigen15PlainObjectBaseINS_6MatrixISt7complexIdELin1ELin1ELi1ELin1ELin1EEEE6resizeEll
FNF:1
FNH:1
DA:45,1296
DA:46,648
DA:48,0
DA:151,648
DA:153,1296
DA:256,12736
DA:279,648
DA:293,648
DA:295,648
LF:9
LH:8
end_of_record
SF:/usr/include/c++/9/ext/new_allocator.h
DA:128,2432
LF:1
LH:1
end_of_record
SF:/qulacs-osaka/include/Eigen/src/Core/functors/NullaryFunctors.h
DA:19,1296
DA:23,209472
LF:2
LH:2
end_of_record
SF:/qulacs-osaka/include/Eigen/src/Core/util/Memory.h
FN:67,_ZN5Eigen8internal19throw_std_bad_allocEv
FNDA:0,_ZN5Eigen8internal19throw_std_bad_allocEv
FN:153,_ZN5Eigen8internal14aligned_mallocEm
FNDA:648,_ZN5Eigen8internal14aligned_mallocEm
FN:369,_ZN5Eigen8internal28conditional_aligned_new_autoISt7complexIdELb1EEEPT_m
FNDA:648,_ZN5Eigen8internal28conditional_aligned_new_autoISt7complexIdELb1EEEPT_m
FNF:3
FNH:2
DA:67,0
DA:70,0
DA:88,648
DA:89,648
DA:90,648
DA:91,648
DA:92,648
DA:98,648
DA:153,648
DA:167,648
DA:168,0
DA:170,648
DA:214,648
DA:288,648
DA:289,0
DA:369,648
DA:371,648
DA:374,648
DA:387,648
LF:19
LH:15
end_of_record
SF:/usr/include/c++/9/bits/stl_uninitialized.h
DA:949,0
LF:1
LH:0
end_of_record
SF:/usr/include/c++/9/bits/basic_string.tcc
FN:206,_ZNSt7__cxx1112basic_stringIcSt11char_traitsIcESaIcEE12_M_constructIPcEEvT_S7_St20forward_iterator_tag
FNDA:0,_ZNSt7__cxx1112basic_stringIcSt11char_traitsIcESaIcEE12_M_constructIPcEEvT_S7_St20forward_iterator_tag
FN:206,_ZNSt7__cxx1112basic_stringIcSt11char_traitsIcESaIcEE12_M_constructIPKcEEvT_S8_St20forward_iterator_tag
FNDA:90,_ZNSt7__cxx1112basic_stringIcSt11char_traitsIcESaIcEE12_M_constructIPKcEEvT_S8_St20forward_iterator_tag
FNF:2
FNH:1
DA:206,0
DA:211,0
DA:212,0
DA:215,0
DA:217,0
DA:219,0
DA:220,0
DA:225,0
DA:232,0
DA:233,0
DA:206,90
DA:211,90
DA:212,0
DA:215,90
DA:217,90
DA:219,0
DA:220,0
DA:225,90
DA:232,90
DA:233,90
LF:20
LH:7
end_of_record
SF:/qulacs-osaka/include/Eigen/src/Core/EigenBase.h
DA:66,648
LF:1
LH:1
end_of_record
SF:/usr/include/c++/9/bits/char_traits.h
DA:300,1828
DA:363,90
DA:365,90
LF:3
LH:3
end_of_record
SF:/qulacs-osaka/include/Eigen/src/Core/AssignEvaluator.h
FN:397,_ZN5Eigen8internal21dense_assignment_loopINS0_31generic_dense_assignment_kernelINS0_9evaluatorINS_6MatrixISt7complexIdELin1ELin1ELi1ELin1ELin1EEEEENS3_INS_14CwiseNullaryOpINS0_18scalar_constant_opIS6_EES7_EEEENS0_9assign_opIS6_S6_EELi0EEELi3ELi0EE3runERSG_
FNDA:648,_ZN5Eigen8internal21dense_assignment_loopINS0_31generic_dense_assignment_kernelINS0_9evaluatorINS_6MatrixISt7complexIdELin1ELin1ELi1ELin1ELin1EEEEENS3_INS_14CwiseNullaryOpINS0_18scalar_constant_opIS6_EES7_EEEENS0_9assign_opIS6_S6_EELi0EEELi3ELi0EE3runERSG_
FN:725,_ZN5Eigen8internal26call_dense_assignment_loopINS_6MatrixISt7complexIdELin1ELin1ELi1ELin1ELin1EEENS_14CwiseNullaryOpINS0_18scalar_constant_opIS4_EES5_EENS0_9assign_opIS4_S4_EEEEvRT_RKT0_RKT1_
FNDA:648,_ZN5Eigen8internal26call_dense_assignment_loopINS_6MatrixISt7complexIdELin1ELin1ELi1ELin1ELin1EEENS_14CwiseNullaryOpINS0_18scalar_constant_opIS4_EES5_EENS0_9assign_opIS4_S4_EEEEvRT_RKT0_RKT1_
FNF:2
FNH:2
DA:389,648
DA:390,0
DA:397,648
DA:399,648
DA:411,648
DA:415,210120
DA:416,209472
DA:419,648
DA:610,648
DA:611,648
DA:637,0
DA:658,209472
DA:719,648
DA:720,648
DA:725,648
DA:741,648
DA:742,648
DA:782,648
DA:879,648
LF:19
LH:17
end_of_record
TN:
SF:/usr/lib/gcc/x86_64-linux-gnu/9/include/avxintrin.h
DA:741,0
DA:868,0
LF:2
LH:0
end_of_record
SF:/qulacs-osaka/include/Eigen/src/SparseCore/SparseMatrixBase.h
FN:213,_ZN5EigenlsERSoRKNS_16SparseMatrixBaseINS_12SparseMatrixISt7complexIdELi1EiEEEE
FNDA:0,_ZN5EigenlsERSoRKNS_16SparseMatrixBaseINS_12SparseMatrixISt7complexIdELi1EiEEEE
FN:213,_ZN5EigenlsERSoRKNS_16SparseMatrixBaseINS_12SparseMatrixISt7complexIdELi0EiEEEE
FNDA:0,_ZN5EigenlsERSoRKNS_16SparseMatrixBaseINS_12SparseMatrixISt7complexIdELi0EiEEEE
FNF:2
FNH:0
DA:171,0
DA:173,0
DA:190,0
DA:192,4
DA:213,0
DA:222,0
DA:225,0
DA:227,0
DA:228,0
DA:229,0
DA:230,0
DA:232,0
DA:233,0
DA:259,0
DA:213,0
DA:241,0
DA:243,0
DA:245,0
DA:247,0
DA:248,0
DA:250,0
DA:255,0
DA:256,0
DA:259,0
DA:367,0
LF:25
LH:1
end_of_record
SF:/qulacs-osaka/include/Eigen/src/Core/MapBase.h
DA:90,0
DA:158,0
DA:161,0
LF:3
LH:0
end_of_record
SF:/qulacs-osaka/include/Eigen/src/Core/CoreEvaluators.h
DA:155,0
DA:166,0
DA:179,0
DA:181,0
DA:187,0
DA:359,0
DA:472,0
DA:821,0
DA:822,0
DA:824,0
DA:852,0
LF:11
LH:0
end_of_record
SF:/usr/include/c++/9/sstream
DA:832,0
LF:1
LH:0
end_of_record
SF:/qulacs-osaka/include/Eigen/src/Core/Assign.h
DA:66,0
LF:1
LH:0
end_of_record
SF:/usr/include/c++/9/bits/alloc_traits.h
DA:470,2
DA:484,0
LF:2
LH:1
end_of_record
SF:/usr/include/c++/9/bits/stl_iterator_base_funcs.h
DA:104,2
LF:1
LH:1
end_of_record
SF:/qulacs-osaka/src/cppsim/gate.hpp
FN:92,_ZN15QuantumGateBaseC2Ev
FNDA:2,_ZN15QuantumGateBaseC2Ev
FN:95,_ZN15QuantumGateBaseC2ERKS_
FNDA:0,_ZN15QuantumGateBaseC2ERKS_
FN:109,_ZN15QuantumGateBaseD0Ev
FNDA:0,_ZN15QuantumGateBaseD0Ev
FN:109,_ZN15QuantumGateBaseD2Ev
FNDA:2,_ZN15QuantumGateBaseD2Ev
FN:270,_ZN15QuantumGateBase8set_seedEi
FNDA:0,_ZN15QuantumGateBase8set_seedEi
FN:271,_ZN15QuantumGateBase27get_cumulative_distributionEv
FNDA:0,_ZN15QuantumGateBase27get_cumulative_distributionEv
FN:272,_ZN15QuantumGateBase13get_gate_listEv
FNDA:0,_ZN15QuantumGateBase13get_gate_listEv
FN:273,_ZN15QuantumGateBase25optimize_ProbablisticGateEv
FNDA:0,_ZN15QuantumGateBase25optimize_ProbablisticGateEv
FNF:8
FNH:2
DA:92,2
DA:93,2
DA:94,2
DA:95,0
DA:96,0
DA:97,0
DA:98,0
DA:99,0
DA:100,0
DA:101,0
DA:102,0
DA:109,0
DA:109,2
DA:270,0
DA:271,0
DA:272,0
DA:273,0
LF:17
LH:4
end_of_record
SF:/qulacs-osaka/include/Eigen/src/Core/util/XprHelper.h
DA:34,0
DA:120,0
LF:2
LH:0
end_of_record
SF:/qulacs-osaka/include/Eigen/src/Core/Matrix.h
FN:291,_ZN5Eigen6MatrixIiLin1ELi1ELi0ELin1ELi1EEC2IlEERKT_
FNDA:0,_ZN5Eigen6MatrixIiLin1ELi1ELi0ELin1ELi1EEC2IlEERKT_
FN:291,_ZN5Eigen6MatrixISt7complexIdELin1ELin1ELi0ELin1ELin1EEC2INS_12SparseMatrixIS2_Li0EiEEEERKT_
FNDA:0,_ZN5Eigen6MatrixISt7complexIdELin1ELin1ELi0ELin1ELin1EEC2INS_12SparseMatrixIS2_Li0EiEEEERKT_
FNF:2
FNH:0
DA:178,0
DA:225,0
DA:291,0
DA:294,0
DA:295,0
DA:291,0
DA:292,0
DA:295,0
LF:8
LH:0
end_of_record
SF:/usr/include/c++/9/bits/stl_vector.h
FN:550,_ZNSt6vectorI16ControlQubitInfoSaIS0_EEC2ERKS2_
FNDA:0,_ZNSt6vectorI16ControlQubitInfoSaIS0_EEC2ERKS2_
FN:550,_ZNSt6vectorI15TargetQubitInfoSaIS0_EEC2ERKS2_
FNDA:0,_ZNSt6vectorI15TargetQubitInfoSaIS0_EEC2ERKS2_
FN:1753,_ZNKSt6vectorI16ControlQubitInfoSaIS0_EE12_M_check_lenEmPKc
FNDA:0,_ZNKSt6vectorI16ControlQubitInfoSaIS0_EE12_M_check_lenEmPKc
FN:1753,_ZNKSt6vectorI15TargetQubitInfoSaIS0_EE12_M_check_lenEmPKc
FNDA:0,_ZNKSt6vectorI15TargetQubitInfoSaIS0_EE12_M_check_lenEmPKc
FN:1753,_ZNKSt6vectorIjSaIjEE12_M_check_lenEmPKc
FNDA:0,_ZNKSt6vectorIjSaIjEE12_M_check_lenEmPKc
FNF:5
FNH:0
DA:94,0
DA:95,2
DA:108,0
DA:109,0
DA:110,0
DA:350,0
DA:358,0
DA:359,0
DA:360,0
DA:550,0
DA:552,0
DA:554,0
DA:555,0
DA:558,0
DA:550,0
DA:552,0
DA:554,0
DA:555,0
DA:558,0
DA:677,2
DA:680,2
DA:916,0
DA:997,0
DA:1201,4
DA:1508,0
DA:1753,0
DA:1755,0
DA:1756,0
DA:1758,0
DA:1759,0
DA:1753,0
DA:1755,0
DA:1756,0
DA:1758,0
DA:1759,0
DA:1753,0
DA:1755,0
DA:1756,0
DA:1758,0
DA:1759,0
LF:40
LH:4
end_of_record
SF:/usr/include/c++/9/complex
DA:1234,16
DA:1347,0
DA:1348,0
LF:3
LH:1
end_of_record
SF:/usr/include/c++/9/bits/stl_iterator.h
DA:535,0
DA:829,0
DA:830,4
DA:992,0
LF:4
LH:1
end_of_record
SF:/usr/include/c++/9/new
DA:57,0
LF:1
LH:0
end_of_record
SF:/qulacs-osaka/src/cppsim/qubit_info.hpp
DA:35,4
DA:44,0
DA:71,0
DA:96,0
DA:116,4
LF:5
LH:2
end_of_record
SF:/usr/include/c++/9/bits/exception.h
DA:63,0
LF:1
LH:0
end_of_record
SF:/usr/include/c++/9/bits/stl_algobase.h
DA:203,8
DA:204,8
DA:227,0
DA:228,0
DA:340,0
DA:342,0
DA:343,0
DA:344,0
LF:8
LH:2
end_of_record
SF:/qulacs-osaka/include/Eigen/src/Core/Stride.h
DA:71,0
LF:1
LH:0
end_of_record
SF:/qulacs-osaka/include/Eigen/src/Core/PlainObjectBase.h
FN:279,_ZN5Eigen15PlainObjectBaseINS_6MatrixISt7complexIdELin1ELin1ELi1ELin1ELin1EEEE6resizeEll
FNDA:0,_ZN5Eigen15PlainObjectBaseINS_6MatrixISt7complexIdELin1ELin1ELi1ELin1ELin1EEEE6resizeEll
FN:279,_ZN5Eigen15PlainObjectBaseINS_6MatrixISt7complexIdELin1ELin1ELi0ELin1ELin1EEEE6resizeEll
FNDA:0,_ZN5Eigen15PlainObjectBaseINS_6MatrixISt7complexIdELin1ELin1ELi0ELin1ELin1EEEE6resizeEll
FN:362,_ZN5Eigen15PlainObjectBaseINS_6MatrixISt7complexIdELin1ELin1ELi0ELin1ELin1EEEE10resizeLikeINS_12SparseMatrixIS3_Li0EiEEEEvRKNS_9EigenBaseIT_EE
FNDA:0,_ZN5Eigen15PlainObjectBaseINS_6MatrixISt7complexIdELin1ELin1ELi0ELin1ELin1EEEE10resizeLikeINS_12SparseMatrixIS3_Li0EiEEEEvRKNS_9EigenBaseIT_EE
FNF:3
FNH:0
DA:45,0
DA:46,0
DA:48,0
DA:98,0
DA:151,0
DA:153,0
DA:256,0
DA:279,0
DA:293,0
DA:295,0
DA:279,0
DA:293,0
DA:295,0
DA:319,0
DA:362,0
DA:365,0
DA:377,0
DA:378,0
DA:690,0
DA:781,0
LF:20
LH:0
end_of_record
SF:/usr/include/c++/9/bits/locale_facets.h
FN:872,_ZNKSt5ctypeIcE5widenEc
FNDA:0,_ZNKSt5ctypeIcE5widenEc
FN:1084,_ZNKSt5ctypeIcE8do_widenEc
FNDA:0,_ZNKSt5ctypeIcE8do_widenEc
FNF:2
FNH:0
DA:872,0
DA:874,0
DA:875,0
DA:876,0
DA:877,0
DA:1084,0
DA:1085,0
LF:7
LH:0
end_of_record
SF:/usr/include/c++/9/bits/basic_string.h
DA:179,0
DA:183,2
DA:203,2
DA:211,0
DA:217,2
DA:222,2
DA:231,2
DA:237,0
DA:348,2
DA:349,0
DA:658,2
DA:705,2
DA:1366,0
DA:2313,0
DA:6421,0
LF:15
LH:8
end_of_record
SF:/qulacs-osaka/include/Eigen/src/Core/CwiseNullaryOp.h
FN:499,_ZN5Eigen9DenseBaseINS_6MatrixISt7complexIdELin1ELin1ELi0ELin1ELin1EEEE7setZeroEv
FNDA:0,_ZN5Eigen9DenseBaseINS_6MatrixISt7complexIdELin1ELin1ELi0ELin1ELin1EEEE7setZeroEv
FNF:1
FNH:0
DA:78,0
DA:80,0
DA:327,0
DA:499,0
DA:501,0
LF:5
LH:0
end_of_record
SF:/usr/include/c++/9/ext/new_allocator.h
DA:128,2
LF:1
LH:1
end_of_record
SF:/usr/include/c++/9/bits/move.h
DA:193,4
DA:194,4
DA:195,4
LF:3
LH:3
end_of_record
SF:/usr/include/x86_64-linux-gnu/bits/string_fortified.h
DA:34,12
DA:71,0
LF:2
LH:1
end_of_record
SF:/usr/include/c++/9/streambuf
LF:0
LH:0
end_of_record
SF:/qulacs-osaka/include/Eigen/src/Core/DenseStorage.h
FN:402,_ZN5Eigen12DenseStorageISt7complexIdELin1ELin1ELin1ELi1EE6resizeElll
FNDA:0,_ZN5Eigen12DenseStorageISt7complexIdELin1ELin1ELin1ELi1EE6resizeElll
FN:402,_ZN5Eigen12DenseStorageISt7complexIdELin1ELin1ELin1ELi0EE6resizeElll
FNDA:0,_ZN5Eigen12DenseStorageISt7complexIdELin1ELin1ELin1ELi0EE6resizeElll
FNF:2
FNH:0
DA:344,0
DA:391,0
DA:402,0
DA:404,0
DA:406,0
DA:407,0
DA:408,0
DA:410,0
DA:413,0
DA:414,0
DA:415,0
DA:402,0
DA:404,0
DA:406,0
DA:407,0
DA:408,0
DA:410,0
DA:413,0
DA:414,0
DA:415,0
DA:500,0
DA:542,0
LF:22
LH:0
end_of_record
SF:/qulacs-osaka/include/Eigen/src/SparseCore/SparseCompressedBase.h
DA:90,0
DA:100,4
DA:167,0
DA:168,0
DA:169,0
DA:171,0
DA:173,0
DA:187,0
DA:189,0
DA:190,0
DA:192,0
DA:194,0
LF:12
LH:1
end_of_record
SF:/usr/include/c++/9/bits/stl_algo.h
DA:4336,0
DA:4337,0
LF:2
LH:0
end_of_record
SF:/qulacs-osaka/include/Eigen/src/SparseCore/CompressedStorage.h
FN:51,_ZN5Eigen8internal17CompressedStorageISt7complexIdEiEaSERKS4_
FNDA:4,_ZN5Eigen8internal17CompressedStorageISt7complexIdEiEaSERKS4_
FN:70,_ZN5Eigen8internal17CompressedStorageISt7complexIdEiED2Ev
FNDA:4,_ZN5Eigen8internal17CompressedStorageISt7complexIdEiED2Ev
FN:89,_ZN5Eigen8internal17CompressedStorageISt7complexIdEiE6resizeEld
FNDA:4,_ZN5Eigen8internal17CompressedStorageISt7complexIdEiE6resizeEld
FN:228,_ZN5Eigen8internal17CompressedStorageISt7complexIdEiE10reallocateEl
FNDA:4,_ZN5Eigen8internal17CompressedStorageISt7complexIdEiE10reallocateEl
FNF:4
FNH:4
DA:35,4
DA:36,4
DA:51,4
DA:53,4
DA:54,4
DA:56,4
DA:57,4
DA:59,4
DA:70,4
DA:72,4
DA:73,4
DA:74,4
DA:78,0
DA:79,0
DA:80,0
DA:89,4
DA:91,4
DA:93,4
DA:94,4
DA:95,0
DA:96,4
DA:98,4
DA:99,4
DA:111,6
DA:118,0
DA:121,0
DA:228,4
DA:234,4
DA:235,4
DA:236,4
DA:237,4
DA:238,0
DA:239,0
DA:243,4
DA:244,4
LF:35
LH:27
end_of_record
SF:/qulacs-osaka/include/Eigen/src/Core/functors/AssignmentFunctors.h
DA:24,0
LF:1
LH:0
end_of_record
SF:/usr/include/c++/9/bits/vector.tcc
FN:109,_ZNSt6vectorIjSaIjEE12emplace_backIJjEEEvDpOT_
FNDA:0,_ZNSt6vectorIjSaIjEE12emplace_backIJjEEEvDpOT_
FN:109,_ZNSt6vectorI16ControlQubitInfoSaIS0_EE12emplace_backIJS0_EEEvDpOT_
FNDA:0,_ZNSt6vectorI16ControlQubitInfoSaIS0_EE12emplace_backIJS0_EEEvDpOT_
FN:109,_ZNSt6vectorI15TargetQubitInfoSaIS0_EE12emplace_backIJS0_EEEvDpOT_
FNDA:4,_ZNSt6vectorI15TargetQubitInfoSaIS0_EE12emplace_backIJS0_EEEvDpOT_
FN:198,_ZNSt6vectorI16ControlQubitInfoSaIS0_EEaSERKS2_
FNDA:0,_ZNSt6vectorI16ControlQubitInfoSaIS0_EEaSERKS2_
FN:198,_ZNSt6vectorI15TargetQubitInfoSaIS0_EEaSERKS2_
FNDA:0,_ZNSt6vectorI15TargetQubitInfoSaIS0_EEaSERKS2_
FN:426,_ZNSt6vectorIjSaIjEE17_M_realloc_insertIJjEEEvN9__gnu_cxx17__normal_iteratorIPjS1_EEDpOT_
FNDA:0,_ZNSt6vectorIjSaIjEE17_M_realloc_insertIJjEEEvN9__gnu_cxx17__normal_iteratorIPjS1_EEDpOT_
FN:426,_ZNSt6vectorI16ControlQubitInfoSaIS0_EE17_M_realloc_insertIJS0_EEEvN9__gnu_cxx17__normal_iteratorIPS0_S2_EEDpOT_
FNDA:0,_ZNSt6vectorI16ControlQubitInfoSaIS0_EE17_M_realloc_insertIJS0_EEEvN9__gnu_cxx17__normal_iteratorIPS0_S2_EEDpOT_
FN:426,_ZNSt6vectorI15TargetQubitInfoSaIS0_EE17_M_realloc_insertIJS0_EEEvN9__gnu_cxx17__normal_iteratorIPS0_S2_EEDpOT_
FNDA:0,_ZNSt6vectorI15TargetQubitInfoSaIS0_EE17_M_realloc_insertIJS0_EEEvN9__gnu_cxx17__normal_iteratorIPS0_S2_EEDpOT_
FNF:8
FNH:1
DA:109,0
DA:112,0
DA:115,0
DA:117,0
DA:121,0
DA:125,0
DA:109,0
DA:112,0
DA:117,0
DA:121,0
DA:125,0
DA:109,4
DA:112,4
DA:117,0
DA:121,4
DA:125,4
DA:198,0
DA:201,0
DA:223,0
DA:224,0
DA:228,0
DA:233,0
DA:234,0
DA:236,0
DA:243,0
DA:250,0
DA:252,0
DA:198,0
DA:201,0
DA:223,0
DA:224,0
DA:228,0
DA:233,0
DA:234,0
DA:236,0
DA:243,0
DA:250,0
DA:252,0
DA:426,0
DA:435,0
DA:437,0
DA:438,0
DA:440,0
DA:449,0
DA:450,0
DA:464,0
DA:502,0
DA:503,0
DA:504,0
DA:505,0
DA:426,0
DA:435,0
DA:437,0
DA:438,0
DA:440,0
DA:449,0
DA:450,0
DA:464,0
DA:502,0
DA:503,0
DA:504,0
DA:505,0
DA:426,0
DA:435,0
DA:437,0
DA:438,0
DA:440,0
DA:449,0
DA:450,0
DA:464,0
DA:502,0
DA:503,0
DA:504,0
DA:505,0
LF:74
LH:4
end_of_record
SF:/usr/lib/gcc/x86_64-linux-gnu/9/include/emmintrin.h
DA:604,0
DA:721,0
LF:2
LH:0
end_of_record
SF:/qulacs-osaka/include/Eigen/src/SparseCore/SparseMatrix.h
FN:251,_ZN5Eigen12SparseMatrixISt7complexIdELi0EiE7setZeroEv
FNDA:0,_ZN5Eigen12SparseMatrixISt7complexIdELi0EiE7setZeroEv
FN:390,_ZN5Eigen12SparseMatrixISt7complexIdELi0EiE22insertBackByOuterInnerEll
FNDA:0,_ZN5Eigen12SparseMatrixISt7complexIdELi0EiE22insertBackByOuterInnerEll
FN:422,_ZN5Eigen12SparseMatrixISt7complexIdELi0EiE8finalizeEv
FNDA:0,_ZN5Eigen12SparseMatrixISt7complexIdELi0EiE8finalizeEv
FN:621,_ZN5Eigen12SparseMatrixISt7complexIdELi1EiE6resizeEll
FNDA:0,_ZN5Eigen12SparseMatrixISt7complexIdELi1EiE6resizeEll
FN:621,_ZN5Eigen12SparseMatrixISt7complexIdELi0EiE6resizeEll
FNDA:6,_ZN5Eigen12SparseMatrixISt7complexIdELi0EiE6resizeEll
FN:659,_ZN5Eigen12SparseMatrixISt7complexIdELi0EiEC2Ev
FNDA:2,_ZN5Eigen12SparseMatrixISt7complexIdELi0EiEC2Ev
FN:667,_ZN5Eigen12SparseMatrixISt7complexIdELi0EiEC2Ell
FNDA:0,_ZN5Eigen12SparseMatrixISt7complexIdELi0EiEC2Ell
FN:667,_ZN5Eigen12SparseMatrixISt7complexIdELi1EiEC2Ell
FNDA:0,_ZN5Eigen12SparseMatrixISt7complexIdELi1EiEC2Ell
FN:676,_ZN5Eigen12SparseMatrixISt7complexIdELi1EiEC2INS0_IS2_Li0EiEEEERKNS_16SparseMatrixBaseIT_EE
FNDA:0,_ZN5Eigen12SparseMatrixISt7complexIdELi1EiEC2INS0_IS2_Li0EiEEEERKNS_16SparseMatrixBaseIT_EE
FN:704,_ZN5Eigen12SparseMatrixISt7complexIdELi0EiEC2ERKS3_
FNDA:2,_ZN5Eigen12SparseMatrixISt7complexIdELi0EiEC2ERKS3_
FN:754,_ZN5Eigen12SparseMatrixISt7complexIdELi0EiEaSERKS3_
FNDA:4,_ZN5Eigen12SparseMatrixISt7complexIdELi0EiEaSERKS3_
FN:834,_ZN5Eigen12SparseMatrixISt7complexIdELi1EiED2Ev
FNDA:0,_ZN5Eigen12SparseMatrixISt7complexIdELi1EiED2Ev
FN:834,_ZN5Eigen12SparseMatrixISt7complexIdELi0EiED2Ev
FNDA:4,_ZN5Eigen12SparseMatrixISt7complexIdELi0EiED2Ev
FN:850,_ZN5Eigen12SparseMatrixISt7complexIdELi0EiE14initAssignmentIS3_EEvRKT_
FNDA:4,_ZN5Eigen12SparseMatrixISt7complexIdELi0EiE14initAssignmentIS3_EEvRKT_
FN:1057,_ZN5Eigen12SparseMatrixISt7complexIdELi1EiEaSINS0_IS2_Li0EiEEEERS3_RKNS_16SparseMatrixBaseIT_EE
FNDA:0,_ZN5Eigen12SparseMatrixISt7complexIdELi1EiEaSINS0_IS2_Li0EiEEEERS3_RKNS_16SparseMatrixBaseIT_EE
FNF:15
FNH:6
DA:148,0
DA:157,0
DA:251,0
DA:254,0
DA:255,0
DA:256,0
DA:257,0
DA:265,0
DA:390,0
DA:394,0
DA:395,0
DA:396,0
DA:397,0
DA:416,0
DA:422,0
DA:424,0
DA:426,0
DA:427,0
DA:429,0
DA:430,0
DA:431,0
DA:432,0
DA:434,0
DA:435,0
DA:438,0
DA:621,0
DA:624,0
DA:626,0
DA:628,0
DA:629,0
DA:630,0
DA:632,0
DA:634,0
DA:636,0
DA:637,0
DA:639,0
DA:640,0
DA:621,6
DA:624,6
DA:626,6
DA:628,6
DA:629,6
DA:630,6
DA:632,6
DA:634,6
DA:636,0
DA:637,0
DA:639,6
DA:640,6
DA:659,2
DA:660,2
DA:663,2
DA:664,2
DA:667,0
DA:668,0
DA:671,0
DA:672,0
DA:667,0
DA:668,0
DA:671,0
DA:672,0
DA:676,0
DA:677,0
DA:684,0
DA:692,0
DA:704,2
DA:705,2
DA:708,2
DA:709,2
DA:740,0
DA:754,4
DA:756,4
DA:760,4
DA:765,4
DA:766,4
DA:768,4
DA:769,4
DA:776,4
DA:829,0
DA:834,0
DA:836,0
DA:837,0
DA:838,0
DA:834,4
DA:836,4
DA:837,4
DA:838,4
DA:850,4
DA:852,4
DA:853,4
DA:855,0
DA:856,0
DA:858,4
DA:1057,0
DA:1082,0
DA:1083,0
DA:1087,0
DA:1088,0
DA:1089,0
DA:1093,0
DA:1094,0
DA:1096,0
DA:1097,0
DA:1098,0
DA:1099,0
DA:1101,0
DA:1103,0
DA:1105,0
DA:1107,0
DA:1109,0
DA:1110,0
DA:1111,0
LF:112
LH:34
end_of_record
SF:/qulacs-osaka/src/cppsim/gate_matrix_sparse.hpp
FN:73,_ZN23QuantumGateSparseMatrixD0Ev
FNDA:2,_ZN23QuantumGateSparseMatrixD0Ev
FN:73,_ZN23QuantumGateSparseMatrixD2Ev
FNDA:0,_ZN23QuantumGateSparseMatrixD2Ev
FN:90,_ZN23QuantumGateSparseMatrix15multiply_scalarESt7complexIdE
FNDA:0,_ZN23QuantumGateSparseMatrix15multiply_scalarESt7complexIdE
FN:97,_ZN23QuantumGateSparseMatrix17set_gate_propertyEj
FNDA:0,_ZN23QuantumGateSparseMatrix17set_gate_propertyEj
FN:113,_ZNK23QuantumGateSparseMatrix4copyEv
FNDA:0,_ZNK23QuantumGateSparseMatrix4copyEv
FN:122,_ZNK23QuantumGateSparseMatrix10set_matrixERN5Eigen6MatrixISt7complexIdELin1ELin1ELi1ELin1ELin1EEE
FNDA:0,_ZNK23QuantumGateSparseMatrix10set_matrixERN5Eigen6MatrixISt7complexIdELin1ELin1ELi1ELin1ELin1EEE
FNF:6
FNH:1
DA:73,2
DA:73,0
DA:90,0
DA:97,0
DA:98,0
DA:99,0
DA:113,0
DA:114,0
DA:122,0
DA:123,0
DA:124,0
LF:11
LH:1
end_of_record
SF:/qulacs-osaka/include/Eigen/src/Core/util/Memory.h
FN:67,_ZN5Eigen8internal19throw_std_bad_allocEv
FNDA:0,_ZN5Eigen8internal19throw_std_bad_allocEv
FN:153,_ZN5Eigen8internal14aligned_mallocEm
FNDA:0,_ZN5Eigen8internal14aligned_mallocEm
FN:369,_ZN5Eigen8internal28conditional_aligned_new_autoIiLb1EEEPT_m
FNDA:0,_ZN5Eigen8internal28conditional_aligned_new_autoIiLb1EEEPT_m
FN:369,_ZN5Eigen8internal28conditional_aligned_new_autoISt7complexIdELb1EEEPT_m
FNDA:0,_ZN5Eigen8internal28conditional_aligned_new_autoISt7complexIdELb1EEEPT_m
FN:587,_ZN5Eigen8internal12scoped_arrayIiEC2El
FNDA:4,_ZN5Eigen8internal12scoped_arrayIiEC2El
FN:587,_ZN5Eigen8internal12scoped_arrayISt7complexIdEEC2El
FNDA:4,_ZN5Eigen8internal12scoped_arrayISt7complexIdEEC2El
FNF:6
FNH:2
DA:67,0
DA:70,0
DA:88,0
DA:89,0
DA:90,0
DA:91,0
DA:92,0
DA:98,0
DA:153,0
DA:167,0
DA:168,0
DA:170,0
DA:214,0
DA:288,0
DA:289,0
DA:369,0
DA:371,0
DA:374,0
DA:387,0
DA:369,0
DA:371,0
DA:374,0
DA:387,0
DA:451,0
DA:459,0
DA:460,0
DA:493,12
DA:494,12
DA:496,12
DA:587,4
DA:589,4
DA:590,4
DA:587,4
DA:589,20
DA:590,4
DA:593,4
DA:594,4
LF:37
LH:11
end_of_record
SF:/usr/include/c++/9/iostream
LF:0
LH:0
end_of_record
SF:/usr/include/c++/9/bits/basic_string.tcc
FN:206,_ZNSt7__cxx1112basic_stringIcSt11char_traitsIcESaIcEE12_M_constructIPKcEEvT_S8_St20forward_iterator_tag
FNDA:2,_ZNSt7__cxx1112basic_stringIcSt11char_traitsIcESaIcEE12_M_constructIPKcEEvT_S8_St20forward_iterator_tag
FNF:1
FNH:1
DA:206,2
DA:211,2
DA:212,0
DA:215,2
DA:217,2
DA:219,0
DA:220,0
DA:225,2
DA:232,2
DA:233,2
LF:10
LH:7
end_of_record
SF:/qulacs-osaka/include/Eigen/src/Core/EigenBase.h
DA:66,0
LF:1
LH:0
end_of_record
SF:/usr/include/c++/9/bits/char_traits.h
DA:300,0
DA:363,2
DA:365,2
LF:3
LH:2
end_of_record
SF:/qulacs-osaka/include/Eigen/src/Core/AssignEvaluator.h
FN:322,_ZN5Eigen8internal21dense_assignment_loopINS0_31generic_dense_assignment_kernelINS0_9evaluatorINS_6MatrixISt7complexIdELin1ELin1ELi1ELin1ELin1EEEEENS3_INS4_IS6_Lin1ELin1ELi0ELin1ELin1EEEEENS0_9assign_opIS6_S6_EELi0EEELi0ELi0EE3runERSD_
FNDA:0,_ZN5Eigen8internal21dense_assignment_loopINS0_31generic_dense_assignment_kernelINS0_9evaluatorINS_6MatrixISt7complexIdELin1ELin1ELi1ELin1ELin1EEEEENS3_INS4_IS6_Lin1ELin1ELi0ELin1ELin1EEEEENS0_9assign_opIS6_S6_EELi0EEELi0ELi0EE3runERSD_
FN:397,_ZN5Eigen8internal21dense_assignment_loopINS0_31generic_dense_assignment_kernelINS0_9evaluatorINS_6MatrixISt7complexIdELin1ELin1ELi0ELin1ELin1EEEEENS3_INS_14CwiseNullaryOpINS0_18scalar_constant_opIS6_EES7_EEEENS0_9assign_opIS6_S6_EELi0EEELi3ELi0EE3runERSG_
FNDA:0,_ZN5Eigen8internal21dense_assignment_loopINS0_31generic_dense_assignment_kernelINS0_9evaluatorINS_6MatrixISt7complexIdELin1ELin1ELi0ELin1ELin1EEEEENS3_INS_14CwiseNullaryOpINS0_18scalar_constant_opIS6_EES7_EEEENS0_9assign_opIS6_S6_EELi0EEELi3ELi0EE3runERSG_
FN:397,_ZN5Eigen8internal21dense_assignment_loopINS0_31generic_dense_assignment_kernelINS0_9evaluatorINS_3MapINS_6MatrixIiLin1ELi1ELi0ELin1ELi1EEELi0ENS_6StrideILi0ELi0EEEEEEENS3_INS_14CwiseNullaryOpINS0_18scalar_constant_opIiEES6_EEEENS0_9assign_opIiiEELi0EEELi3ELi0EE3runERSI_
FNDA:0,_ZN5Eigen8internal21dense_assignment_loopINS0_31generic_dense_assignment_kernelINS0_9evaluatorINS_3MapINS_6MatrixIiLin1ELi1ELi0ELin1ELi1EEELi0ENS_6StrideILi0ELi0EEEEEEENS3_INS_14CwiseNullaryOpINS0_18scalar_constant_opIiEES6_EEEENS0_9assign_opIiiEELi0EEELi3ELi0EE3runERSI_
FN:725,_ZN5Eigen8internal26call_dense_assignment_loopINS_6MatrixISt7complexIdELin1ELin1ELi0ELin1ELin1EEENS_14CwiseNullaryOpINS0_18scalar_constant_opIS4_EES5_EENS0_9assign_opIS4_S4_EEEEvRT_RKT0_RKT1_
FNDA:0,_ZN5Eigen8internal26call_dense_assignment_loopINS_6MatrixISt7complexIdELin1ELin1ELi0ELin1ELin1EEENS_14CwiseNullaryOpINS0_18scalar_constant_opIS4_EES5_EENS0_9assign_opIS4_S4_EEEEvRT_RKT0_RKT1_
FN:725,_ZN5Eigen8internal26call_dense_assignment_loopINS_6MatrixISt7complexIdELin1ELin1ELi1ELin1ELin1EEENS2_IS4_Lin1ELin1ELi0ELin1ELin1EEENS0_9assign_opIS4_S4_EEEEvRT_RKT0_RKT1_
FNDA:0,_ZN5Eigen8internal26call_dense_assignment_loopINS_6MatrixISt7complexIdELin1ELin1ELi1ELin1ELin1EEENS2_IS4_Lin1ELin1ELi0ELin1ELin1EEENS0_9assign_opIS4_S4_EEEEvRT_RKT0_RKT1_
FN:780,_ZN5Eigen8internal15call_assignmentINS_3MapINS_6MatrixIiLin1ELi1ELi0ELin1ELi1EEELi0ENS_6StrideILi0ELi0EEEEENS_14CwiseNullaryOpINS0_18scalar_constant_opIiEES4_EEEEvRT_RKT0_
FNDA:0,_ZN5Eigen8internal15call_assignmentINS_3MapINS_6MatrixIiLin1ELi1ELi0ELin1ELi1EEELi0ENS_6StrideILi0ELi0EEEEENS_14CwiseNullaryOpINS0_18scalar_constant_opIiEES4_EEEEvRT_RKT0_
FNF:6
FNH:0
DA:322,0
DA:324,0
DA:325,0
DA:329,0
DA:389,0
DA:390,0
DA:397,0
DA:399,0
DA:411,0
DA:415,0
DA:416,0
DA:419,0
DA:397,0
DA:399,0
DA:411,0
DA:415,0
DA:416,0
DA:419,0
DA:610,0
DA:611,0
DA:637,0
DA:645,0
DA:658,0
DA:689,0
DA:717,0
DA:718,0
DA:719,0
DA:720,0
DA:725,0
DA:741,0
DA:742,0
DA:725,0
DA:741,0
DA:742,0
DA:741,0
DA:780,0
DA:782,0
DA:783,0
DA:836,0
DA:879,0
LF:40
LH:0
end_of_record
SF:/usr/include/c++/9/bits/stl_uninitialized.h
DA:82,0
DA:83,0
DA:927,0
DA:928,0
DA:929,0
DA:930,0
DA:949,0
LF:7
LH:0
end_of_record
SF:/qulacs-osaka/include/Eigen/src/SparseCore/SparseAssign.h
FN:71,_ZN5Eigen8internal23assign_sparse_to_sparseINS_12SparseMatrixISt7complexIdELi0EiEES5_EEvRT_RKT0_
FNDA:0,_ZN5Eigen8internal23assign_sparse_to_sparseINS_12SparseMatrixISt7complexIdELi0EiEES5_EEvRT_RKT0_
FN:140,_ZN5Eigen8internal10AssignmentINS_6MatrixISt7complexIdELin1ELin1ELi0ELin1ELin1EEENS_12SparseMatrixIS4_Li0EiEENS0_9assign_opIS4_S4_EENS0_12Sparse2DenseEvE3runERS5_RKS7_RKS9_
FNDA:0,_ZN5Eigen8internal10AssignmentINS_6MatrixISt7complexIdELin1ELin1ELi0ELin1ELin1EEENS_12SparseMatrixIS4_Li0EiEENS0_9assign_opIS4_S4_EENS0_12Sparse2DenseEvE3runERS5_RKS7_RKS9_
FNF:2
FNH:0
DA:46,0
DA:71,0
DA:80,0
DA:81,0
DA:84,0
DA:85,0
DA:86,0
DA:87,0
DA:89,0
DA:90,0
DA:92,0
DA:93,0
DA:96,0
DA:108,0
DA:110,0
DA:111,0
DA:113,0
DA:114,0
DA:116,0
DA:117,0
DA:120,0
DA:122,0
DA:124,0
DA:132,0
DA:140,0
DA:143,0
DA:149,0
DA:150,0
DA:151,0
DA:153,0
LF:30
LH:0
end_of_record
SF:/qulacs-osaka/src/cppsim/exception.hpp
DA:21,0
LF:1
LH:0
end_of_record
SF:/qulacs-osaka/include/Eigen/src/Core/functors/NullaryFunctors.h
DA:19,0
DA:23,0
LF:2
LH:0
end_of_record
SF:/qulacs-osaka/src/cppsim/gate_matrix_sparse.cpp
FN:18,_ZN23QuantumGateSparseMatrixC2ERKSt6vectorIjSaIjEERKN5Eigen12SparseMatrixISt7complexIdELi0EiEES4_
FNDA:2,_ZN23QuantumGateSparseMatrixC2ERKSt6vectorIjSaIjEERKN5Eigen12SparseMatrixISt7complexIdELi0EiEES4_
FN:31,_ZN23QuantumGateSparseMatrixC2ERKSt6vectorI15TargetQubitInfoSaIS1_EERKN5Eigen12SparseMatrixISt7complexIdELi0EiEERKS0_I16ControlQubitInfoSaISD_EE
FNDA:0,_ZN23QuantumGateSparseMatrixC2ERKSt6vectorI15TargetQubitInfoSaIS1_EERKN5Eigen12SparseMatrixISt7complexIdELi0EiEERKS0_I16ControlQubitInfoSaISD_EE
FN:45,_ZN23QuantumGateSparseMatrixC2ERKSt6vectorIjSaIjEEPN5Eigen12SparseMatrixISt7complexIdELi0EiEES4_
FNDA:0,_ZN23QuantumGateSparseMatrixC2ERKSt6vectorIjSaIjEEPN5Eigen12SparseMatrixISt7complexIdELi0EiEES4_
FN:58,_ZN23QuantumGateSparseMatrixC2ERKSt6vectorI15TargetQubitInfoSaIS1_EEPN5Eigen12SparseMatrixISt7complexIdELi0EiEERKS0_I16ControlQubitInfoSaISC_EE
FNDA:0,_ZN23QuantumGateSparseMatrixC2ERKSt6vectorI15TargetQubitInfoSaIS1_EEPN5Eigen12SparseMatrixISt7complexIdELi0EiEERKS0_I16ControlQubitInfoSaISC_EE
FN:70,_ZN23QuantumGateSparseMatrix20update_quantum_stateEP16QuantumStateBase
FNDA:0,_ZN23QuantumGateSparseMatrix20update_quantum_stateEP16QuantumStateBase
FN:105,_ZN23QuantumGateSparseMatrix17add_control_qubitEjj
FNDA:0,_ZN23QuantumGateSparseMatrix17add_control_qubitEjj
FN:113,_ZNK23QuantumGateSparseMatrix9to_stringB5cxx11Ev
FNDA:0,_ZNK23QuantumGateSparseMatrix9to_stringB5cxx11Ev
FN:121,_ZlsRSoRK23QuantumGateSparseMatrix
FNDA:0,_ZlsRSoRK23QuantumGateSparseMatrix
FN:126,_ZlsRSoP23QuantumGateSparseMatrix
FNDA:0,_ZlsRSoP23QuantumGateSparseMatrix
FNF:9
FNH:1
DA:18,2
DA:21,2
DA:22,6
DA:23,4
DA:25,2
DA:26,0
DA:28,2
DA:29,2
DA:30,2
DA:31,0
DA:34,0
DA:36,0
DA:38,0
DA:39,0
DA:40,0
DA:41,0
DA:45,0
DA:48,0
DA:49,0
DA:50,0
DA:52,0
DA:53,0
DA:56,0
DA:57,0
DA:58,0
DA:61,0
DA:63,0
DA:65,0
DA:67,0
DA:68,0
DA:70,0
DA:71,0
DA:73,0
DA:75,0
DA:81,0
DA:83,0
DA:94,0
DA:95,0
DA:101,0
DA:103,0
DA:105,0
DA:107,0
DA:108,0
DA:109,0
DA:110,0
DA:111,0
DA:113,0
DA:114,0
DA:115,0
DA:118,0
DA:121,0
DA:123,0
DA:124,0
DA:126,0
DA:127,0
DA:128,0
LF:56
LH:8
end_of_record
SF:/usr/include/c++/9/ostream
DA:113,0
DA:570,0
LF:2
LH:0
end_of_record
SF:/qulacs-osaka/include/Eigen/src/SparseCore/SparseCwiseUnaryOp.h
FN:124,_ZN5Eigen16SparseMatrixBaseINS_12SparseMatrixISt7complexIdELi0EiEEEmLERKS3_
FNDA:0,_ZN5Eigen16SparseMatrixBaseINS_12SparseMatrixISt7complexIdELi0EiEEEmLERKS3_
FNF:1
FNH:0
DA:124,0
DA:128,0
DA:129,0
DA:131,0
LF:4
LH:0
end_of_record
SF:/qulacs-osaka/src/cppsim/state.hpp
FN:66,_ZNK16QuantumStateBase15is_state_vectorEv
FNDA:0,_ZNK16QuantumStateBase15is_state_vectorEv
FN:582,_ZNK15QuantumStateCpu6data_cEv
FNDA:0,_ZNK15QuantumStateCpu6data_cEv
FNF:2
FNH:0
DA:66,0
DA:582,0
DA:583,0
LF:3
LH:0
end_of_record
TN:
SF:/usr/include/c++/9/bits/stl_algobase.h
DA:227,2278
DA:228,152
DA:340,294443
DA:342,0
DA:343,165920
DA:344,0
DA:384,1131
DA:385,1131
DA:386,1009
DA:387,0
DA:565,0
DA:586,21643
DA:587,21643
DA:588,21643
DA:713,0
DA:714,0
DA:770,1265
DA:771,2695
DA:772,1265
DA:974,0
DA:976,0
DA:979,0
DA:983,0
LF:23
LH:13
end_of_record
SF:/usr/include/c++/9/bits/exception.h
DA:63,0
LF:1
LH:0
end_of_record
SF:/qulacs-osaka/include/Eigen/src/Core/IO.h
FN:53,_ZN5Eigen8IOFormatC2EiiRKNSt7__cxx1112basic_stringIcSt11char_traitsIcESaIcEEES8_S8_S8_S8_S8_
FNDA:0,_ZN5Eigen8IOFormatC2EiiRKNSt7__cxx1112basic_stringIcSt11char_traitsIcESaIcEEES8_S8_S8_S8_S8_
FN:129,_ZN5Eigen8internal12print_matrixINS_6MatrixISt7complexIdELin1ELi1ELi0ELin1ELi1EEEEERSoS6_RKT_RKNS_8IOFormatE
FNDA:0,_ZN5Eigen8internal12print_matrixINS_6MatrixISt7complexIdELin1ELi1ELi0ELin1ELi1EEEEERSoS6_RKT_RKNS_8IOFormatE
FN:216,_ZN5EigenlsINS_6MatrixISt7complexIdELin1ELi1ELi0ELin1ELi1EEEEERSoS5_RKNS_9DenseBaseIT_EE
FNDA:0,_ZN5EigenlsINS_6MatrixISt7complexIdELin1ELi1ELi0ELin1ELi1EEEEERSoS5_RKNS_9DenseBaseIT_EE
FNF:3
FNH:0
DA:53,0
DA:57,0
DA:58,0
DA:62,0
DA:64,0
DA:65,0
DA:68,0
DA:129,0
DA:131,0
DA:134,0
DA:140,0
DA:143,0
DA:147,0
DA:160,0
DA:164,0
DA:166,0
DA:167,0
DA:170,0
DA:171,0
DA:173,0
DA:174,0
DA:175,0
DA:176,0
DA:180,0
DA:182,0
DA:185,0
DA:186,0
DA:194,0
DA:198,0
DA:216,0
DA:220,0
LF:31
LH:0
end_of_record
SF:/qulacs-osaka/src/cppsim/qubit_info.hpp
DA:44,9665
DA:96,161717
LF:2
LH:2
end_of_record
SF:/usr/include/c++/9/bits/predefined_ops.h
DA:43,188913
DA:65,0
DA:90,56936
LF:3
LH:2
end_of_record
SF:/usr/include/c++/9/bits/stl_construct.h
DA:75,122
DA:107,148
LF:2
LH:2
end_of_record
SF:/usr/include/c++/9/complex
DA:684,0
DA:1234,0
DA:1252,0
DA:1256,0
DA:1282,0
DA:1348,0
LF:6
LH:0
end_of_record
SF:/usr/include/c++/9/bits/stl_iterator.h
DA:137,0
DA:143,0
DA:144,0
DA:179,0
DA:207,0
DA:231,0
DA:232,0
DA:255,0
DA:418,0
DA:515,275196
DA:535,171382
DA:807,45701
DA:829,171382
DA:830,192202
DA:841,0
DA:842,56936
DA:856,0
DA:860,119375
DA:868,0
DA:896,465
DA:910,237799
DA:925,0
DA:992,195464
LF:23
LH:10
end_of_record
SF:/usr/include/c++/9/new
DA:57,0
LF:1
LH:0
end_of_record
SF:/qulacs-osaka/src/cppsim/gate_general.hpp
FN:24,_ZN25QuantumGate_ProbabilisticC2ESt6vectorIdSaIdEES0_IP15QuantumGateBaseSaIS4_EE
FNDA:0,_ZN25QuantumGate_ProbabilisticC2ESt6vectorIdSaIdEES0_IP15QuantumGateBaseSaIS4_EE
FN:40,_ZN25QuantumGate_ProbabilisticD2Ev
FNDA:0,_ZN25QuantumGate_ProbabilisticD2Ev
FN:40,_ZN25QuantumGate_ProbabilisticD0Ev
FNDA:0,_ZN25QuantumGate_ProbabilisticD0Ev
FN:51,_ZN25QuantumGate_Probabilistic20update_quantum_stateEP16QuantumStateBase
FNDA:0,_ZN25QuantumGate_Probabilistic20update_quantum_stateEP16QuantumStateBase
FN:91,_ZNK25QuantumGate_Probabilistic4copyEv
FNDA:0,_ZNK25QuantumGate_Probabilistic4copyEv
FN:104,_ZNK25QuantumGate_Probabilistic10set_matrixERN5Eigen6MatrixISt7complexIdELin1ELin1ELi1ELin1ELin1EEE
FNDA:0,_ZNK25QuantumGate_Probabilistic10set_matrixERN5Eigen6MatrixISt7complexIdELin1ELin1ELi1ELin1ELin1EEE
FN:115,_ZN25QuantumGate_Probabilistic8set_seedEi
FNDA:0,_ZN25QuantumGate_Probabilistic8set_seedEi
FN:117,_ZN25QuantumGate_Probabilistic27get_cumulative_distributionEv
FNDA:0,_ZN25QuantumGate_Probabilistic27get_cumulative_distributionEv
FN:120,_ZN25QuantumGate_Probabilistic13get_gate_listEv
FNDA:0,_ZN25QuantumGate_Probabilistic13get_gate_listEv
FN:123,_ZN25QuantumGate_Probabilistic25optimize_ProbablisticGateEv
FNDA:0,_ZN25QuantumGate_Probabilistic25optimize_ProbablisticGateEv
FN:167,_ZN35QuantumGate_ProbabilisticInstrumentC2ESt6vectorIdSaIdEES0_IP15QuantumGateBaseSaIS4_EEj
FNDA:0,_ZN35QuantumGate_ProbabilisticInstrumentC2ESt6vectorIdSaIdEES0_IP15QuantumGateBaseSaIS4_EEj
FN:185,_ZN35QuantumGate_ProbabilisticInstrumentD2Ev
FNDA:0,_ZN35QuantumGate_ProbabilisticInstrumentD2Ev
FN:185,_ZN35QuantumGate_ProbabilisticInstrumentD0Ev
FNDA:0,_ZN35QuantumGate_ProbabilisticInstrumentD0Ev
FN:196,_ZN35QuantumGate_ProbabilisticInstrument20update_quantum_stateEP16QuantumStateBase
FNDA:0,_ZN35QuantumGate_ProbabilisticInstrument20update_quantum_stateEP16QuantumStateBase
FN:215,_ZNK35QuantumGate_ProbabilisticInstrument4copyEv
FNDA:0,_ZNK35QuantumGate_ProbabilisticInstrument4copyEv
FN:229,_ZNK35QuantumGate_ProbabilisticInstrument10set_matrixERN5Eigen6MatrixISt7complexIdELin1ELin1ELi1ELin1ELin1EEE
FNDA:0,_ZNK35QuantumGate_ProbabilisticInstrument10set_matrixERN5Eigen6MatrixISt7complexIdELin1ELin1ELi1ELin1ELin1EEE
FN:246,_ZN16QuantumGate_CPTPC2ESt6vectorIP15QuantumGateBaseSaIS2_EE
FNDA:0,_ZN16QuantumGate_CPTPC2ESt6vectorIP15QuantumGateBaseSaIS2_EE
FN:252,_ZN16QuantumGate_CPTPD2Ev
FNDA:0,_ZN16QuantumGate_CPTPD2Ev
FN:252,_ZN16QuantumGate_CPTPD0Ev
FNDA:0,_ZN16QuantumGate_CPTPD0Ev
FN:263,_ZN16QuantumGate_CPTP20update_quantum_stateEP16QuantumStateBase
FNDA:0,_ZN16QuantumGate_CPTP20update_quantum_stateEP16QuantumStateBase
FN:315,_ZNK16QuantumGate_CPTP4copyEv
FNDA:0,_ZNK16QuantumGate_CPTP4copyEv
FN:327,_ZNK16QuantumGate_CPTP10set_matrixERN5Eigen6MatrixISt7complexIdELin1ELin1ELi1ELin1ELin1EEE
FNDA:0,_ZNK16QuantumGate_CPTP10set_matrixERN5Eigen6MatrixISt7complexIdELin1ELin1ELi1ELin1ELin1EEE
FN:347,_ZN14QuantumGate_CPC2ESt6vectorIP15QuantumGateBaseSaIS2_EEbbb
FNDA:0,_ZN14QuantumGate_CPC2ESt6vectorIP15QuantumGateBaseSaIS2_EEbbb
FN:358,_ZN14QuantumGate_CPD2Ev
FNDA:0,_ZN14QuantumGate_CPD2Ev
FN:358,_ZN14QuantumGate_CPD0Ev
FNDA:0,_ZN14QuantumGate_CPD0Ev
FN:369,_ZN14QuantumGate_CP20update_quantum_stateEP16QuantumStateBase
FNDA:0,_ZN14QuantumGate_CP20update_quantum_stateEP16QuantumStateBase
FN:438,_ZNK14QuantumGate_CP4copyEv
FNDA:0,_ZNK14QuantumGate_CP4copyEv
FN:451,_ZNK14QuantumGate_CP10set_matrixERN5Eigen6MatrixISt7complexIdELin1ELin1ELi1ELin1ELin1EEE
FNDA:0,_ZNK14QuantumGate_CP10set_matrixERN5Eigen6MatrixISt7complexIdELin1ELin1ELi1ELin1ELin1EEE
FN:469,_ZN22QuantumGate_InstrumentC2ESt6vectorIP15QuantumGateBaseSaIS2_EEj
FNDA:0,_ZN22QuantumGate_InstrumentC2ESt6vectorIP15QuantumGateBaseSaIS2_EEj
FN:477,_ZN22QuantumGate_InstrumentD0Ev
FNDA:0,_ZN22QuantumGate_InstrumentD0Ev
FN:477,_ZN22QuantumGate_InstrumentD2Ev
FNDA:0,_ZN22QuantumGate_InstrumentD2Ev
FN:488,_ZN22QuantumGate_Instrument20update_quantum_stateEP16QuantumStateBase
FNDA:0,_ZN22QuantumGate_Instrument20update_quantum_stateEP16QuantumStateBase
FN:523,_ZNK22QuantumGate_Instrument4copyEv
FNDA:0,_ZNK22QuantumGate_Instrument4copyEv
FN:536,_ZNK22QuantumGate_Instrument10set_matrixERN5Eigen6MatrixISt7complexIdELin1ELin1ELi1ELin1ELin1EEE
FNDA:0,_ZNK22QuantumGate_Instrument10set_matrixERN5Eigen6MatrixISt7complexIdELin1ELin1ELi1ELin1ELin1EEE
FN:556,_ZN20QuantumGate_AdaptiveC2EP15QuantumGateBaseSt8functionIFbRKSt6vectorIjSaIjEEEE
FNDA:0,_ZN20QuantumGate_AdaptiveC2EP15QuantumGateBaseSt8functionIFbRKSt6vectorIjSaIjEEEE
FN:559,_ZN20QuantumGate_AdaptiveC2EP15QuantumGateBaseSt8functionIFbRKSt6vectorIjSaIjEEjEEj
FNDA:0,_ZN20QuantumGate_AdaptiveC2EP15QuantumGateBaseSt8functionIFbRKSt6vectorIjSaIjEEjEEj
FN:567,_ZN20QuantumGate_AdaptiveD2Ev
FNDA:0,_ZN20QuantumGate_AdaptiveD2Ev
FN:567,_ZN20QuantumGate_AdaptiveD0Ev
FNDA:0,_ZN20QuantumGate_AdaptiveD0Ev
FN:574,_ZN20QuantumGate_Adaptive20update_quantum_stateEP16QuantumStateBase
FNDA:0,_ZN20QuantumGate_Adaptive20update_quantum_stateEP16QuantumStateBase
FN:590,_ZNK20QuantumGate_Adaptive4copyEv
FNDA:0,_ZNK20QuantumGate_Adaptive4copyEv
FN:602,_ZNK20QuantumGate_Adaptive10set_matrixERN5Eigen6MatrixISt7complexIdELin1ELin1ELi1ELin1ELin1EEE
FNDA:0,_ZNK20QuantumGate_Adaptive10set_matrixERN5Eigen6MatrixISt7complexIdELin1ELin1ELi1ELin1ELin1EEE
FNF:41
FNH:0
DA:24,0
DA:26,0
DA:27,0
DA:28,0
DA:29,0
DA:30,0
DA:31,0
DA:35,0
DA:36,0
DA:37,0
DA:38,0
DA:40,0
DA:44,0
DA:40,0
DA:41,0
DA:42,0
DA:44,0
DA:51,0
DA:52,0
DA:58,0
DA:60,0
DA:61,0
DA:64,0
DA:65,0
DA:66,0
DA:68,0
DA:69,0
DA:70,0
DA:71,0
DA:72,0
DA:73,0
DA:74,0
DA:75,0
DA:77,0
DA:78,0
DA:79,0
DA:82,0
DA:83,0
DA:85,0
DA:91,0
DA:96,0
DA:104,0
DA:108,0
DA:109,0
DA:115,0
DA:117,0
DA:118,0
DA:120,0
DA:121,0
DA:123,0
DA:124,0
DA:126,0
DA:127,0
DA:131,0
DA:132,0
DA:133,0
DA:135,0
DA:137,0
DA:138,0
DA:139,0
DA:140,0
DA:141,0
DA:142,0
DA:144,0
DA:167,0
DA:170,0
DA:171,0
DA:172,0
DA:173,0
DA:174,0
DA:175,0
DA:176,0
DA:180,0
DA:181,0
DA:182,0
DA:183,0
DA:185,0
DA:189,0
DA:185,0
DA:186,0
DA:187,0
DA:189,0
DA:196,0
DA:202,0
DA:204,0
DA:205,0
DA:207,0
DA:208,0
DA:209,0
DA:215,0
DA:219,0
DA:221,0
DA:229,0
DA:233,0
DA:234,0
DA:246,0
DA:249,0
DA:250,0
DA:251,0
DA:252,0
DA:256,0
DA:252,0
DA:253,0
DA:254,0
DA:256,0
DA:263,0
DA:264,0
DA:268,0
DA:270,0
DA:271,0
DA:272,0
DA:273,0
DA:274,0
DA:275,0
DA:276,0
DA:277,0
DA:280,0
DA:283,0
DA:288,0
DA:290,0
DA:291,0
DA:292,0
DA:294,0
DA:295,0
DA:296,0
DA:297,0
DA:298,0
DA:299,0
DA:301,0
DA:302,0
DA:305,0
DA:306,0
DA:308,0
DA:315,0
DA:319,0
DA:320,0
DA:327,0
DA:331,0
DA:332,0
DA:347,0
DA:350,0
DA:352,0
DA:355,0
DA:356,0
DA:357,0
DA:358,0
DA:362,0
DA:358,0
DA:359,0
DA:360,0
DA:362,0
DA:369,0
DA:370,0
DA:374,0
DA:376,0
DA:382,0
DA:384,0
DA:385,0
DA:386,0
DA:387,0
DA:388,0
DA:392,0
DA:393,0
DA:394,0
DA:395,0
DA:396,0
DA:397,0
DA:398,0
DA:399,0
DA:403,0
DA:406,0
DA:407,0
DA:408,0
DA:411,0
DA:413,0
DA:414,0
DA:415,0
DA:417,0
DA:418,0
DA:419,0
DA:420,0
DA:421,0
DA:422,0
DA:424,0
DA:425,0
DA:428,0
DA:429,0
DA:431,0
DA:438,0
DA:442,0
DA:443,0
DA:444,0
DA:451,0
DA:455,0
DA:456,0
DA:469,0
DA:471,0
DA:474,0
DA:475,0
DA:476,0
DA:477,0
DA:481,0
DA:477,0
DA:478,0
DA:479,0
DA:481,0
DA:488,0
DA:492,0
DA:494,0
DA:496,0
DA:497,0
DA:498,0
DA:499,0
DA:500,0
DA:501,0
DA:502,0
DA:505,0
DA:506,0
DA:509,0
DA:514,0
DA:516,0
DA:517,0
DA:523,0
DA:527,0
DA:529,0
DA:536,0
DA:541,0
DA:542,0
DA:556,0
DA:558,0
DA:559,0
DA:562,0
DA:564,0
DA:565,0
DA:566,0
DA:567,0
DA:567,0
DA:574,0
DA:576,0
DA:577,0
DA:579,0
DA:581,0
DA:582,0
DA:584,0
DA:590,0
DA:591,0
DA:592,0
DA:594,0
DA:602,0
DA:607,0
DA:608,0
LF:251
LH:0
end_of_record
SF:/usr/include/c++/9/bits/stl_heap.h
FN:128,_ZSt11__push_heapISt16reverse_iteratorIN9__gnu_cxx17__normal_iteratorIPSt4pairIdiESt6vectorIS4_SaIS4_EEEEElS4_NS1_5__ops14_Iter_less_valEEvT_T0_SE_T1_RT2_
FNDA:0,_ZSt11__push_heapISt16reverse_iteratorIN9__gnu_cxx17__normal_iteratorIPSt4pairIdiESt6vectorIS4_SaIS4_EEEEElS4_NS1_5__ops14_Iter_less_valEEvT_T0_SE_T1_RT2_
FN:214,_ZSt13__adjust_heapIN9__gnu_cxx17__normal_iteratorIPjSt6vectorIjSaIjEEEEljNS0_5__ops15_Iter_less_iterEEvT_T0_SA_T1_T2_
FNDA:0,_ZSt13__adjust_heapIN9__gnu_cxx17__normal_iteratorIPjSt6vectorIjSaIjEEEEljNS0_5__ops15_Iter_less_iterEEvT_T0_SA_T1_T2_
FN:214,_ZSt13__adjust_heapISt16reverse_iteratorIN9__gnu_cxx17__normal_iteratorIPSt4pairIdiESt6vectorIS4_SaIS4_EEEEElS4_NS1_5__ops15_Iter_less_iterEEvT_T0_SE_T1_T2_
FNDA:0,_ZSt13__adjust_heapISt16reverse_iteratorIN9__gnu_cxx17__normal_iteratorIPSt4pairIdiESt6vectorIS4_SaIS4_EEEEElS4_NS1_5__ops15_Iter_less_iterEEvT_T0_SE_T1_T2_
FN:326,_ZSt11__make_heapIN9__gnu_cxx17__normal_iteratorIPjSt6vectorIjSaIjEEEENS0_5__ops15_Iter_less_iterEEvT_S9_RT0_
FNDA:0,_ZSt11__make_heapIN9__gnu_cxx17__normal_iteratorIPjSt6vectorIjSaIjEEEENS0_5__ops15_Iter_less_iterEEvT_S9_RT0_
FN:326,_ZSt11__make_heapISt16reverse_iteratorIN9__gnu_cxx17__normal_iteratorIPSt4pairIdiESt6vectorIS4_SaIS4_EEEEENS1_5__ops15_Iter_less_iterEEvT_SD_RT0_
FNDA:0,_ZSt11__make_heapISt16reverse_iteratorIN9__gnu_cxx17__normal_iteratorIPSt4pairIdiESt6vectorIS4_SaIS4_EEEEENS1_5__ops15_Iter_less_iterEEvT_SD_RT0_
FNF:5
FNH:0
DA:128,0
DA:132,0
DA:133,0
DA:135,0
DA:137,0
DA:139,0
DA:140,0
DA:214,0
DA:219,0
DA:221,0
DA:222,0
DA:225,0
DA:228,0
DA:230,0
DA:231,0
DA:239,0
DA:214,0
DA:219,0
DA:221,0
DA:222,0
DA:228,0
DA:230,0
DA:231,0
DA:237,0
DA:239,0
DA:252,0
DA:253,0
DA:326,0
DA:334,0
DA:338,0
DA:339,0
DA:341,0
DA:342,0
DA:344,0
DA:346,0
DA:326,0
DA:334,0
DA:338,0
DA:339,0
DA:341,0
DA:342,0
DA:344,0
DA:345,0
DA:346,0
LF:44
LH:0
end_of_record
SF:/qulacs-osaka/include/Eigen/src/Core/Matrix.h
FN:291,_ZN5Eigen6MatrixISt7complexIdELin1ELi1ELi0ELin1ELi1EEC2IyEERKT_
FNDA:0,_ZN5Eigen6MatrixISt7complexIdELin1ELi1ELi0ELin1ELi1EEC2IyEERKT_
FNF:1
FNH:0
DA:178,0
DA:225,0
DA:291,0
DA:294,0
DA:295,0
LF:5
LH:0
end_of_record
SF:/usr/include/c++/9/bits/stl_vector.h
FN:507,_ZNSt6vectorIjSaIjEEC2EmRKS0_
FNDA:1430,_ZNSt6vectorIjSaIjEEC2EmRKS0_
FN:519,_ZNSt6vectorISt4pairIiS_IjSaIjEEESaIS3_EEC2EmRKS3_RKS4_
FNDA:26,_ZNSt6vectorISt4pairIiS_IjSaIjEEESaIS3_EEC2EmRKS3_RKS4_
FN:550,_ZNSt6vectorIP15QuantumGateBaseSaIS1_EEC2ERKS3_
FNDA:0,_ZNSt6vectorIP15QuantumGateBaseSaIS1_EEC2ERKS3_
FN:550,_ZNSt6vectorIdSaIdEEC2ERKS1_
FNDA:0,_ZNSt6vectorIdSaIdEEC2ERKS1_
FN:550,_ZNSt6vectorIjSaIjEEC2ERKS1_
FNDA:1131,_ZNSt6vectorIjSaIjEEC2ERKS1_
FN:675,_ZNSt6vectorISt4pairIiS_IjSaIjEEESaIS3_EED2Ev
FNDA:26,_ZNSt6vectorISt4pairIiS_IjSaIjEEESaIS3_EED2Ev
FN:954,_ZNSt6vectorIjSaIjEE6resizeEmRKj
FNDA:0,_ZNSt6vectorIjSaIjEE6resizeEmRKj
FN:1184,_ZNSt6vectorIP15QuantumGateBaseSaIS1_EE9push_backERKS1_
FNDA:0,_ZNSt6vectorIP15QuantumGateBaseSaIS1_EE9push_backERKS1_
FN:1184,_ZNSt6vectorIdSaIdEE9push_backERKd
FNDA:0,_ZNSt6vectorIdSaIdEE9push_backERKd
FN:1184,_ZNSt6vectorIjSaIjEE9push_backERKj
FNDA:276461,_ZNSt6vectorIjSaIjEE9push_backERKj
FN:1753,_ZNKSt6vectorISt4pairIdiESaIS1_EE12_M_check_lenEmPKc
FNDA:0,_ZNKSt6vectorISt4pairIdiESaIS1_EE12_M_check_lenEmPKc
FN:1753,_ZNKSt6vectorIySaIyEE12_M_check_lenEmPKc
FNDA:0,_ZNKSt6vectorIySaIyEE12_M_check_lenEmPKc
FN:1753,_ZNKSt6vectorIP15QuantumGateBaseSaIS1_EE12_M_check_lenEmPKc
FNDA:0,_ZNKSt6vectorIP15QuantumGateBaseSaIS1_EE12_M_check_lenEmPKc
FN:1753,_ZNKSt6vectorIdSaIdEE12_M_check_lenEmPKc
FNDA:0,_ZNKSt6vectorIdSaIdEE12_M_check_lenEmPKc
FN:1753,_ZNKSt6vectorIjSaIjEE12_M_check_lenEmPKc
FNDA:0,_ZNKSt6vectorIjSaIjEE12_M_check_lenEmPKc
FNF:15
FNH:5
DA:94,46143
DA:95,214920
DA:101,26
DA:108,1009
DA:109,1009
DA:110,1009
DA:333,26
DA:334,0
DA:350,1035
DA:358,1456
DA:359,1157
DA:360,1456
DA:507,1430
DA:509,1430
DA:519,26
DA:522,26
DA:550,0
DA:552,0
DA:554,0
DA:555,0
DA:558,0
DA:550,0
DA:552,0
DA:554,0
DA:555,0
DA:558,0
DA:550,1131
DA:552,1131
DA:554,1131
DA:555,1131
DA:558,1131
DA:675,26
DA:677,3328
DA:680,147020
DA:916,108680
DA:954,0
DA:956,0
DA:957,0
DA:958,0
DA:959,0
DA:960,0
DA:997,0
DA:1043,4217
DA:1061,164623
DA:1184,0
DA:1186,0
DA:1189,0
DA:1191,0
DA:1195,0
DA:1196,0
DA:1184,0
DA:1186,0
DA:1189,0
DA:1191,0
DA:1195,0
DA:1196,0
DA:1184,276461
DA:1186,276461
DA:1189,27410
DA:1191,27410
DA:1195,249051
DA:1196,276461
DA:1201,171382
DA:1496,0
DA:1508,0
DA:1592,26
DA:1602,1430
DA:1708,0
DA:1753,0
DA:1755,0
DA:1756,0
DA:1758,0
DA:1759,0
DA:1753,0
DA:1755,0
DA:1756,0
DA:1758,0
DA:1759,0
DA:1753,0
DA:1755,0
DA:1756,0
DA:1758,0
DA:1759,0
DA:1753,0
DA:1755,0
DA:1756,0
DA:1758,0
DA:1759,0
DA:1753,0
DA:1755,0
DA:1756,0
DA:1758,0
DA:1759,0
DA:1766,1456
DA:1767,0
DA:1791,0
DA:1795,0
LF:97
LH:36
end_of_record
SF:/qulacs-osaka/src/cppsim/gate.hpp
FN:92,_ZN15QuantumGateBaseC2Ev
FNDA:0,_ZN15QuantumGateBaseC2Ev
FN:95,_ZN15QuantumGateBaseC2ERKS_
FNDA:0,_ZN15QuantumGateBaseC2ERKS_
FN:109,_ZN15QuantumGateBaseD0Ev
FNDA:0,_ZN15QuantumGateBaseD0Ev
FN:109,_ZN15QuantumGateBaseD2Ev
FNDA:0,_ZN15QuantumGateBaseD2Ev
FN:122,_ZNK15QuantumGateBase21get_target_index_listEv
FNDA:715,_ZNK15QuantumGateBase21get_target_index_listEv
FN:133,_ZNK15QuantumGateBase22get_control_index_listEv
FNDA:715,_ZNK15QuantumGateBase22get_control_index_listEv
FN:270,_ZN15QuantumGateBase8set_seedEi
FNDA:0,_ZN15QuantumGateBase8set_seedEi
FN:271,_ZN15QuantumGateBase27get_cumulative_distributionEv
FNDA:0,_ZN15QuantumGateBase27get_cumulative_distributionEv
FN:272,_ZN15QuantumGateBase13get_gate_listEv
FNDA:0,_ZN15QuantumGateBase13get_gate_listEv
FN:273,_ZN15QuantumGateBase25optimize_ProbablisticGateEv
FNDA:0,_ZN15QuantumGateBase25optimize_ProbablisticGateEv
FNF:10
FNH:2
DA:92,0
DA:93,0
DA:94,0
DA:95,0
DA:96,0
DA:97,0
DA:98,0
DA:99,0
DA:100,0
DA:101,0
DA:102,0
DA:109,0
DA:109,0
DA:122,715
DA:123,715
DA:124,1780
DA:125,1065
DA:126,715
DA:133,715
DA:134,715
DA:135,915
DA:136,200
DA:137,715
DA:270,0
DA:271,0
DA:272,0
DA:273,0
LF:27
LH:10
end_of_record
SF:/qulacs-osaka/include/Eigen/src/Core/util/XprHelper.h
DA:120,0
LF:1
LH:0
end_of_record
SF:/qulacs-osaka/src/cppsim/utility.hpp
FN:58,_ZN6RandomC2Ev
FNDA:0,_ZN6RandomC2Ev
FNF:1
FNH:0
DA:58,0
DA:59,0
DA:60,0
DA:61,0
DA:74,0
DA:95,0
LF:6
LH:0
end_of_record
SF:/usr/include/c++/9/bits/random.h
FN:1606,_ZNSt13random_deviceC2Ev
FNDA:0,_ZNSt13random_deviceC2Ev
FNF:1
FNH:0
DA:181,0
DA:519,0
DA:1606,0
DA:1612,0
DA:1643,0
DA:1751,0
DA:1752,0
DA:1862,0
DA:1981,0
DA:1982,0
DA:2017,0
DA:2019,0
LF:12
LH:0
end_of_record
SF:/qulacs-osaka/src/cppsim/circuit_optimizer.cpp
FN:14,_ZN23QuantumCircuitOptimizer27get_rightmost_commute_indexEj
FNDA:7237,_ZN23QuantumCircuitOptimizer27get_rightmost_commute_indexEj
FN:24,_ZN23QuantumCircuitOptimizer26get_leftmost_commute_indexEj
FNDA:9515,_ZN23QuantumCircuitOptimizer26get_leftmost_commute_indexEj
FN:35,_ZN23QuantumCircuitOptimizer20get_merged_gate_sizeEjj
FNDA:42841,_ZN23QuantumCircuitOptimizer20get_merged_gate_sizeEjj
FN:38,_ZZN23QuantumCircuitOptimizer20get_merged_gate_sizeEjjENKUlRKSt6vectorI15TargetQubitInfoSaIS1_EEE_clES5_.isra.0
FNDA:85682,_ZZN23QuantumCircuitOptimizer20get_merged_gate_sizeEjjENKUlRKSt6vectorI15TargetQubitInfoSaIS1_EEE_clES5_.isra.0
FN:46,_ZZN23QuantumCircuitOptimizer20get_merged_gate_sizeEjjENKUlRKSt6vectorI16ControlQubitInfoSaIS1_EEE0_clES5_.isra.0
FNDA:85682,_ZZN23QuantumCircuitOptimizer20get_merged_gate_sizeEjjENKUlRKSt6vectorI16ControlQubitInfoSaIS1_EEE0_clES5_.isra.0
FN:83,_ZN23QuantumCircuitOptimizer14is_neighboringEjj
FNDA:7237,_ZN23QuantumCircuitOptimizer14is_neighboringEjj
FN:92,_ZN23QuantumCircuitOptimizer8optimizeEP14QuantumCircuitj
FNDA:116,_ZN23QuantumCircuitOptimizer8optimizeEP14QuantumCircuitj
FN:141,_ZN23QuantumCircuitOptimizer14optimize_lightEP14QuantumCircuit
FNDA:26,_ZN23QuantumCircuitOptimizer14optimize_lightEP14QuantumCircuit
FN:187,_ZN23QuantumCircuitOptimizer9merge_allEPK14QuantumCircuit
FNDA:0,_ZN23QuantumCircuitOptimizer9merge_allEPK14QuantumCircuit
FNF:9
FNH:8
DA:14,7237
DA:15,7237
DA:16,11688
DA:17,11673
DA:21,7237
DA:24,9515
DA:26,9515
DA:27,21489
DA:28,21231
DA:29,21231
DA:32,9515
DA:35,42841
DA:38,85682
DA:42,85682
DA:43,85682
DA:46,85682
DA:50,85682
DA:51,85682
DA:55,42841
DA:57,42841
DA:59,42841
DA:61,42841
DA:63,42841
DA:64,42841
DA:65,42841
DA:66,42841
DA:71,42841
DA:74,42841
DA:77,42841
DA:78,85682
DA:83,7237
DA:86,7237
DA:87,7237
DA:88,7237
DA:89,7237
DA:92,116
DA:94,116
DA:96,343
DA:98,2770
DA:99,45384
DA:102,85682
DA:103,42841
DA:104,40563
DA:108,42841
DA:109,35604
DA:114,7237
DA:117,2278
DA:118,2278
DA:121,2278
DA:126,2278
DA:130,2278
DA:131,2278
DA:132,2278
DA:134,2278
DA:139,116
DA:141,26
DA:142,26
DA:143,26
DA:145,78
DA:146,741
DA:147,715
DA:151,2495
DA:152,1065
DA:153,1630
DA:154,200
DA:155,715
DA:159,1980
DA:160,1265
DA:162,862
DA:165,715
DA:166,715
DA:168,203
DA:169,203
DA:170,203
DA:171,203
DA:172,203
DA:180,1521
DA:181,2018
DA:185,26
DA:187,0
DA:189,0
DA:190,0
DA:192,0
DA:194,0
DA:195,0
DA:196,0
DA:199,0
LF:87
LH:79
end_of_record
SF:/usr/include/c++/9/bits/stl_iterator_base_funcs.h
DA:104,0
DA:180,0
LF:2
LH:0
end_of_record
SF:/usr/include/c++/9/bits/alloc_traits.h
DA:470,192489
LF:1
LH:1
end_of_record
SF:/usr/include/c++/9/sstream
DA:832,0
LF:1
LH:0
end_of_record
SF:/qulacs-osaka/include/Eigen/src/Core/CoreEvaluators.h
DA:155,0
DA:179,0
DA:187,0
DA:472,0
LF:4
LH:0
end_of_record
SF:/qulacs-osaka/src/cppsim/state.hpp
FN:66,_ZNK16QuantumStateBase15is_state_vectorEv
FNDA:0,_ZNK16QuantumStateBase15is_state_vectorEv
FN:253,_ZN16QuantumStateBase19get_classical_valueEj
FNDA:0,_ZN16QuantumStateBase19get_classical_valueEj
FN:267,_ZN16QuantumStateBase19set_classical_valueEjj
FNDA:0,_ZN16QuantumStateBase19set_classical_valueEjj
FN:279,_ZNK16QuantumStateBase22get_classical_registerEv
FNDA:0,_ZNK16QuantumStateBase22get_classical_registerEv
FN:299,_ZNK16QuantumStateBase9to_stringB5cxx11Ev
FNDA:0,_ZNK16QuantumStateBase9to_stringB5cxx11Ev
FN:333,_ZNK16QuantumStateBase15get_cuda_streamEv
FNDA:0,_ZNK16QuantumStateBase15get_cuda_streamEv
FN:347,_ZN15QuantumStateCpuC2Ej
FNDA:0,_ZN15QuantumStateCpuC2Ej
FN:356,_ZN15QuantumStateCpuD2Ev
FNDA:0,_ZN15QuantumStateCpuD2Ev
FN:356,_ZN15QuantumStateCpuD0Ev
FNDA:0,_ZN15QuantumStateCpuD0Ev
FN:360,_ZN15QuantumStateCpu14set_zero_stateEv
FNDA:0,_ZN15QuantumStateCpu14set_zero_stateEv
FN:367,_ZN15QuantumStateCpu19set_zero_norm_stateEv
FNDA:0,_ZN15QuantumStateCpu19set_zero_norm_stateEv
FN:377,_ZN15QuantumStateCpu23set_computational_basisEy
FNDA:0,_ZN15QuantumStateCpu23set_computational_basisEy
FN:392,_ZN15QuantumStateCpu21set_Haar_random_stateEv
FNDA:0,_ZN15QuantumStateCpu21set_Haar_random_stateEv
FN:400,_ZN15QuantumStateCpu21set_Haar_random_stateEj
FNDA:0,_ZN15QuantumStateCpu21set_Haar_random_stateEj
FN:411,_ZNK15QuantumStateCpu20get_zero_probabilityEj
FNDA:0,_ZNK15QuantumStateCpu20get_zero_probabilityEj
FN:427,_ZNK15QuantumStateCpu24get_marginal_probabilityESt6vectorIjSaIjEE
FNDA:0,_ZNK15QuantumStateCpu24get_marginal_probabilityESt6vectorIjSaIjEE
FN:454,_ZNK15QuantumStateCpu11get_entropyEv
FNDA:0,_ZNK15QuantumStateCpu11get_entropyEv
FN:464,_ZNK15QuantumStateCpu16get_squared_normEv
FNDA:0,_ZNK15QuantumStateCpu16get_squared_normEv
FN:474,_ZNK15QuantumStateCpu30get_squared_norm_single_threadEv
FNDA:0,_ZNK15QuantumStateCpu30get_squared_norm_single_threadEv
FN:483,_ZN15QuantumStateCpu9normalizeEd
FNDA:0,_ZN15QuantumStateCpu9normalizeEd
FN:492,_ZN15QuantumStateCpu23normalize_single_threadEd
FNDA:0,_ZN15QuantumStateCpu23normalize_single_threadEd
FN:501,_ZNK15QuantumStateCpu15allocate_bufferEv
FNDA:0,_ZNK15QuantumStateCpu15allocate_bufferEv
FN:510,_ZNK15QuantumStateCpu4copyEv
FNDA:0,_ZNK15QuantumStateCpu4copyEv
FN:521,_ZN15QuantumStateCpu4loadEPK16QuantumStateBase
FNDA:0,_ZN15QuantumStateCpu4loadEPK16QuantumStateBase
FN:541,_ZN15QuantumStateCpu4loadERKSt6vectorISt7complexIdESaIS2_EE
FNDA:0,_ZN15QuantumStateCpu4loadERKSt6vectorISt7complexIdESaIS2_EE
FN:554,_ZN15QuantumStateCpu4loadEPKSt7complexIdE
FNDA:0,_ZN15QuantumStateCpu4loadEPKSt7complexIdE
FN:562,_ZNK15QuantumStateCpu15get_device_nameB5cxx11Ev
FNDA:0,_ZNK15QuantumStateCpu15get_device_nameB5cxx11Ev
FN:567,_ZNK15QuantumStateCpu4dataEv
FNDA:0,_ZNK15QuantumStateCpu4dataEv
FN:576,_ZNK15QuantumStateCpu8data_cppEv
FNDA:0,_ZNK15QuantumStateCpu8data_cppEv
FN:582,_ZNK15QuantumStateCpu6data_cEv
FNDA:0,_ZNK15QuantumStateCpu6data_cEv
FN:586,_ZNK15QuantumStateCpu16duplicate_data_cEv
FNDA:0,_ZNK15QuantumStateCpu16duplicate_data_cEv
FN:592,_ZNK15QuantumStateCpu18duplicate_data_cppEv
FNDA:0,_ZNK15QuantumStateCpu18duplicate_data_cppEv
FN:601,_ZN15QuantumStateCpu9add_stateEPK16QuantumStateBase
FNDA:0,_ZN15QuantumStateCpu9add_stateEPK16QuantumStateBase
FN:612,_ZN15QuantumStateCpu19add_state_with_coefESt7complexIdEPK16QuantumStateBase
FNDA:0,_ZN15QuantumStateCpu19add_state_with_coefESt7complexIdEPK16QuantumStateBase
FN:625,_ZN15QuantumStateCpu33add_state_with_coef_single_threadESt7complexIdEPK16QuantumStateBase
FNDA:0,_ZN15QuantumStateCpu33add_state_with_coef_single_threadESt7complexIdEPK16QuantumStateBase
FN:639,_ZN15QuantumStateCpu13multiply_coefESt7complexIdE
FNDA:0,_ZN15QuantumStateCpu13multiply_coefESt7complexIdE
FN:643,_ZN15QuantumStateCpu29multiply_elementwise_functionERKSt8functionIFSt7complexIdEyEE
FNDA:0,_ZN15QuantumStateCpu29multiply_elementwise_functionERKSt8functionIFSt7complexIdEyEE
FN:657,_ZN15QuantumStateCpu8samplingEj
FNDA:0,_ZN15QuantumStateCpu8samplingEj
FN:677,_ZN15QuantumStateCpu8samplingEjj
FNDA:0,_ZN15QuantumStateCpu8samplingEjj
FNF:39
FNH:0
DA:38,0
DA:39,0
DA:41,0
DA:42,0
DA:43,0
DA:44,0
DA:45,0
DA:61,0
DA:66,0
DA:253,0
DA:254,0
DA:255,0
DA:257,0
DA:267,0
DA:268,0
DA:269,0
DA:271,0
DA:272,0
DA:279,0
DA:280,0
DA:299,0
DA:300,0
DA:301,0
DA:302,0
DA:303,0
DA:305,0
DA:306,0
DA:307,0
DA:308,0
DA:333,0
DA:347,0
DA:348,0
DA:349,0
DA:350,0
DA:351,0
DA:352,0
DA:356,0
DA:356,0
DA:360,0
DA:361,0
DA:362,0
DA:367,0
DA:368,0
DA:369,0
DA:370,0
DA:377,0
DA:378,0
DA:382,0
DA:384,0
DA:385,0
DA:386,0
DA:387,0
DA:392,0
DA:393,0
DA:394,0
DA:395,0
DA:400,0
DA:401,0
DA:402,0
DA:411,0
DA:413,0
DA:416,0
DA:418,0
DA:427,0
DA:429,0
DA:433,0
DA:438,0
DA:439,0
DA:440,0
DA:441,0
DA:442,0
DA:445,0
DA:446,0
DA:454,0
DA:455,0
DA:464,0
DA:465,0
DA:474,0
DA:475,0
DA:483,0
DA:484,0
DA:485,0
DA:492,0
DA:493,0
DA:494,0
DA:501,0
DA:502,0
DA:503,0
DA:510,0
DA:511,0
DA:512,0
DA:513,0
DA:514,0
DA:515,0
DA:516,0
DA:521,0
DA:522,0
DA:525,0
DA:528,0
DA:529,0
DA:530,0
DA:531,0
DA:532,0
DA:534,0
DA:535,0
DA:537,0
DA:541,0
DA:542,0
DA:545,0
DA:548,0
DA:549,0
DA:554,0
DA:555,0
DA:556,0
DA:562,0
DA:567,0
DA:568,0
DA:576,0
DA:582,0
DA:583,0
DA:586,0
DA:587,0
DA:588,0
DA:589,0
DA:592,0
DA:593,0
DA:594,0
DA:595,0
DA:601,0
DA:602,0
DA:604,0
DA:606,0
DA:607,0
DA:612,0
DA:614,0
DA:617,0
DA:619,0
DA:625,0
DA:627,0
DA:630,0
DA:632,0
DA:633,0
DA:639,0
DA:640,0
DA:641,0
DA:643,0
DA:645,0
DA:646,0
DA:647,0
DA:649,0
DA:657,0
DA:660,0
DA:661,0
DA:662,0
DA:663,0
DA:664,0
DA:665,0
DA:668,0
DA:672,0
DA:673,0
DA:675,0
DA:677,0
DA:679,0
DA:680,0
LF:164
LH:0
end_of_record
SF:/usr/include/c++/9/ostream
DA:113,0
DA:196,0
DA:206,0
DA:570,0
LF:4
LH:0
end_of_record
SF:/qulacs-osaka/src/cppsim/gate_matrix.hpp
FN:73,_ZN17QuantumGateMatrixD0Ev
FNDA:0,_ZN17QuantumGateMatrixD0Ev
FN:73,_ZN17QuantumGateMatrixD2Ev
FNDA:0,_ZN17QuantumGateMatrixD2Ev
FN:113,_ZNK17QuantumGateMatrix4copyEv
FNDA:0,_ZNK17QuantumGateMatrix4copyEv
FNF:3
FNH:0
DA:73,0
DA:73,0
DA:113,0
DA:114,0
LF:4
LH:0
end_of_record
SF:/qulacs-osaka/include/Eigen/src/Core/functors/NullaryFunctors.h
DA:19,0
LF:1
LH:0
end_of_record
SF:/qulacs-osaka/src/cppsim/exception.hpp
DA:35,0
DA:49,0
DA:148,0
DA:191,0
DA:205,0
LF:5
LH:0
end_of_record
SF:/usr/include/c++/9/bits/stl_uninitialized.h
FN:215,_ZNSt22__uninitialized_fill_nILb0EE15__uninit_fill_nIPSt4pairIiSt6vectorIjSaIjEEEmS6_EET_S8_T0_RKT1_
FNDA:26,_ZNSt22__uninitialized_fill_nILb0EE15__uninit_fill_nIPSt4pairIiSt6vectorIjSaIjEEEmS6_EET_S8_T0_RKT1_
FNF:1
FNH:1
DA:82,0
DA:83,0
DA:215,26
DA:221,148
DA:223,26
DA:225,0
DA:228,0
DA:273,26
DA:307,0
DA:927,0
DA:928,0
DA:929,0
DA:930,0
DA:949,0
LF:14
LH:4
end_of_record
SF:/usr/include/c++/9/bits/basic_string.tcc
FN:206,_ZNSt7__cxx1112basic_stringIcSt11char_traitsIcESaIcEE12_M_constructIPcEEvT_S7_St20forward_iterator_tag
FNDA:0,_ZNSt7__cxx1112basic_stringIcSt11char_traitsIcESaIcEE12_M_constructIPcEEvT_S7_St20forward_iterator_tag
FN:206,_ZNSt7__cxx1112basic_stringIcSt11char_traitsIcESaIcEE12_M_constructIPKcEEvT_S8_St20forward_iterator_tag
FNDA:0,_ZNSt7__cxx1112basic_stringIcSt11char_traitsIcESaIcEE12_M_constructIPKcEEvT_S8_St20forward_iterator_tag
FNF:2
FNH:0
DA:206,0
DA:211,0
DA:212,0
DA:215,0
DA:217,0
DA:219,0
DA:220,0
DA:225,0
DA:232,0
DA:233,0
DA:206,0
DA:211,0
DA:212,0
DA:215,0
DA:217,0
DA:219,0
DA:220,0
DA:225,0
DA:232,0
DA:233,0
LF:20
LH:0
end_of_record
SF:/usr/include/c++/9/bits/std_function.h
FN:653,_ZNSt8functionIFbRKSt6vectorIjSaIjEEjEEC2ERKS6_
FNDA:0,_ZNSt8functionIFbRKSt6vectorIjSaIjEEjEEC2ERKS6_
FN:653,_ZNSt8functionIFbRKSt6vectorIjSaIjEEEEC2ERKS6_
FNDA:0,_ZNSt8functionIFbRKSt6vectorIjSaIjEEEEC2ERKS6_
FNF:2
FNH:0
DA:255,0
DA:258,0
DA:259,0
DA:260,0
DA:369,0
DA:396,0
DA:565,0
DA:653,0
DA:657,0
DA:659,0
DA:660,0
DA:661,0
DA:663,0
DA:653,0
DA:657,0
DA:659,0
DA:660,0
DA:661,0
DA:663,0
DA:686,0
DA:687,0
DA:688,0
LF:22
LH:0
end_of_record
SF:/qulacs-osaka/include/Eigen/src/Core/AssignEvaluator.h
FN:322,_ZN5Eigen8internal21dense_assignment_loopINS0_31generic_dense_assignment_kernelINS0_9evaluatorINS_6MatrixISt7complexIdELin1ELin1ELi1ELin1ELin1EEEEENS3_INS_14CwiseNullaryOpINS0_18scalar_constant_opIS6_EENS4_IS6_Lin1ELin1ELi0ELin1ELin1EEEEEEENS0_9assign_opIS6_S6_EELi0EEELi0ELi0EE3runERSH_
FNDA:0,_ZN5Eigen8internal21dense_assignment_loopINS0_31generic_dense_assignment_kernelINS0_9evaluatorINS_6MatrixISt7complexIdELin1ELin1ELi1ELin1ELin1EEEEENS3_INS_14CwiseNullaryOpINS0_18scalar_constant_opIS6_EENS4_IS6_Lin1ELin1ELi0ELin1ELin1EEEEEEENS0_9assign_opIS6_S6_EELi0EEELi0ELi0EE3runERSH_
FN:725,_ZN5Eigen8internal26call_dense_assignment_loopINS_6MatrixISt7complexIdELin1ELin1ELi1ELin1ELin1EEENS_14CwiseNullaryOpINS0_18scalar_constant_opIS4_EENS2_IS4_Lin1ELin1ELi0ELin1ELin1EEEEENS0_9assign_opIS4_S4_EEEEvRT_RKT0_RKT1_
FNDA:0,_ZN5Eigen8internal26call_dense_assignment_loopINS_6MatrixISt7complexIdELin1ELin1ELi1ELin1ELin1EEENS_14CwiseNullaryOpINS0_18scalar_constant_opIS4_EENS2_IS4_Lin1ELin1ELi0ELin1ELin1EEEEENS0_9assign_opIS4_S4_EEEEvRT_RKT0_RKT1_
FNF:2
FNH:0
DA:322,0
DA:324,0
DA:325,0
DA:329,0
DA:610,0
DA:611,0
DA:645,0
DA:719,0
DA:720,0
DA:725,0
DA:741,0
DA:742,0
DA:782,0
DA:879,0
LF:14
LH:0
end_of_record
SF:/usr/include/c++/9/bits/char_traits.h
DA:300,0
DA:363,0
DA:365,0
LF:3
LH:0
end_of_record
SF:/qulacs-osaka/include/Eigen/src/Core/util/Memory.h
FN:67,_ZN5Eigen8internal19throw_std_bad_allocEv
FNDA:0,_ZN5Eigen8internal19throw_std_bad_allocEv
FN:153,_ZN5Eigen8internal14aligned_mallocEm
FNDA:0,_ZN5Eigen8internal14aligned_mallocEm
FN:369,_ZN5Eigen8internal28conditional_aligned_new_autoISt7complexIdELb1EEEPT_m
FNDA:0,_ZN5Eigen8internal28conditional_aligned_new_autoISt7complexIdELb1EEEPT_m
FNF:3
FNH:0
DA:67,0
DA:70,0
DA:88,0
DA:89,0
DA:90,0
DA:91,0
DA:92,0
DA:98,0
DA:153,0
DA:167,0
DA:168,0
DA:170,0
DA:214,0
DA:288,0
DA:289,0
DA:369,0
DA:371,0
DA:374,0
DA:387,0
DA:493,0
DA:494,0
DA:496,0
LF:22
LH:0
end_of_record
SF:/usr/include/c++/9/iostream
LF:0
LH:0
end_of_record
SF:/usr/include/c++/9/bits/vector.tcc
FN:109,_ZNSt6vectorIjSaIjEE12emplace_backIJjEEEvDpOT_
FNDA:171382,_ZNSt6vectorIjSaIjEE12emplace_backIJjEEEvDpOT_
FN:109,_ZNSt6vectorIP15QuantumGateBaseSaIS1_EE12emplace_backIJS1_EEEvDpOT_
FNDA:0,_ZNSt6vectorIP15QuantumGateBaseSaIS1_EE12emplace_backIJS1_EEEvDpOT_
FN:109,_ZNSt6vectorIdSaIdEE12emplace_backIJdEEEvDpOT_
FNDA:0,_ZNSt6vectorIdSaIdEE12emplace_backIJdEEEvDpOT_
FN:109,_ZNSt6vectorIySaIyEE12emplace_backIJyEEEvDpOT_
FNDA:0,_ZNSt6vectorIySaIyEE12emplace_backIJyEEEvDpOT_
FN:109,_ZNSt6vectorISt4pairIdiESaIS1_EE12emplace_backIJS1_EEEvDpOT_
FNDA:0,_ZNSt6vectorISt4pairIdiESaIS1_EE12emplace_backIJS1_EEEvDpOT_
FN:198,_ZNSt6vectorI15TargetQubitInfoSaIS0_EEaSERKS2_
FNDA:0,_ZNSt6vectorI15TargetQubitInfoSaIS0_EEaSERKS2_
FN:198,_ZNSt6vectorI16ControlQubitInfoSaIS0_EEaSERKS2_
FNDA:0,_ZNSt6vectorI16ControlQubitInfoSaIS0_EEaSERKS2_
FN:198,_ZNSt6vectorIjSaIjEEaSERKS1_
FNDA:0,_ZNSt6vectorIjSaIjEEaSERKS1_
FN:198,_ZNSt6vectorIP15QuantumGateBaseSaIS1_EEaSERKS3_
FNDA:0,_ZNSt6vectorIP15QuantumGateBaseSaIS1_EEaSERKS3_
FN:426,_ZNSt6vectorIP15QuantumGateBaseSaIS1_EE17_M_realloc_insertIJRKS1_EEEvN9__gnu_cxx17__normal_iteratorIPS1_S3_EEDpOT_
FNDA:0,_ZNSt6vectorIP15QuantumGateBaseSaIS1_EE17_M_realloc_insertIJRKS1_EEEvN9__gnu_cxx17__normal_iteratorIPS1_S3_EEDpOT_
FN:426,_ZNSt6vectorIdSaIdEE17_M_realloc_insertIJRKdEEEvN9__gnu_cxx17__normal_iteratorIPdS1_EEDpOT_
FNDA:0,_ZNSt6vectorIdSaIdEE17_M_realloc_insertIJRKdEEEvN9__gnu_cxx17__normal_iteratorIPdS1_EEDpOT_
FN:426,_ZNSt6vectorIdSaIdEE17_M_realloc_insertIJdEEEvN9__gnu_cxx17__normal_iteratorIPdS1_EEDpOT_
FNDA:0,_ZNSt6vectorIdSaIdEE17_M_realloc_insertIJdEEEvN9__gnu_cxx17__normal_iteratorIPdS1_EEDpOT_
FN:426,_ZNSt6vectorIjSaIjEE17_M_realloc_insertIJRKjEEEvN9__gnu_cxx17__normal_iteratorIPjS1_EEDpOT_
FNDA:0,_ZNSt6vectorIjSaIjEE17_M_realloc_insertIJRKjEEEvN9__gnu_cxx17__normal_iteratorIPjS1_EEDpOT_
FN:426,_ZNSt6vectorIySaIyEE17_M_realloc_insertIJyEEEvN9__gnu_cxx17__normal_iteratorIPyS1_EEDpOT_
FNDA:0,_ZNSt6vectorIySaIyEE17_M_realloc_insertIJyEEEvN9__gnu_cxx17__normal_iteratorIPyS1_EEDpOT_
FN:426,_ZNSt6vectorISt4pairIdiESaIS1_EE17_M_realloc_insertIJS1_EEEvN9__gnu_cxx17__normal_iteratorIPS1_S3_EEDpOT_
FNDA:0,_ZNSt6vectorISt4pairIdiESaIS1_EE17_M_realloc_insertIJS1_EEEvN9__gnu_cxx17__normal_iteratorIPS1_S3_EEDpOT_
FN:426,_ZNSt6vectorIP15QuantumGateBaseSaIS1_EE17_M_realloc_insertIJS1_EEEvN9__gnu_cxx17__normal_iteratorIPS1_S3_EEDpOT_
FNDA:0,_ZNSt6vectorIP15QuantumGateBaseSaIS1_EE17_M_realloc_insertIJS1_EEEvN9__gnu_cxx17__normal_iteratorIPS1_S3_EEDpOT_
FN:426,_ZNSt6vectorIjSaIjEE17_M_realloc_insertIJjEEEvN9__gnu_cxx17__normal_iteratorIPjS1_EEDpOT_
FNDA:0,_ZNSt6vectorIjSaIjEE17_M_realloc_insertIJjEEEvN9__gnu_cxx17__normal_iteratorIPjS1_EEDpOT_
FN:509,_ZNSt6vectorIjSaIjEE14_M_fill_insertEN9__gnu_cxx17__normal_iteratorIPjS1_EEmRKj
FNDA:0,_ZNSt6vectorIjSaIjEE14_M_fill_insertEN9__gnu_cxx17__normal_iteratorIPjS1_EEmRKj
FNF:18
FNH:1
DA:109,171382
DA:112,171382
DA:115,2994
DA:117,2994
DA:121,168388
DA:125,171382
DA:109,0
DA:112,0
DA:115,0
DA:117,0
DA:121,0
DA:125,0
DA:109,0
DA:112,0
DA:117,0
DA:121,0
DA:125,0
DA:109,0
DA:112,0
DA:115,0
DA:117,0
DA:121,0
DA:125,0
DA:109,0
DA:112,0
DA:115,0
DA:117,0
DA:121,0
DA:125,0
DA:198,0
DA:201,0
DA:223,0
DA:224,0
DA:226,0
DA:228,0
DA:233,0
DA:234,0
DA:236,0
DA:243,0
DA:245,0
DA:246,0
DA:250,0
DA:252,0
DA:198,0
DA:201,0
DA:223,0
DA:224,0
DA:226,0
DA:228,0
DA:233,0
DA:234,0
DA:236,0
DA:243,0
DA:245,0
DA:246,0
DA:250,0
DA:252,0
DA:198,0
DA:201,0
DA:223,0
DA:224,0
DA:228,0
DA:233,0
DA:234,0
DA:236,0
DA:243,0
DA:250,0
DA:252,0
DA:198,0
DA:201,0
DA:223,0
DA:224,0
DA:228,0
DA:233,0
DA:234,0
DA:236,0
DA:243,0
DA:250,0
DA:252,0
DA:426,0
DA:435,0
DA:437,0
DA:438,0
DA:440,0
DA:449,0
DA:450,0
DA:464,0
DA:502,0
DA:503,0
DA:504,0
DA:505,0
DA:426,0
DA:435,0
DA:437,0
DA:438,0
DA:440,0
DA:449,0
DA:450,0
DA:464,0
DA:502,0
DA:503,0
DA:504,0
DA:505,0
DA:426,0
DA:435,0
DA:437,0
DA:438,0
DA:440,0
DA:449,0
DA:450,0
DA:464,0
DA:502,0
DA:503,0
DA:504,0
DA:505,0
DA:426,0
DA:435,0
DA:437,0
DA:438,0
DA:440,0
DA:449,0
DA:450,0
DA:464,0
DA:502,0
DA:503,0
DA:504,0
DA:505,0
DA:426,0
DA:435,0
DA:437,0
DA:438,0
DA:440,0
DA:449,0
DA:450,0
DA:464,0
DA:502,0
DA:503,0
DA:504,0
DA:505,0
DA:426,0
DA:435,0
DA:437,0
DA:438,0
DA:440,0
DA:449,0
DA:450,0
DA:464,0
DA:502,0
DA:503,0
DA:504,0
DA:505,0
DA:426,0
DA:435,0
DA:437,0
DA:438,0
DA:440,0
DA:449,0
DA:450,0
DA:464,0
DA:502,0
DA:503,0
DA:504,0
DA:505,0
DA:426,0
DA:435,0
DA:437,0
DA:438,0
DA:440,0
DA:449,0
DA:450,0
DA:464,0
DA:502,0
DA:503,0
DA:504,0
DA:505,0
DA:509,0
DA:512,0
DA:514,0
DA:515,0
DA:523,0
DA:525,0
DA:528,0
DA:532,0
DA:536,0
DA:542,0
DA:543,0
DA:551,0
DA:558,0
DA:561,0
DA:566,0
DA:573,0
DA:576,0
DA:580,0
DA:601,0
DA:602,0
DA:603,0
DA:606,0
LF:197
LH:6
end_of_record
SF:/usr/include/c++/9/bits/random.tcc
FN:396,_ZNSt23mersenne_twister_engineImLm64ELm312ELm156ELm31ELm13043109905998158313ELm29ELm6148914691236517205ELm17ELm8202884508482404352ELm37ELm18444473444759240704ELm43ELm6364136223846793005EE11_M_gen_randEv
FNDA:0,_ZNSt23mersenne_twister_engineImLm64ELm312ELm156ELm31ELm13043109905998158313ELm29ELm6148914691236517205ELm17ELm8202884508482404352ELm37ELm18444473444759240704ELm43ELm6364136223846793005EE11_M_gen_randEv
FN:452,_ZNSt23mersenne_twister_engineImLm64ELm312ELm156ELm31ELm13043109905998158313ELm29ELm6148914691236517205ELm17ELm8202884508482404352ELm37ELm18444473444759240704ELm43ELm6364136223846793005EEclEv
FNDA:0,_ZNSt23mersenne_twister_engineImLm64ELm312ELm156ELm31ELm13043109905998158313ELm29ELm6148914691236517205ELm17ELm8202884508482404352ELm37ELm18444473444759240704ELm43ELm6364136223846793005EEclEv
FN:3316,_ZSt18generate_canonicalIdLm53ESt23mersenne_twister_engineImLm64ELm312ELm156ELm31ELm13043109905998158313ELm29ELm6148914691236517205ELm17ELm8202884508482404352ELm37ELm18444473444759240704ELm43ELm6364136223846793005EEET_RT1_
FNDA:0,_ZSt18generate_canonicalIdLm53ESt23mersenne_twister_engineImLm64ELm312ELm156ELm31ELm13043109905998158313ELm29ELm6148914691236517205ELm17ELm8202884508482404352ELm37ELm18444473444759240704ELm43ELm6364136223846793005EEET_RT1_
FNF:3
FNH:0
DA:329,0
DA:332,0
DA:334,0
DA:335,0
DA:336,0
DA:337,0
DA:338,0
DA:341,0
DA:396,0
DA:403,0
DA:405,0
DA:406,0
DA:407,0
DA:408,0
DA:411,0
DA:413,0
DA:414,0
DA:415,0
DA:416,0
DA:419,0
DA:420,0
DA:421,0
DA:422,0
DA:423,0
DA:424,0
DA:452,0
DA:457,0
DA:458,0
DA:461,0
DA:462,0
DA:463,0
DA:464,0
DA:465,0
DA:467,0
DA:3316,0
DA:3332,0
DA:3334,0
DA:3335,0
DA:3337,0
DA:3338,0
DA:3347,0
LF:41
LH:0
end_of_record
SF:/qulacs-osaka/include/Eigen/src/Core/functors/AssignmentFunctors.h
DA:24,0
LF:1
LH:0
end_of_record
SF:/qulacs-osaka/include/Eigen/src/Core/DenseStorage.h
FN:353,_ZN5Eigen12DenseStorageISt7complexIdELin1ELin1ELin1ELi1EEC2ERKS3_
FNDA:0,_ZN5Eigen12DenseStorageISt7complexIdELin1ELin1ELin1ELi1EEC2ERKS3_
FN:402,_ZN5Eigen12DenseStorageISt7complexIdELin1ELin1ELin1ELi1EE6resizeElll
FNDA:0,_ZN5Eigen12DenseStorageISt7complexIdELin1ELin1ELin1ELi1EE6resizeElll
FNF:2
FNH:0
DA:353,0
DA:354,0
DA:355,0
DA:356,0
DA:359,0
DA:360,0
DA:391,0
DA:402,0
DA:404,0
DA:406,0
DA:407,0
DA:408,0
DA:410,0
DA:413,0
DA:414,0
DA:415,0
DA:500,0
DA:542,0
LF:18
LH:0
end_of_record
SF:/usr/include/c++/9/bits/stl_algo.h
FN:78,_ZSt22__move_median_to_firstIN9__gnu_cxx17__normal_iteratorIPjSt6vectorIjSaIjEEEENS0_5__ops15_Iter_less_iterEEvT_S9_S9_S9_T0_
FNDA:0,_ZSt22__move_median_to_firstIN9__gnu_cxx17__normal_iteratorIPjSt6vectorIjSaIjEEEENS0_5__ops15_Iter_less_iterEEvT_S9_S9_S9_T0_
FN:78,_ZSt22__move_median_to_firstISt16reverse_iteratorIN9__gnu_cxx17__normal_iteratorIPSt4pairIdiESt6vectorIS4_SaIS4_EEEEENS1_5__ops15_Iter_less_iterEEvT_SD_SD_SD_T0_
FNDA:0,_ZSt22__move_median_to_firstISt16reverse_iteratorIN9__gnu_cxx17__normal_iteratorIPSt4pairIdiESt6vectorIS4_SaIS4_EEEEENS1_5__ops15_Iter_less_iterEEvT_SD_SD_SD_T0_
FN:1667,_ZSt13__heap_selectIN9__gnu_cxx17__normal_iteratorIPjSt6vectorIjSaIjEEEENS0_5__ops15_Iter_less_iterEEvT_S9_S9_T0_
FNDA:0,_ZSt13__heap_selectIN9__gnu_cxx17__normal_iteratorIPjSt6vectorIjSaIjEEEENS0_5__ops15_Iter_less_iterEEvT_S9_S9_T0_
FN:1667,_ZSt13__heap_selectISt16reverse_iteratorIN9__gnu_cxx17__normal_iteratorIPSt4pairIdiESt6vectorIS4_SaIS4_EEEEENS1_5__ops15_Iter_less_iterEEvT_SD_SD_T0_
FNDA:0,_ZSt13__heap_selectISt16reverse_iteratorIN9__gnu_cxx17__normal_iteratorIPSt4pairIdiESt6vectorIS4_SaIS4_EEEEENS1_5__ops15_Iter_less_iterEEvT_SD_SD_T0_
FN:1820,_ZSt25__unguarded_linear_insertISt16reverse_iteratorIN9__gnu_cxx17__normal_iteratorIPSt4pairIdiESt6vectorIS4_SaIS4_EEEEENS1_5__ops14_Val_less_iterEEvT_T0_
FNDA:0,_ZSt25__unguarded_linear_insertISt16reverse_iteratorIN9__gnu_cxx17__normal_iteratorIPSt4pairIdiESt6vectorIS4_SaIS4_EEEEENS1_5__ops14_Val_less_iterEEvT_T0_
FN:1839,_ZSt16__insertion_sortIN9__gnu_cxx17__normal_iteratorIPjSt6vectorIjSaIjEEEENS0_5__ops15_Iter_less_iterEEvT_S9_T0_
FNDA:97732,_ZSt16__insertion_sortIN9__gnu_cxx17__normal_iteratorIPjSt6vectorIjSaIjEEEENS0_5__ops15_Iter_less_iterEEvT_S9_T0_
FN:1839,_ZSt16__insertion_sortISt16reverse_iteratorIN9__gnu_cxx17__normal_iteratorIPSt4pairIdiESt6vectorIS4_SaIS4_EEEEENS1_5__ops15_Iter_less_iterEEvT_SD_T0_
FNDA:0,_ZSt16__insertion_sortISt16reverse_iteratorIN9__gnu_cxx17__normal_iteratorIPSt4pairIdiESt6vectorIS4_SaIS4_EEEEENS1_5__ops15_Iter_less_iterEEvT_SD_T0_
FN:1879,_ZSt22__final_insertion_sortIN9__gnu_cxx17__normal_iteratorIPjSt6vectorIjSaIjEEEENS0_5__ops15_Iter_less_iterEEvT_S9_T0_
FNDA:97732,_ZSt22__final_insertion_sortIN9__gnu_cxx17__normal_iteratorIPjSt6vectorIjSaIjEEEENS0_5__ops15_Iter_less_iterEEvT_S9_T0_
FN:1879,_ZSt22__final_insertion_sortISt16reverse_iteratorIN9__gnu_cxx17__normal_iteratorIPSt4pairIdiESt6vectorIS4_SaIS4_EEEEENS1_5__ops15_Iter_less_iterEEvT_SD_T0_
FNDA:0,_ZSt22__final_insertion_sortISt16reverse_iteratorIN9__gnu_cxx17__normal_iteratorIPSt4pairIdiESt6vectorIS4_SaIS4_EEEEENS1_5__ops15_Iter_less_iterEEvT_SD_T0_
FN:1895,_ZSt21__unguarded_partitionISt16reverse_iteratorIN9__gnu_cxx17__normal_iteratorIPSt4pairIdiESt6vectorIS4_SaIS4_EEEEENS1_5__ops15_Iter_less_iterEET_SD_SD_SD_T0_
FNDA:0,_ZSt21__unguarded_partitionISt16reverse_iteratorIN9__gnu_cxx17__normal_iteratorIPSt4pairIdiESt6vectorIS4_SaIS4_EEEEENS1_5__ops15_Iter_less_iterEET_SD_SD_SD_T0_
FN:1916,_ZSt27__unguarded_partition_pivotIN9__gnu_cxx17__normal_iteratorIPjSt6vectorIjSaIjEEEENS0_5__ops15_Iter_less_iterEET_S9_S9_T0_
FNDA:0,_ZSt27__unguarded_partition_pivotIN9__gnu_cxx17__normal_iteratorIPjSt6vectorIjSaIjEEEENS0_5__ops15_Iter_less_iterEET_S9_S9_T0_
FN:1916,_ZSt27__unguarded_partition_pivotISt16reverse_iteratorIN9__gnu_cxx17__normal_iteratorIPSt4pairIdiESt6vectorIS4_SaIS4_EEEEENS1_5__ops15_Iter_less_iterEET_SD_SD_T0_
FNDA:0,_ZSt27__unguarded_partition_pivotISt16reverse_iteratorIN9__gnu_cxx17__normal_iteratorIPSt4pairIdiESt6vectorIS4_SaIS4_EEEEENS1_5__ops15_Iter_less_iterEET_SD_SD_T0_
FN:1939,_ZSt16__introsort_loopIN9__gnu_cxx17__normal_iteratorIPjSt6vectorIjSaIjEEEElNS0_5__ops15_Iter_less_iterEEvT_S9_T0_T1_
FNDA:97732,_ZSt16__introsort_loopIN9__gnu_cxx17__normal_iteratorIPjSt6vectorIjSaIjEEEElNS0_5__ops15_Iter_less_iterEEvT_S9_T0_T1_
FN:1939,_ZSt16__introsort_loopISt16reverse_iteratorIN9__gnu_cxx17__normal_iteratorIPSt4pairIdiESt6vectorIS4_SaIS4_EEEEElNS1_5__ops15_Iter_less_iterEEvT_SD_T0_T1_
FNDA:0,_ZSt16__introsort_loopISt16reverse_iteratorIN9__gnu_cxx17__normal_iteratorIPSt4pairIdiESt6vectorIS4_SaIS4_EEEEElNS1_5__ops15_Iter_less_iterEEvT_SD_T0_T1_
FN:5116,_ZSt11__set_unionIN9__gnu_cxx17__normal_iteratorIPjSt6vectorIjSaIjEEEES6_St20back_insert_iteratorIS5_ENS0_5__ops15_Iter_less_iterEET1_T_SC_T0_SD_SB_T2_
FNDA:128523,_ZSt11__set_unionIN9__gnu_cxx17__normal_iteratorIPjSt6vectorIjSaIjEEEES6_St20back_insert_iteratorIS5_ENS0_5__ops15_Iter_less_iterEET1_T_SC_T0_SD_SB_T2_
FNF:15
FNH:4
DA:78,0
DA:81,0
DA:83,0
DA:85,0
DA:90,0
DA:92,0
DA:96,0
DA:78,0
DA:96,0
DA:1667,0
DA:1671,0
DA:1672,0
DA:1673,0
DA:1675,0
DA:1667,0
DA:1671,0
DA:1672,0
DA:1674,0
DA:1675,0
DA:1820,0
DA:1824,0
DA:1827,56936
DA:1829,90
DA:1830,0
DA:1833,56846
DA:1834,0
DA:1839,97732
DA:1842,97732
DA:1844,176221
DA:1846,78489
DA:1851,21643
DA:1839,0
DA:1842,0
DA:1844,0
DA:1849,0
DA:1854,0
DA:1865,0
DA:1866,0
DA:1879,97732
DA:1882,97732
DA:1884,0
DA:1889,97732
DA:1890,97732
DA:1879,0
DA:1882,0
DA:1884,0
DA:1889,0
DA:1890,0
DA:1895,0
DA:1901,0
DA:1904,0
DA:1906,0
DA:1907,0
DA:1916,0
DA:1919,0
DA:1920,0
DA:1922,0
DA:1916,0
DA:1919,0
DA:1920,0
DA:1922,0
DA:1932,0
DA:1933,0
DA:1939,97732
DA:1943,97732
DA:1945,0
DA:1947,0
DA:1948,0
DA:1950,0
DA:1952,0
DA:1953,0
DA:1954,0
DA:1939,0
DA:1943,0
DA:1945,0
DA:1947,0
DA:1948,0
DA:1950,0
DA:1951,0
DA:1953,0
DA:1954,0
DA:2786,1613
DA:2787,1148
DA:2789,898
DA:2797,465
DA:4336,342746
DA:4337,171382
DA:4867,43556
DA:5116,128523
DA:5120,237799
DA:5122,109276
DA:5127,68302
DA:5141,128523
DA:5188,42841
LF:94
LH:27
end_of_record
SF:/usr/include/x86_64-linux-gnu/bits/string_fortified.h
DA:34,0
LF:1
LH:0
end_of_record
SF:/usr/include/c++/9/bits/move.h
DA:193,0
DA:194,0
DA:195,0
DA:196,0
LF:4
LH:0
end_of_record
SF:/usr/include/c++/9/streambuf
LF:0
LH:0
end_of_record
SF:/usr/include/c++/9/bits/stl_pair.h
DA:208,122
DA:303,122
DA:342,1035
DA:396,0
DA:397,0
DA:418,1009
DA:456,0
DA:529,1009
LF:8
LH:5
end_of_record
SF:/usr/include/c++/9/bits/ios_base.h
DA:707,0
DA:708,0
DA:709,0
DA:731,0
DA:732,0
LF:5
LH:0
end_of_record
SF:/usr/include/c++/9/ext/new_allocator.h
DA:128,192489
LF:1
LH:1
end_of_record
SF:/usr/include/c++/9/bits/locale_facets.h
FN:872,_ZNKSt5ctypeIcE5widenEc
FNDA:0,_ZNKSt5ctypeIcE5widenEc
FN:1084,_ZNKSt5ctypeIcE8do_widenEc
FNDA:0,_ZNKSt5ctypeIcE8do_widenEc
FNF:2
FNH:0
DA:872,0
DA:874,0
DA:875,0
DA:876,0
DA:877,0
DA:1084,0
DA:1085,0
LF:7
LH:0
end_of_record
SF:/usr/include/c++/9/bits/basic_string.h
DA:159,0
DA:160,0
DA:179,0
DA:183,0
DA:193,0
DA:203,0
DA:211,0
DA:217,0
DA:222,0
DA:231,0
DA:237,0
DA:247,0
DA:348,0
DA:349,0
DA:448,0
DA:451,0
DA:658,0
DA:705,0
DA:1070,0
DA:1188,0
DA:1366,0
DA:2313,0
DA:6177,0
DA:6421,0
LF:24
LH:0
end_of_record
SF:/qulacs-osaka/include/Eigen/src/Core/CwiseNullaryOp.h
DA:78,0
DA:80,0
LF:2
LH:0
end_of_record
SF:/qulacs-osaka/include/Eigen/src/Core/PlainObjectBase.h
FN:279,_ZN5Eigen15PlainObjectBaseINS_6MatrixISt7complexIdELin1ELin1ELi1ELin1ELin1EEEE6resizeEll
FNDA:0,_ZN5Eigen15PlainObjectBaseINS_6MatrixISt7complexIdELin1ELin1ELi1ELin1ELin1EEEE6resizeEll
FNF:1
FNH:0
DA:45,0
DA:46,0
DA:48,0
DA:98,0
DA:151,0
DA:153,0
DA:165,0
DA:256,0
DA:279,0
DA:293,0
DA:295,0
DA:319,0
DA:781,0
LF:13
LH:0
end_of_record
TN:
SF:/qulacs-osaka/src/cppsim/general_quantum_operator.hpp
FN:68,_ZNK22GeneralQuantumOperator12is_hermitianEv
FNDA:4,_ZNK22GeneralQuantumOperator12is_hermitianEv
FN:93,_ZNK22GeneralQuantumOperator15get_qubit_countEv
FNDA:2,_ZNK22GeneralQuantumOperator15get_qubit_countEv
FN:130,_ZNK22GeneralQuantumOperator9get_termsEv
FNDA:4,_ZNK22GeneralQuantumOperator9get_termsEv
FNF:3
FNH:3
DA:68,4
DA:93,2
DA:130,4
DA:131,4
LF:4
LH:4
end_of_record
SF:/qulacs-osaka/src/cppsim/circuit.cpp
FN:23,_ZN14QuantumCircuit20update_quantum_stateEP16QuantumStateBase
FNDA:4086,_ZN14QuantumCircuit20update_quantum_stateEP16QuantumStateBase
FN:36,_ZN14QuantumCircuit20update_quantum_stateEP16QuantumStateBasejj
FNDA:102000,_ZN14QuantumCircuit20update_quantum_stateEP16QuantumStateBasejj
FN:61,_ZN14QuantumCircuitC2ERKS_
FNDA:0,_ZN14QuantumCircuitC2ERKS_
FN:70,_ZN14QuantumCircuitC2Ej
FNDA:1988,_ZN14QuantumCircuitC2Ej
FN:75,_ZNK14QuantumCircuit4copyEv
FNDA:148,_ZNK14QuantumCircuit4copyEv
FN:83,_Z16check_gate_indexPK14QuantumCircuitPK15QuantumGateBase
FNDA:47437,_Z16check_gate_indexPK14QuantumCircuitPK15QuantumGateBase
FN:97,_ZN14QuantumCircuit8add_gateEP15QuantumGateBase
FNDA:44956,_ZN14QuantumCircuit8add_gateEP15QuantumGateBase
FN:108,_ZN14QuantumCircuit8add_gateEP15QuantumGateBasej
FNDA:2481,_ZN14QuantumCircuit8add_gateEP15QuantumGateBasej
FN:123,_ZN14QuantumCircuit13add_gate_copyEPK15QuantumGateBase
FNDA:2,_ZN14QuantumCircuit13add_gate_copyEPK15QuantumGateBase
FN:127,_ZN14QuantumCircuit13add_gate_copyEPK15QuantumGateBasej
FNDA:0,_ZN14QuantumCircuit13add_gate_copyEPK15QuantumGateBasej
FN:131,_ZN14QuantumCircuit14add_noise_gateEP15QuantumGateBaseNSt7__cxx1112basic_stringIcSt11char_traitsIcESaIcEEEd
FNDA:4,_ZN14QuantumCircuit14add_noise_gateEP15QuantumGateBaseNSt7__cxx1112basic_stringIcSt11char_traitsIcESaIcEEEd
FN:209,_ZN14QuantumCircuit19add_noise_gate_copyEP15QuantumGateBaseNSt7__cxx1112basic_stringIcSt11char_traitsIcESaIcEEEd
FNDA:0,_ZN14QuantumCircuit19add_noise_gate_copyEP15QuantumGateBaseNSt7__cxx1112basic_stringIcSt11char_traitsIcESaIcEEEd
FN:214,_ZN14QuantumCircuit11remove_gateEj
FNDA:4962,_ZN14QuantumCircuit11remove_gateEj
FN:224,_ZN14QuantumCircuitD2Ev
FNDA:284,_ZN14QuantumCircuitD2Ev
FN:224,_ZN14QuantumCircuitD0Ev
FNDA:148,_ZN14QuantumCircuitD0Ev
FN:230,_ZNK14QuantumCircuit11is_CliffordEv
FNDA:2,_ZNK14QuantumCircuit11is_CliffordEv
FN:235,_ZNK14QuantumCircuit11is_GaussianEv
FNDA:2,_ZNK14QuantumCircuit11is_GaussianEv
FN:240,_ZNK14QuantumCircuit15calculate_depthEv
FNDA:36,_ZNK14QuantumCircuit15calculate_depthEv
FN:269,_ZNK14QuantumCircuit9to_stringB5cxx11Ev
FNDA:2,_ZNK14QuantumCircuit9to_stringB5cxx11Ev
FN:297,_ZlsRSoRK14QuantumCircuit
FNDA:0,_ZlsRSoRK14QuantumCircuit
FN:301,_ZlsRSoPK14QuantumCircuit
FNDA:0,_ZlsRSoPK14QuantumCircuit
FN:306,_ZN14QuantumCircuit10add_X_gateEj
FNDA:28,_ZN14QuantumCircuit10add_X_gateEj
FN:309,_ZN14QuantumCircuit10add_Y_gateEj
FNDA:14,_ZN14QuantumCircuit10add_Y_gateEj
FN:312,_ZN14QuantumCircuit10add_Z_gateEj
FNDA:36,_ZN14QuantumCircuit10add_Z_gateEj
FN:315,_ZN14QuantumCircuit10add_H_gateEj
FNDA:2,_ZN14QuantumCircuit10add_H_gateEj
FN:318,_ZN14QuantumCircuit10add_S_gateEj
FNDA:2,_ZN14QuantumCircuit10add_S_gateEj
FN:321,_ZN14QuantumCircuit13add_Sdag_gateEj
FNDA:2,_ZN14QuantumCircuit13add_Sdag_gateEj
FN:324,_ZN14QuantumCircuit10add_T_gateEj
FNDA:239,_ZN14QuantumCircuit10add_T_gateEj
FN:327,_ZN14QuantumCircuit13add_Tdag_gateEj
FNDA:2,_ZN14QuantumCircuit13add_Tdag_gateEj
FN:330,_ZN14QuantumCircuit14add_sqrtX_gateEj
FNDA:214,_ZN14QuantumCircuit14add_sqrtX_gateEj
FN:333,_ZN14QuantumCircuit17add_sqrtXdag_gateEj
FNDA:2,_ZN14QuantumCircuit17add_sqrtXdag_gateEj
FN:336,_ZN14QuantumCircuit14add_sqrtY_gateEj
FNDA:192,_ZN14QuantumCircuit14add_sqrtY_gateEj
FN:339,_ZN14QuantumCircuit17add_sqrtYdag_gateEj
FNDA:2,_ZN14QuantumCircuit17add_sqrtYdag_gateEj
FN:342,_ZN14QuantumCircuit11add_P0_gateEj
FNDA:2,_ZN14QuantumCircuit11add_P0_gateEj
FN:345,_ZN14QuantumCircuit11add_P1_gateEj
FNDA:2,_ZN14QuantumCircuit11add_P1_gateEj
FN:348,_ZN14QuantumCircuit13add_CNOT_gateEjj
FNDA:281,_ZN14QuantumCircuit13add_CNOT_gateEjj
FN:351,_ZN14QuantumCircuit11add_CZ_gateEjj
FNDA:221,_ZN14QuantumCircuit11add_CZ_gateEjj
FN:354,_ZN14QuantumCircuit13add_SWAP_gateEjj
FNDA:83,_ZN14QuantumCircuit13add_SWAP_gateEjj
FN:357,_ZN14QuantumCircuit11add_RX_gateEjd
FNDA:2,_ZN14QuantumCircuit11add_RX_gateEjd
FN:360,_ZN14QuantumCircuit11add_RY_gateEjd
FNDA:2,_ZN14QuantumCircuit11add_RY_gateEjd
FN:363,_ZN14QuantumCircuit11add_RZ_gateEjd
FNDA:2,_ZN14QuantumCircuit11add_RZ_gateEjd
FN:366,_ZN14QuantumCircuit11add_U1_gateEjd
FNDA:0,_ZN14QuantumCircuit11add_U1_gateEjd
FN:369,_ZN14QuantumCircuit11add_U2_gateEjdd
FNDA:0,_ZN14QuantumCircuit11add_U2_gateEjdd
FN:372,_ZN14QuantumCircuit11add_U3_gateEjddd
FNDA:0,_ZN14QuantumCircuit11add_U3_gateEjddd
FN:376,_ZN14QuantumCircuit20add_multi_Pauli_gateESt6vectorIjSaIjEES2_
FNDA:0,_ZN14QuantumCircuit20add_multi_Pauli_gateESt6vectorIjSaIjEES2_
FN:380,_ZN14QuantumCircuit20add_multi_Pauli_gateERK13PauliOperator
FNDA:0,_ZN14QuantumCircuit20add_multi_Pauli_gateERK13PauliOperator
FN:384,_ZN14QuantumCircuit29add_multi_Pauli_rotation_gateESt6vectorIjSaIjEES2_d
FNDA:4,_ZN14QuantumCircuit29add_multi_Pauli_rotation_gateESt6vectorIjSaIjEES2_d
FN:390,_ZN14QuantumCircuit29add_multi_Pauli_rotation_gateERK13PauliOperator
FNDA:0,_ZN14QuantumCircuit29add_multi_Pauli_rotation_gateERK13PauliOperator
FN:402,_ZN14QuantumCircuit37add_diagonal_observable_rotation_gateERK24HermitianQuantumOperatord
FNDA:2,_ZN14QuantumCircuit37add_diagonal_observable_rotation_gateERK24HermitianQuantumOperatord
FN:421,_ZN14QuantumCircuit28add_observable_rotation_gateERK24HermitianQuantumOperatordj
FNDA:2,_ZN14QuantumCircuit28add_observable_rotation_gateERK24HermitianQuantumOperatordj
FN:443,_ZN14QuantumCircuit21add_dense_matrix_gateEjRKN5Eigen6MatrixISt7complexIdELin1ELin1ELi1ELin1ELin1EEE
FNDA:0,_ZN14QuantumCircuit21add_dense_matrix_gateEjRKN5Eigen6MatrixISt7complexIdELin1ELin1ELi1ELin1ELin1EEE
FN:455,_ZN14QuantumCircuit21add_dense_matrix_gateESt6vectorIjSaIjEERKN5Eigen6MatrixISt7complexIdELin1ELin1ELi1ELin1ELin1EEE
FNDA:0,_ZN14QuantumCircuit21add_dense_matrix_gateESt6vectorIjSaIjEERKN5Eigen6MatrixISt7complexIdELin1ELin1ELi1ELin1ELin1EEE
FN:469,_ZN14QuantumCircuit23add_random_unitary_gateESt6vectorIjSaIjEE
FNDA:600,_ZN14QuantumCircuit23add_random_unitary_gateESt6vectorIjSaIjEE
FN:474,_ZN14QuantumCircuit23add_random_unitary_gateESt6vectorIjSaIjEEj
FNDA:0,_ZN14QuantumCircuit23add_random_unitary_gateESt6vectorIjSaIjEEj
FNF:54
FNH:40
DA:23,4086
DA:24,4086
DA:28,0
DA:31,40677
DA:32,36591
DA:34,4086
DA:36,102000
DA:38,102000
DA:42,0
DA:44,102000
DA:48,0
DA:50,102000
DA:54,0
DA:56,500000
DA:57,398000
DA:59,102000
DA:61,0
DA:62,0
DA:64,0
DA:65,0
DA:66,0
DA:68,0
DA:70,1988
DA:71,1988
DA:72,1988
DA:73,1988
DA:75,148
DA:76,148
DA:77,4872
DA:78,4724
DA:80,148
DA:83,47437
DA:85,47437
DA:86,47437
DA:87,47437
DA:88,47437
DA:89,47409
DA:91,47437
DA:92,11303
DA:94,94874
DA:97,44956
DA:98,44956
DA:103,0
DA:105,44956
DA:106,44956
DA:108,2481
DA:109,2481
DA:113,0
DA:115,2481
DA:118,0
DA:120,2481
DA:121,2481
DA:123,2
DA:124,2
DA:125,2
DA:127,0
DA:128,0
DA:129,0
DA:131,4
DA:133,4
DA:134,4
DA:135,4
DA:136,4
DA:137,4
DA:138,0
DA:140,4
DA:141,4
DA:142,4
DA:143,0
DA:144,0
DA:145,0
DA:152,0
DA:153,0
DA:155,0
DA:156,0
DA:157,0
DA:163,0
DA:164,0
DA:166,0
DA:167,0
DA:168,0
DA:174,0
DA:175,0
DA:177,0
DA:178,0
DA:179,0
DA:186,0
DA:187,0
DA:189,0
DA:190,0
DA:191,0
DA:197,0
DA:198,0
DA:204,0
DA:205,0
DA:207,4
DA:209,0
DA:211,0
DA:212,0
DA:214,4962
DA:215,4962
DA:218,0
DA:220,4962
DA:221,4962
DA:222,4962
DA:224,148
DA:228,148
DA:224,284
DA:225,5823
DA:226,5539
DA:228,284
DA:230,2
DA:231,2
DA:232,2
DA:235,2
DA:236,2
DA:237,2
DA:240,36
DA:241,36
DA:242,36
DA:243,102
DA:244,66
DA:245,154
DA:246,88
DA:247,88
DA:248,88
DA:250,80
DA:251,14
DA:252,14
DA:253,14
DA:255,154
DA:256,88
DA:257,88
DA:259,80
DA:260,14
DA:261,14
DA:263,66
DA:264,128
DA:266,36
DA:269,2
DA:270,4
DA:271,2
DA:272,2
DA:274,4
DA:276,2
DA:277,2
DA:278,0
DA:279,0
DA:282,2
DA:283,2
DA:284,2
DA:285,2
DA:286,0
DA:289,4
DA:291,4
DA:294,2
DA:297,0
DA:298,0
DA:299,0
DA:301,0
DA:302,0
DA:303,0
DA:306,28
DA:307,28
DA:308,28
DA:309,14
DA:310,14
DA:311,14
DA:312,36
DA:313,36
DA:314,36
DA:315,2
DA:316,2
DA:317,2
DA:318,2
DA:319,2
DA:320,2
DA:321,2
DA:322,2
DA:323,2
DA:324,239
DA:325,239
DA:326,239
DA:327,2
DA:328,2
DA:329,2
DA:330,214
DA:331,214
DA:332,214
DA:333,2
DA:334,2
DA:335,2
DA:336,192
DA:337,192
DA:338,192
DA:339,2
DA:340,2
DA:341,2
DA:342,2
DA:343,2
DA:344,2
DA:345,2
DA:346,2
DA:347,2
DA:348,281
DA:349,281
DA:350,281
DA:351,221
DA:352,221
DA:353,221
DA:354,83
DA:355,83
DA:356,83
DA:357,2
DA:358,2
DA:359,2
DA:360,2
DA:361,2
DA:362,2
DA:363,2
DA:364,2
DA:365,2
DA:366,0
DA:367,0
DA:368,0
DA:369,0
DA:370,0
DA:371,0
DA:372,0
DA:374,0
DA:375,0
DA:376,0
DA:378,0
DA:379,0
DA:380,0
DA:381,0
DA:382,0
DA:383,0
DA:384,4
DA:387,8
DA:388,4
DA:389,4
DA:390,0
DA:393,0
DA:397,0
DA:399,0
DA:400,0
DA:401,0
DA:402,2
DA:404,2
DA:408,0
DA:410,2
DA:411,6
DA:412,8
DA:413,4
DA:414,4
DA:416,0
DA:418,4
DA:420,2
DA:421,2
DA:423,2
DA:427,0
DA:429,2
DA:430,2
DA:431,2
DA:432,0
DA:433,0
DA:435,96
DA:436,658
DA:437,1128
DA:438,1128
DA:439,1128
DA:442,2
DA:443,0
DA:445,0
DA:450,0
DA:453,0
DA:454,0
DA:455,0
DA:457,0
DA:463,0
DA:466,0
DA:467,0
DA:469,600
DA:471,600
DA:472,600
DA:474,0
DA:476,0
DA:477,0
LF:289
LH:192
end_of_record
SF:/usr/include/c++/9/bits/random.h
FN:1606,_ZNSt13random_deviceC2Ev
FNDA:0,_ZNSt13random_deviceC2Ev
FNF:1
FNH:0
DA:181,0
DA:519,0
DA:1606,0
DA:1612,0
DA:1643,0
DA:1751,0
DA:1752,0
DA:1862,0
DA:1981,0
DA:1982,0
DA:2017,0
DA:2019,0
LF:12
LH:0
end_of_record
SF:/qulacs-osaka/src/cppsim/utility.hpp
FN:58,_ZN6RandomC2Ev
FNDA:0,_ZN6RandomC2Ev
FNF:1
FNH:0
DA:58,0
DA:59,0
DA:60,0
DA:61,0
DA:74,0
DA:95,0
LF:6
LH:0
end_of_record
SF:/qulacs-osaka/include/Eigen/src/Core/util/XprHelper.h
DA:120,0
LF:1
LH:0
end_of_record
SF:/qulacs-osaka/src/cppsim/gate.hpp
FN:92,_ZN15QuantumGateBaseC2Ev
FNDA:0,_ZN15QuantumGateBaseC2Ev
FN:95,_ZN15QuantumGateBaseC2ERKS_
FNDA:0,_ZN15QuantumGateBaseC2ERKS_
FN:109,_ZN15QuantumGateBaseD0Ev
FNDA:0,_ZN15QuantumGateBaseD0Ev
FN:109,_ZN15QuantumGateBaseD2Ev
FNDA:0,_ZN15QuantumGateBaseD2Ev
FN:122,_ZNK15QuantumGateBase21get_target_index_listEv
FNDA:47441,_ZNK15QuantumGateBase21get_target_index_listEv
FN:133,_ZNK15QuantumGateBase22get_control_index_listEv
FNDA:47441,_ZNK15QuantumGateBase22get_control_index_listEv
FN:270,_ZN15QuantumGateBase8set_seedEi
FNDA:0,_ZN15QuantumGateBase8set_seedEi
FN:271,_ZN15QuantumGateBase27get_cumulative_distributionEv
FNDA:0,_ZN15QuantumGateBase27get_cumulative_distributionEv
FN:272,_ZN15QuantumGateBase13get_gate_listEv
FNDA:0,_ZN15QuantumGateBase13get_gate_listEv
FN:273,_ZN15QuantumGateBase25optimize_ProbablisticGateEv
FNDA:0,_ZN15QuantumGateBase25optimize_ProbablisticGateEv
FNF:10
FNH:2
DA:92,0
DA:93,0
DA:94,0
DA:95,0
DA:96,0
DA:97,0
DA:98,0
DA:99,0
DA:100,0
DA:101,0
DA:102,0
DA:109,0
DA:109,0
DA:122,47441
DA:123,47441
DA:124,104207
DA:125,56766
DA:126,47441
DA:133,47441
DA:134,47441
DA:135,58744
DA:136,11303
DA:137,47441
DA:270,0
DA:271,0
DA:272,0
DA:273,0
LF:27
LH:10
end_of_record
SF:/qulacs-osaka/include/Eigen/src/Core/CoreEvaluators.h
DA:155,0
DA:179,0
DA:187,0
DA:472,0
LF:4
LH:0
end_of_record
SF:/usr/include/c++/9/sstream
DA:832,2
LF:1
LH:1
end_of_record
SF:/usr/include/c++/9/bits/alloc_traits.h
DA:470,69994
LF:1
LH:1
end_of_record
SF:/usr/include/c++/9/bits/stl_iterator_base_funcs.h
DA:104,0
DA:180,0
LF:2
LH:0
end_of_record
SF:/usr/include/c++/9/bits/predefined_ops.h
DA:43,9353
DA:65,0
DA:90,0
LF:3
LH:1
end_of_record
SF:/qulacs-osaka/src/cppsim/qubit_info.hpp
DA:44,28
DA:96,176
LF:2
LH:2
end_of_record
SF:/qulacs-osaka/include/Eigen/src/Core/IO.h
FN:53,_ZN5Eigen8IOFormatC2EiiRKNSt7__cxx1112basic_stringIcSt11char_traitsIcESaIcEEES8_S8_S8_S8_S8_
FNDA:0,_ZN5Eigen8IOFormatC2EiiRKNSt7__cxx1112basic_stringIcSt11char_traitsIcESaIcEEES8_S8_S8_S8_S8_
FN:129,_ZN5Eigen8internal12print_matrixINS_6MatrixISt7complexIdELin1ELi1ELi0ELin1ELi1EEEEERSoS6_RKT_RKNS_8IOFormatE
FNDA:0,_ZN5Eigen8internal12print_matrixINS_6MatrixISt7complexIdELin1ELi1ELi0ELin1ELi1EEEEERSoS6_RKT_RKNS_8IOFormatE
FN:216,_ZN5EigenlsINS_6MatrixISt7complexIdELin1ELi1ELi0ELin1ELi1EEEEERSoS5_RKNS_9DenseBaseIT_EE
FNDA:0,_ZN5EigenlsINS_6MatrixISt7complexIdELin1ELi1ELi0ELin1ELi1EEEEERSoS5_RKNS_9DenseBaseIT_EE
FNF:3
FNH:0
DA:53,0
DA:57,0
DA:58,0
DA:62,0
DA:64,0
DA:65,0
DA:68,0
DA:129,0
DA:131,0
DA:134,0
DA:140,0
DA:143,0
DA:147,0
DA:160,0
DA:164,0
DA:166,0
DA:167,0
DA:170,0
DA:171,0
DA:173,0
DA:174,0
DA:175,0
DA:176,0
DA:180,0
DA:182,0
DA:185,0
DA:186,0
DA:194,0
DA:198,0
DA:216,0
DA:220,0
LF:31
LH:0
end_of_record
SF:/usr/include/c++/9/ext/string_conversions.h
FN:99,_ZN9__gnu_cxx12__to_xstringINSt7__cxx1112basic_stringIcSt11char_traitsIcESaIcEEEcEET_PFiPT0_mPKS8_P13__va_list_tagEmSB_z
FNDA:0,_ZN9__gnu_cxx12__to_xstringINSt7__cxx1112basic_stringIcSt11char_traitsIcESaIcEEEcEET_PFiPT0_mPKS8_P13__va_list_tagEmSB_z
FNF:1
FNH:0
DA:99,0
DA:105,0
DA:109,0
DA:111,0
DA:113,0
DA:115,0
LF:6
LH:0
end_of_record
SF:/usr/include/c++/9/bits/stl_algobase.h
DA:227,70076
DA:228,42626
DA:340,0
DA:342,0
DA:343,0
DA:344,0
DA:384,5466
DA:385,616
DA:386,5466
DA:387,0
DA:565,0
DA:586,2403
DA:587,2403
DA:588,2335
DA:713,0
DA:714,0
DA:770,68209
DA:771,163129
DA:772,68209
DA:974,0
DA:976,0
DA:979,0
DA:983,0
LF:23
LH:11
end_of_record
SF:/usr/include/c++/9/bits/exception.h
DA:63,0
LF:1
LH:0
end_of_record
SF:/usr/include/c++/9/bits/stl_vector.h
FN:507,_ZNSt6vectorIjSaIjEEC2EmRKS0_
FNDA:94882,_ZNSt6vectorIjSaIjEEC2EmRKS0_
FN:519,_ZNSt6vectorIjSaIjEEC2EmRKjRKS0_
FNDA:38,_ZNSt6vectorIjSaIjEEC2EmRKjRKS0_
FN:550,_ZNSt6vectorIP13PauliOperatorSaIS1_EEC2ERKS3_
FNDA:4,_ZNSt6vectorIP13PauliOperatorSaIS1_EEC2ERKS3_
FN:550,_ZNSt6vectorIP15QuantumGateBaseSaIS1_EEC2ERKS3_
FNDA:0,_ZNSt6vectorIP15QuantumGateBaseSaIS1_EEC2ERKS3_
FN:550,_ZNSt6vectorIdSaIdEEC2ERKS1_
FNDA:0,_ZNSt6vectorIdSaIdEEC2ERKS1_
FN:550,_ZNSt6vectorIjSaIjEEC2ERKS1_
FNDA:612,_ZNSt6vectorIjSaIjEEC2ERKS1_
FN:954,_ZNSt6vectorIjSaIjEE6resizeEmRKj
FNDA:0,_ZNSt6vectorIjSaIjEE6resizeEmRKj
FN:1184,_ZNSt6vectorIP15QuantumGateBaseSaIS1_EE9push_backERKS1_
FNDA:44956,_ZNSt6vectorIP15QuantumGateBaseSaIS1_EE9push_backERKS1_
FN:1184,_ZNSt6vectorIdSaIdEE9push_backERKd
FNDA:0,_ZNSt6vectorIdSaIdEE9push_backERKd
FN:1184,_ZNSt6vectorIjSaIjEE9push_backERKj
FNDA:0,_ZNSt6vectorIjSaIjEE9push_backERKj
FN:1753,_ZNKSt6vectorISt4pairIdiESaIS1_EE12_M_check_lenEmPKc
FNDA:0,_ZNKSt6vectorISt4pairIdiESaIS1_EE12_M_check_lenEmPKc
FN:1753,_ZNKSt6vectorIySaIyEE12_M_check_lenEmPKc
FNDA:0,_ZNKSt6vectorIySaIyEE12_M_check_lenEmPKc
FN:1753,_ZNKSt6vectorIP15QuantumGateBaseSaIS1_EE12_M_check_lenEmPKc
FNDA:11196,_ZNKSt6vectorIP15QuantumGateBaseSaIS1_EE12_M_check_lenEmPKc
FN:1753,_ZNKSt6vectorIdSaIdEE12_M_check_lenEmPKc
FNDA:0,_ZNKSt6vectorIdSaIdEE12_M_check_lenEmPKc
FN:1753,_ZNKSt6vectorIjSaIjEE12_M_check_lenEmPKc
FNDA:0,_ZNKSt6vectorIjSaIjEE12_M_check_lenEmPKc
FNF:15
FNH:6
DA:94,97524
DA:95,1136
DA:350,58633
DA:358,94920
DA:359,616
DA:360,94882
DA:507,94882
DA:509,94882
DA:519,38
DA:522,38
DA:550,4
DA:552,4
DA:554,4
DA:555,4
DA:558,4
DA:550,0
DA:552,0
DA:554,0
DA:555,0
DA:558,0
DA:550,0
DA:552,0
DA:554,0
DA:555,0
DA:558,0
DA:550,612
DA:552,612
DA:554,612
DA:555,612
DA:558,612
DA:677,2074
DA:680,47443
DA:916,367900
DA:954,0
DA:956,0
DA:957,0
DA:958,0
DA:959,0
DA:960,0
DA:997,0
DA:1043,471235
DA:1061,0
DA:1184,44956
DA:1186,44956
DA:1189,33772
DA:1191,33772
DA:1195,11184
DA:1196,44956
DA:1184,0
DA:1186,0
DA:1189,0
DA:1191,0
DA:1195,0
DA:1196,0
DA:1184,0
DA:1186,0
DA:1189,0
DA:1191,0
DA:1195,0
DA:1196,0
DA:1201,1892
DA:1428,4962
DA:1496,0
DA:1508,0
DA:1592,38
DA:1602,94882
DA:1706,2403
DA:1708,2403
DA:1753,0
DA:1755,0
DA:1756,0
DA:1758,0
DA:1759,0
DA:1753,0
DA:1755,0
DA:1756,0
DA:1758,0
DA:1759,0
DA:1753,11196
DA:1755,11196
DA:1756,0
DA:1758,11196
DA:1759,11196
DA:1753,0
DA:1755,0
DA:1756,0
DA:1758,0
DA:1759,0
DA:1753,0
DA:1755,0
DA:1756,0
DA:1758,0
DA:1759,0
DA:1766,94920
DA:1767,0
DA:1791,0
DA:1795,0
LF:97
LH:41
end_of_record
SF:/usr/include/c++/9/bits/std_abs.h
DA:72,0
LF:1
LH:0
end_of_record
SF:/qulacs-osaka/include/Eigen/src/Core/Matrix.h
FN:291,_ZN5Eigen6MatrixISt7complexIdELin1ELi1ELi0ELin1ELi1EEC2IyEERKT_
FNDA:0,_ZN5Eigen6MatrixISt7complexIdELin1ELi1ELi0ELin1ELi1EEC2IyEERKT_
FNF:1
FNH:0
DA:178,0
DA:225,0
DA:291,0
DA:294,0
DA:295,0
LF:5
LH:0
end_of_record
SF:/qulacs-osaka/src/cppsim/gate_general.hpp
FN:24,_ZN25QuantumGate_ProbabilisticC2ESt6vectorIdSaIdEES0_IP15QuantumGateBaseSaIS4_EE
FNDA:0,_ZN25QuantumGate_ProbabilisticC2ESt6vectorIdSaIdEES0_IP15QuantumGateBaseSaIS4_EE
FN:40,_ZN25QuantumGate_ProbabilisticD2Ev
FNDA:0,_ZN25QuantumGate_ProbabilisticD2Ev
FN:40,_ZN25QuantumGate_ProbabilisticD0Ev
FNDA:0,_ZN25QuantumGate_ProbabilisticD0Ev
FN:51,_ZN25QuantumGate_Probabilistic20update_quantum_stateEP16QuantumStateBase
FNDA:0,_ZN25QuantumGate_Probabilistic20update_quantum_stateEP16QuantumStateBase
FN:91,_ZNK25QuantumGate_Probabilistic4copyEv
FNDA:0,_ZNK25QuantumGate_Probabilistic4copyEv
FN:104,_ZNK25QuantumGate_Probabilistic10set_matrixERN5Eigen6MatrixISt7complexIdELin1ELin1ELi1ELin1ELin1EEE
FNDA:0,_ZNK25QuantumGate_Probabilistic10set_matrixERN5Eigen6MatrixISt7complexIdELin1ELin1ELi1ELin1ELin1EEE
FN:115,_ZN25QuantumGate_Probabilistic8set_seedEi
FNDA:0,_ZN25QuantumGate_Probabilistic8set_seedEi
FN:117,_ZN25QuantumGate_Probabilistic27get_cumulative_distributionEv
FNDA:0,_ZN25QuantumGate_Probabilistic27get_cumulative_distributionEv
FN:120,_ZN25QuantumGate_Probabilistic13get_gate_listEv
FNDA:0,_ZN25QuantumGate_Probabilistic13get_gate_listEv
FN:123,_ZN25QuantumGate_Probabilistic25optimize_ProbablisticGateEv
FNDA:0,_ZN25QuantumGate_Probabilistic25optimize_ProbablisticGateEv
FN:167,_ZN35QuantumGate_ProbabilisticInstrumentC2ESt6vectorIdSaIdEES0_IP15QuantumGateBaseSaIS4_EEj
FNDA:0,_ZN35QuantumGate_ProbabilisticInstrumentC2ESt6vectorIdSaIdEES0_IP15QuantumGateBaseSaIS4_EEj
FN:185,_ZN35QuantumGate_ProbabilisticInstrumentD2Ev
FNDA:0,_ZN35QuantumGate_ProbabilisticInstrumentD2Ev
FN:185,_ZN35QuantumGate_ProbabilisticInstrumentD0Ev
FNDA:0,_ZN35QuantumGate_ProbabilisticInstrumentD0Ev
FN:196,_ZN35QuantumGate_ProbabilisticInstrument20update_quantum_stateEP16QuantumStateBase
FNDA:0,_ZN35QuantumGate_ProbabilisticInstrument20update_quantum_stateEP16QuantumStateBase
FN:215,_ZNK35QuantumGate_ProbabilisticInstrument4copyEv
FNDA:0,_ZNK35QuantumGate_ProbabilisticInstrument4copyEv
FN:229,_ZNK35QuantumGate_ProbabilisticInstrument10set_matrixERN5Eigen6MatrixISt7complexIdELin1ELin1ELi1ELin1ELin1EEE
FNDA:0,_ZNK35QuantumGate_ProbabilisticInstrument10set_matrixERN5Eigen6MatrixISt7complexIdELin1ELin1ELi1ELin1ELin1EEE
FN:246,_ZN16QuantumGate_CPTPC2ESt6vectorIP15QuantumGateBaseSaIS2_EE
FNDA:0,_ZN16QuantumGate_CPTPC2ESt6vectorIP15QuantumGateBaseSaIS2_EE
FN:252,_ZN16QuantumGate_CPTPD2Ev
FNDA:0,_ZN16QuantumGate_CPTPD2Ev
FN:252,_ZN16QuantumGate_CPTPD0Ev
FNDA:0,_ZN16QuantumGate_CPTPD0Ev
FN:263,_ZN16QuantumGate_CPTP20update_quantum_stateEP16QuantumStateBase
FNDA:0,_ZN16QuantumGate_CPTP20update_quantum_stateEP16QuantumStateBase
FN:315,_ZNK16QuantumGate_CPTP4copyEv
FNDA:0,_ZNK16QuantumGate_CPTP4copyEv
FN:327,_ZNK16QuantumGate_CPTP10set_matrixERN5Eigen6MatrixISt7complexIdELin1ELin1ELi1ELin1ELin1EEE
FNDA:0,_ZNK16QuantumGate_CPTP10set_matrixERN5Eigen6MatrixISt7complexIdELin1ELin1ELi1ELin1ELin1EEE
FN:347,_ZN14QuantumGate_CPC2ESt6vectorIP15QuantumGateBaseSaIS2_EEbbb
FNDA:0,_ZN14QuantumGate_CPC2ESt6vectorIP15QuantumGateBaseSaIS2_EEbbb
FN:358,_ZN14QuantumGate_CPD2Ev
FNDA:0,_ZN14QuantumGate_CPD2Ev
FN:358,_ZN14QuantumGate_CPD0Ev
FNDA:0,_ZN14QuantumGate_CPD0Ev
FN:369,_ZN14QuantumGate_CP20update_quantum_stateEP16QuantumStateBase
FNDA:0,_ZN14QuantumGate_CP20update_quantum_stateEP16QuantumStateBase
FN:438,_ZNK14QuantumGate_CP4copyEv
FNDA:0,_ZNK14QuantumGate_CP4copyEv
FN:451,_ZNK14QuantumGate_CP10set_matrixERN5Eigen6MatrixISt7complexIdELin1ELin1ELi1ELin1ELin1EEE
FNDA:0,_ZNK14QuantumGate_CP10set_matrixERN5Eigen6MatrixISt7complexIdELin1ELin1ELi1ELin1ELin1EEE
FN:469,_ZN22QuantumGate_InstrumentC2ESt6vectorIP15QuantumGateBaseSaIS2_EEj
FNDA:0,_ZN22QuantumGate_InstrumentC2ESt6vectorIP15QuantumGateBaseSaIS2_EEj
FN:477,_ZN22QuantumGate_InstrumentD0Ev
FNDA:0,_ZN22QuantumGate_InstrumentD0Ev
FN:477,_ZN22QuantumGate_InstrumentD2Ev
FNDA:0,_ZN22QuantumGate_InstrumentD2Ev
FN:488,_ZN22QuantumGate_Instrument20update_quantum_stateEP16QuantumStateBase
FNDA:0,_ZN22QuantumGate_Instrument20update_quantum_stateEP16QuantumStateBase
FN:523,_ZNK22QuantumGate_Instrument4copyEv
FNDA:0,_ZNK22QuantumGate_Instrument4copyEv
FN:536,_ZNK22QuantumGate_Instrument10set_matrixERN5Eigen6MatrixISt7complexIdELin1ELin1ELi1ELin1ELin1EEE
FNDA:0,_ZNK22QuantumGate_Instrument10set_matrixERN5Eigen6MatrixISt7complexIdELin1ELin1ELi1ELin1ELin1EEE
FN:556,_ZN20QuantumGate_AdaptiveC2EP15QuantumGateBaseSt8functionIFbRKSt6vectorIjSaIjEEEE
FNDA:0,_ZN20QuantumGate_AdaptiveC2EP15QuantumGateBaseSt8functionIFbRKSt6vectorIjSaIjEEEE
FN:559,_ZN20QuantumGate_AdaptiveC2EP15QuantumGateBaseSt8functionIFbRKSt6vectorIjSaIjEEjEEj
FNDA:0,_ZN20QuantumGate_AdaptiveC2EP15QuantumGateBaseSt8functionIFbRKSt6vectorIjSaIjEEjEEj
FN:567,_ZN20QuantumGate_AdaptiveD2Ev
FNDA:0,_ZN20QuantumGate_AdaptiveD2Ev
FN:567,_ZN20QuantumGate_AdaptiveD0Ev
FNDA:0,_ZN20QuantumGate_AdaptiveD0Ev
FN:574,_ZN20QuantumGate_Adaptive20update_quantum_stateEP16QuantumStateBase
FNDA:0,_ZN20QuantumGate_Adaptive20update_quantum_stateEP16QuantumStateBase
FN:590,_ZNK20QuantumGate_Adaptive4copyEv
FNDA:0,_ZNK20QuantumGate_Adaptive4copyEv
FN:602,_ZNK20QuantumGate_Adaptive10set_matrixERN5Eigen6MatrixISt7complexIdELin1ELin1ELi1ELin1ELin1EEE
FNDA:0,_ZNK20QuantumGate_Adaptive10set_matrixERN5Eigen6MatrixISt7complexIdELin1ELin1ELi1ELin1ELin1EEE
FNF:41
FNH:0
DA:24,0
DA:26,0
DA:27,0
DA:28,0
DA:29,0
DA:30,0
DA:31,0
DA:35,0
DA:36,0
DA:37,0
DA:38,0
DA:40,0
DA:44,0
DA:40,0
DA:41,0
DA:42,0
DA:44,0
DA:51,0
DA:52,0
DA:58,0
DA:60,0
DA:61,0
DA:64,0
DA:65,0
DA:66,0
DA:68,0
DA:69,0
DA:70,0
DA:71,0
DA:72,0
DA:73,0
DA:74,0
DA:75,0
DA:77,0
DA:78,0
DA:79,0
DA:82,0
DA:83,0
DA:85,0
DA:91,0
DA:96,0
DA:104,0
DA:108,0
DA:109,0
DA:115,0
DA:117,0
DA:118,0
DA:120,0
DA:121,0
DA:123,0
DA:124,0
DA:126,0
DA:127,0
DA:131,0
DA:132,0
DA:133,0
DA:135,0
DA:137,0
DA:138,0
DA:139,0
DA:140,0
DA:141,0
DA:142,0
DA:144,0
DA:167,0
DA:170,0
DA:171,0
DA:172,0
DA:173,0
DA:174,0
DA:175,0
DA:176,0
DA:180,0
DA:181,0
DA:182,0
DA:183,0
DA:185,0
DA:189,0
DA:185,0
DA:186,0
DA:187,0
DA:189,0
DA:196,0
DA:202,0
DA:204,0
DA:205,0
DA:207,0
DA:208,0
DA:209,0
DA:215,0
DA:219,0
DA:221,0
DA:229,0
DA:233,0
DA:234,0
DA:246,0
DA:249,0
DA:250,0
DA:251,0
DA:252,0
DA:256,0
DA:252,0
DA:253,0
DA:254,0
DA:256,0
DA:263,0
DA:264,0
DA:268,0
DA:270,0
DA:271,0
DA:272,0
DA:273,0
DA:274,0
DA:275,0
DA:276,0
DA:277,0
DA:280,0
DA:283,0
DA:288,0
DA:290,0
DA:291,0
DA:292,0
DA:294,0
DA:295,0
DA:296,0
DA:297,0
DA:298,0
DA:299,0
DA:301,0
DA:302,0
DA:305,0
DA:306,0
DA:308,0
DA:315,0
DA:319,0
DA:320,0
DA:327,0
DA:331,0
DA:332,0
DA:347,0
DA:350,0
DA:352,0
DA:355,0
DA:356,0
DA:357,0
DA:358,0
DA:362,0
DA:358,0
DA:359,0
DA:360,0
DA:362,0
DA:369,0
DA:370,0
DA:374,0
DA:376,0
DA:382,0
DA:384,0
DA:385,0
DA:386,0
DA:387,0
DA:388,0
DA:392,0
DA:393,0
DA:394,0
DA:395,0
DA:396,0
DA:397,0
DA:398,0
DA:399,0
DA:403,0
DA:406,0
DA:407,0
DA:408,0
DA:411,0
DA:413,0
DA:414,0
DA:415,0
DA:417,0
DA:418,0
DA:419,0
DA:420,0
DA:421,0
DA:422,0
DA:424,0
DA:425,0
DA:428,0
DA:429,0
DA:431,0
DA:438,0
DA:442,0
DA:443,0
DA:444,0
DA:451,0
DA:455,0
DA:456,0
DA:469,0
DA:471,0
DA:474,0
DA:475,0
DA:476,0
DA:477,0
DA:481,0
DA:477,0
DA:478,0
DA:479,0
DA:481,0
DA:488,0
DA:492,0
DA:494,0
DA:496,0
DA:497,0
DA:498,0
DA:499,0
DA:500,0
DA:501,0
DA:502,0
DA:505,0
DA:506,0
DA:509,0
DA:514,0
DA:516,0
DA:517,0
DA:523,0
DA:527,0
DA:529,0
DA:536,0
DA:541,0
DA:542,0
DA:556,0
DA:558,0
DA:559,0
DA:562,0
DA:564,0
DA:565,0
DA:566,0
DA:567,0
DA:567,0
DA:574,0
DA:576,0
DA:577,0
DA:579,0
DA:581,0
DA:582,0
DA:584,0
DA:590,0
DA:591,0
DA:592,0
DA:594,0
DA:602,0
DA:607,0
DA:608,0
LF:251
LH:0
end_of_record
SF:/usr/include/c++/9/bits/stl_heap.h
FN:128,_ZSt11__push_heapISt16reverse_iteratorIN9__gnu_cxx17__normal_iteratorIPSt4pairIdiESt6vectorIS4_SaIS4_EEEEElS4_NS1_5__ops14_Iter_less_valEEvT_T0_SE_T1_RT2_
FNDA:0,_ZSt11__push_heapISt16reverse_iteratorIN9__gnu_cxx17__normal_iteratorIPSt4pairIdiESt6vectorIS4_SaIS4_EEEEElS4_NS1_5__ops14_Iter_less_valEEvT_T0_SE_T1_RT2_
FN:214,_ZSt13__adjust_heapISt16reverse_iteratorIN9__gnu_cxx17__normal_iteratorIPSt4pairIdiESt6vectorIS4_SaIS4_EEEEElS4_NS1_5__ops15_Iter_less_iterEEvT_T0_SE_T1_T2_
FNDA:0,_ZSt13__adjust_heapISt16reverse_iteratorIN9__gnu_cxx17__normal_iteratorIPSt4pairIdiESt6vectorIS4_SaIS4_EEEEElS4_NS1_5__ops15_Iter_less_iterEEvT_T0_SE_T1_T2_
FN:326,_ZSt11__make_heapISt16reverse_iteratorIN9__gnu_cxx17__normal_iteratorIPSt4pairIdiESt6vectorIS4_SaIS4_EEEEENS1_5__ops15_Iter_less_iterEEvT_SD_RT0_
FNDA:0,_ZSt11__make_heapISt16reverse_iteratorIN9__gnu_cxx17__normal_iteratorIPSt4pairIdiESt6vectorIS4_SaIS4_EEEEENS1_5__ops15_Iter_less_iterEEvT_SD_RT0_
FNF:3
FNH:0
DA:128,0
DA:132,0
DA:133,0
DA:137,0
DA:140,0
DA:214,0
DA:219,0
DA:221,0
DA:222,0
DA:228,0
DA:230,0
DA:231,0
DA:237,0
DA:239,0
DA:326,0
DA:334,0
DA:338,0
DA:339,0
DA:341,0
DA:342,0
DA:344,0
DA:345,0
DA:346,0
LF:23
LH:0
end_of_record
SF:/usr/include/c++/9/bits/stl_iterator.h
DA:137,0
DA:143,0
DA:144,0
DA:179,0
DA:207,0
DA:231,0
DA:232,0
DA:255,0
DA:418,0
DA:535,1892
DA:807,4602
DA:811,2481
DA:815,2481
DA:829,69957
DA:830,47694
DA:841,0
DA:856,0
DA:860,12405
DA:868,0
DA:896,4
DA:985,2481
DA:992,11196
LF:22
LH:10
end_of_record
SF:/usr/include/c++/9/new
DA:57,0
LF:1
LH:0
end_of_record
SF:/usr/include/c++/9/complex
DA:684,0
DA:1234,0
DA:1252,568
DA:1256,0
DA:1282,0
DA:1348,0
LF:6
LH:1
end_of_record
SF:/usr/include/c++/9/streambuf
LF:0
LH:0
end_of_record
SF:/usr/include/x86_64-linux-gnu/bits/string_fortified.h
DA:34,0
LF:1
LH:0
end_of_record
SF:/usr/include/c++/9/bits/move.h
DA:193,0
DA:194,0
DA:195,0
LF:3
LH:0
end_of_record
SF:/usr/include/c++/9/bits/stl_algo.h
FN:78,_ZSt22__move_median_to_firstISt16reverse_iteratorIN9__gnu_cxx17__normal_iteratorIPSt4pairIdiESt6vectorIS4_SaIS4_EEEEENS1_5__ops15_Iter_less_iterEEvT_SD_SD_SD_T0_
FNDA:0,_ZSt22__move_median_to_firstISt16reverse_iteratorIN9__gnu_cxx17__normal_iteratorIPSt4pairIdiESt6vectorIS4_SaIS4_EEEEENS1_5__ops15_Iter_less_iterEEvT_SD_SD_SD_T0_
FN:1667,_ZSt13__heap_selectISt16reverse_iteratorIN9__gnu_cxx17__normal_iteratorIPSt4pairIdiESt6vectorIS4_SaIS4_EEEEENS1_5__ops15_Iter_less_iterEEvT_SD_SD_T0_
FNDA:0,_ZSt13__heap_selectISt16reverse_iteratorIN9__gnu_cxx17__normal_iteratorIPSt4pairIdiESt6vectorIS4_SaIS4_EEEEENS1_5__ops15_Iter_less_iterEEvT_SD_SD_T0_
FN:1820,_ZSt25__unguarded_linear_insertISt16reverse_iteratorIN9__gnu_cxx17__normal_iteratorIPSt4pairIdiESt6vectorIS4_SaIS4_EEEEENS1_5__ops14_Val_less_iterEEvT_T0_
FNDA:0,_ZSt25__unguarded_linear_insertISt16reverse_iteratorIN9__gnu_cxx17__normal_iteratorIPSt4pairIdiESt6vectorIS4_SaIS4_EEEEENS1_5__ops14_Val_less_iterEEvT_T0_
FN:1839,_ZSt16__insertion_sortISt16reverse_iteratorIN9__gnu_cxx17__normal_iteratorIPSt4pairIdiESt6vectorIS4_SaIS4_EEEEENS1_5__ops15_Iter_less_iterEEvT_SD_T0_
FNDA:0,_ZSt16__insertion_sortISt16reverse_iteratorIN9__gnu_cxx17__normal_iteratorIPSt4pairIdiESt6vectorIS4_SaIS4_EEEEENS1_5__ops15_Iter_less_iterEEvT_SD_T0_
FN:1879,_ZSt22__final_insertion_sortISt16reverse_iteratorIN9__gnu_cxx17__normal_iteratorIPSt4pairIdiESt6vectorIS4_SaIS4_EEEEENS1_5__ops15_Iter_less_iterEEvT_SD_T0_
FNDA:0,_ZSt22__final_insertion_sortISt16reverse_iteratorIN9__gnu_cxx17__normal_iteratorIPSt4pairIdiESt6vectorIS4_SaIS4_EEEEENS1_5__ops15_Iter_less_iterEEvT_SD_T0_
FN:1895,_ZSt21__unguarded_partitionISt16reverse_iteratorIN9__gnu_cxx17__normal_iteratorIPSt4pairIdiESt6vectorIS4_SaIS4_EEEEENS1_5__ops15_Iter_less_iterEET_SD_SD_SD_T0_
FNDA:0,_ZSt21__unguarded_partitionISt16reverse_iteratorIN9__gnu_cxx17__normal_iteratorIPSt4pairIdiESt6vectorIS4_SaIS4_EEEEENS1_5__ops15_Iter_less_iterEET_SD_SD_SD_T0_
FN:1916,_ZSt27__unguarded_partition_pivotISt16reverse_iteratorIN9__gnu_cxx17__normal_iteratorIPSt4pairIdiESt6vectorIS4_SaIS4_EEEEENS1_5__ops15_Iter_less_iterEET_SD_SD_T0_
FNDA:0,_ZSt27__unguarded_partition_pivotISt16reverse_iteratorIN9__gnu_cxx17__normal_iteratorIPSt4pairIdiESt6vectorIS4_SaIS4_EEEEENS1_5__ops15_Iter_less_iterEET_SD_SD_T0_
FN:1939,_ZSt16__introsort_loopISt16reverse_iteratorIN9__gnu_cxx17__normal_iteratorIPSt4pairIdiESt6vectorIS4_SaIS4_EEEEElNS1_5__ops15_Iter_less_iterEEvT_SD_T0_T1_
FNDA:0,_ZSt16__introsort_loopISt16reverse_iteratorIN9__gnu_cxx17__normal_iteratorIPSt4pairIdiESt6vectorIS4_SaIS4_EEEEElNS1_5__ops15_Iter_less_iterEEvT_SD_T0_T1_
FNF:8
FNH:0
DA:78,0
DA:96,0
DA:171,4
DA:566,4
DA:1667,0
DA:1671,0
DA:1672,0
DA:1674,0
DA:1675,0
DA:1820,0
DA:1824,0
DA:1830,0
DA:1834,0
DA:1839,0
DA:1842,0
DA:1844,0
DA:1849,0
DA:1854,0
DA:1865,0
DA:1866,0
DA:1879,0
DA:1882,0
DA:1884,0
DA:1889,0
DA:1890,0
DA:1895,0
DA:1906,0
DA:1907,0
DA:1916,0
DA:1919,0
DA:1920,0
DA:1922,0
DA:1939,0
DA:1943,0
DA:1945,0
DA:1947,0
DA:1948,0
DA:1950,0
DA:1951,0
DA:1953,0
DA:1954,0
DA:4336,3028
DA:4337,1892
DA:4867,0
DA:5691,68065
DA:5692,9353
LF:46
LH:6
end_of_record
SF:/qulacs-osaka/include/Eigen/src/Core/DenseStorage.h
FN:353,_ZN5Eigen12DenseStorageISt7complexIdELin1ELin1ELin1ELi1EEC2ERKS3_
FNDA:0,_ZN5Eigen12DenseStorageISt7complexIdELin1ELin1ELin1ELi1EEC2ERKS3_
FN:402,_ZN5Eigen12DenseStorageISt7complexIdELin1ELin1ELin1ELi1EE6resizeElll
FNDA:0,_ZN5Eigen12DenseStorageISt7complexIdELin1ELin1ELin1ELi1EE6resizeElll
FNF:2
FNH:0
DA:353,0
DA:354,0
DA:355,0
DA:356,0
DA:359,0
DA:360,0
DA:391,0
DA:402,0
DA:404,0
DA:406,0
DA:407,0
DA:408,0
DA:410,0
DA:413,0
DA:414,0
DA:415,0
DA:500,0
DA:542,0
LF:18
LH:0
end_of_record
SF:/qulacs-osaka/include/Eigen/src/Core/functors/AssignmentFunctors.h
DA:24,0
LF:1
LH:0
end_of_record
SF:/usr/include/c++/9/bits/random.tcc
FN:396,_ZNSt23mersenne_twister_engineImLm64ELm312ELm156ELm31ELm13043109905998158313ELm29ELm6148914691236517205ELm17ELm8202884508482404352ELm37ELm18444473444759240704ELm43ELm6364136223846793005EE11_M_gen_randEv
FNDA:0,_ZNSt23mersenne_twister_engineImLm64ELm312ELm156ELm31ELm13043109905998158313ELm29ELm6148914691236517205ELm17ELm8202884508482404352ELm37ELm18444473444759240704ELm43ELm6364136223846793005EE11_M_gen_randEv
FN:452,_ZNSt23mersenne_twister_engineImLm64ELm312ELm156ELm31ELm13043109905998158313ELm29ELm6148914691236517205ELm17ELm8202884508482404352ELm37ELm18444473444759240704ELm43ELm6364136223846793005EEclEv
FNDA:0,_ZNSt23mersenne_twister_engineImLm64ELm312ELm156ELm31ELm13043109905998158313ELm29ELm6148914691236517205ELm17ELm8202884508482404352ELm37ELm18444473444759240704ELm43ELm6364136223846793005EEclEv
FN:3316,_ZSt18generate_canonicalIdLm53ESt23mersenne_twister_engineImLm64ELm312ELm156ELm31ELm13043109905998158313ELm29ELm6148914691236517205ELm17ELm8202884508482404352ELm37ELm18444473444759240704ELm43ELm6364136223846793005EEET_RT1_
FNDA:0,_ZSt18generate_canonicalIdLm53ESt23mersenne_twister_engineImLm64ELm312ELm156ELm31ELm13043109905998158313ELm29ELm6148914691236517205ELm17ELm8202884508482404352ELm37ELm18444473444759240704ELm43ELm6364136223846793005EEET_RT1_
FNF:3
FNH:0
DA:329,0
DA:332,0
DA:334,0
DA:335,0
DA:336,0
DA:337,0
DA:338,0
DA:341,0
DA:396,0
DA:403,0
DA:405,0
DA:406,0
DA:407,0
DA:408,0
DA:411,0
DA:413,0
DA:414,0
DA:415,0
DA:416,0
DA:419,0
DA:420,0
DA:421,0
DA:422,0
DA:423,0
DA:424,0
DA:452,0
DA:457,0
DA:458,0
DA:461,0
DA:462,0
DA:463,0
DA:464,0
DA:465,0
DA:467,0
DA:3316,0
DA:3332,0
DA:3334,0
DA:3335,0
DA:3337,0
DA:3338,0
DA:3347,0
LF:41
LH:0
end_of_record
SF:/usr/include/c++/9/bits/vector.tcc
FN:109,_ZNSt6vectorIjSaIjEE12emplace_backIJjEEEvDpOT_
FNDA:1892,_ZNSt6vectorIjSaIjEE12emplace_backIJjEEEvDpOT_
FN:109,_ZNSt6vectorIdSaIdEE12emplace_backIJdEEEvDpOT_
FNDA:0,_ZNSt6vectorIdSaIdEE12emplace_backIJdEEEvDpOT_
FN:109,_ZNSt6vectorIySaIyEE12emplace_backIJyEEEvDpOT_
FNDA:0,_ZNSt6vectorIySaIyEE12emplace_backIJyEEEvDpOT_
FN:109,_ZNSt6vectorISt4pairIdiESaIS1_EE12emplace_backIJS1_EEEvDpOT_
FNDA:0,_ZNSt6vectorISt4pairIdiESaIS1_EE12emplace_backIJS1_EEEvDpOT_
FN:109,_ZNSt6vectorIP15QuantumGateBaseSaIS1_EE12emplace_backIJS1_EEEvDpOT_
FNDA:0,_ZNSt6vectorIP15QuantumGateBaseSaIS1_EE12emplace_backIJS1_EEEvDpOT_
FN:130,_ZNSt6vectorIP15QuantumGateBaseSaIS1_EE6insertEN9__gnu_cxx17__normal_iteratorIPKS1_S3_EERS6_
FNDA:2481,_ZNSt6vectorIP15QuantumGateBaseSaIS1_EE6insertEN9__gnu_cxx17__normal_iteratorIPKS1_S3_EERS6_
FN:171,_ZNSt6vectorIP15QuantumGateBaseSaIS1_EE8_M_eraseEN9__gnu_cxx17__normal_iteratorIPS1_S3_EE
FNDA:4962,_ZNSt6vectorIP15QuantumGateBaseSaIS1_EE8_M_eraseEN9__gnu_cxx17__normal_iteratorIPS1_S3_EE
FN:198,_ZNSt6vectorIP15QuantumGateBaseSaIS1_EEaSERKS3_
FNDA:0,_ZNSt6vectorIP15QuantumGateBaseSaIS1_EEaSERKS3_
FN:198,_ZNSt6vectorIjSaIjEEaSERKS1_
FNDA:0,_ZNSt6vectorIjSaIjEEaSERKS1_
FN:198,_ZNSt6vectorI16ControlQubitInfoSaIS0_EEaSERKS2_
FNDA:0,_ZNSt6vectorI16ControlQubitInfoSaIS0_EEaSERKS2_
FN:198,_ZNSt6vectorI15TargetQubitInfoSaIS0_EEaSERKS2_
FNDA:0,_ZNSt6vectorI15TargetQubitInfoSaIS0_EEaSERKS2_
FN:395,_ZNSt6vectorIP15QuantumGateBaseSaIS1_EE13_M_insert_auxIS1_EEvN9__gnu_cxx17__normal_iteratorIPS1_S3_EEOT_
FNDA:2403,_ZNSt6vectorIP15QuantumGateBaseSaIS1_EE13_M_insert_auxIS1_EEvN9__gnu_cxx17__normal_iteratorIPS1_S3_EEOT_
FN:426,_ZNSt6vectorIdSaIdEE17_M_realloc_insertIJdEEEvN9__gnu_cxx17__normal_iteratorIPdS1_EEDpOT_
FNDA:0,_ZNSt6vectorIdSaIdEE17_M_realloc_insertIJdEEEvN9__gnu_cxx17__normal_iteratorIPdS1_EEDpOT_
FN:426,_ZNSt6vectorIySaIyEE17_M_realloc_insertIJyEEEvN9__gnu_cxx17__normal_iteratorIPyS1_EEDpOT_
FNDA:0,_ZNSt6vectorIySaIyEE17_M_realloc_insertIJyEEEvN9__gnu_cxx17__normal_iteratorIPyS1_EEDpOT_
FN:426,_ZNSt6vectorIP15QuantumGateBaseSaIS1_EE17_M_realloc_insertIJRKS1_EEEvN9__gnu_cxx17__normal_iteratorIPS1_S3_EEDpOT_
FNDA:11196,_ZNSt6vectorIP15QuantumGateBaseSaIS1_EE17_M_realloc_insertIJRKS1_EEEvN9__gnu_cxx17__normal_iteratorIPS1_S3_EEDpOT_
FN:426,_ZNSt6vectorISt4pairIdiESaIS1_EE17_M_realloc_insertIJS1_EEEvN9__gnu_cxx17__normal_iteratorIPS1_S3_EEDpOT_
FNDA:0,_ZNSt6vectorISt4pairIdiESaIS1_EE17_M_realloc_insertIJS1_EEEvN9__gnu_cxx17__normal_iteratorIPS1_S3_EEDpOT_
FN:426,_ZNSt6vectorIP15QuantumGateBaseSaIS1_EE17_M_realloc_insertIJS1_EEEvN9__gnu_cxx17__normal_iteratorIPS1_S3_EEDpOT_
FNDA:0,_ZNSt6vectorIP15QuantumGateBaseSaIS1_EE17_M_realloc_insertIJS1_EEEvN9__gnu_cxx17__normal_iteratorIPS1_S3_EEDpOT_
FN:426,_ZNSt6vectorIdSaIdEE17_M_realloc_insertIJRKdEEEvN9__gnu_cxx17__normal_iteratorIPdS1_EEDpOT_
FNDA:0,_ZNSt6vectorIdSaIdEE17_M_realloc_insertIJRKdEEEvN9__gnu_cxx17__normal_iteratorIPdS1_EEDpOT_
FN:426,_ZNSt6vectorIjSaIjEE17_M_realloc_insertIJjEEEvN9__gnu_cxx17__normal_iteratorIPjS1_EEDpOT_
FNDA:0,_ZNSt6vectorIjSaIjEE17_M_realloc_insertIJjEEEvN9__gnu_cxx17__normal_iteratorIPjS1_EEDpOT_
FN:426,_ZNSt6vectorIjSaIjEE17_M_realloc_insertIJRKjEEEvN9__gnu_cxx17__normal_iteratorIPjS1_EEDpOT_
FNDA:0,_ZNSt6vectorIjSaIjEE17_M_realloc_insertIJRKjEEEvN9__gnu_cxx17__normal_iteratorIPjS1_EEDpOT_
FN:509,_ZNSt6vectorIjSaIjEE14_M_fill_insertEN9__gnu_cxx17__normal_iteratorIPjS1_EEmRKj
FNDA:0,_ZNSt6vectorIjSaIjEE14_M_fill_insertEN9__gnu_cxx17__normal_iteratorIPjS1_EEmRKj
FNF:21
FNH:5
DA:109,1892
DA:112,1892
DA:115,0
DA:117,0
DA:121,1892
DA:125,1892
DA:109,0
DA:112,0
DA:115,0
DA:117,0
DA:121,0
DA:125,0
DA:109,0
DA:112,0
DA:117,0
DA:121,0
DA:125,0
DA:109,0
DA:112,0
DA:115,0
DA:117,0
DA:121,0
DA:125,0
DA:109,0
DA:112,0
DA:115,0
DA:117,0
DA:121,0
DA:125,0
DA:130,2481
DA:138,2481
DA:139,2481
DA:142,78
DA:144,78
DA:150,2403
DA:154,2403
DA:161,0
DA:166,2481
DA:171,4962
DA:174,4962
DA:176,4962
DA:179,4962
DA:198,0
DA:201,0
DA:223,0
DA:224,0
DA:226,0
DA:228,0
DA:233,0
DA:234,0
DA:236,0
DA:243,0
DA:245,0
DA:246,0
DA:250,0
DA:252,0
DA:198,0
DA:201,0
DA:223,0
DA:224,0
DA:226,0
DA:228,0
DA:233,0
DA:234,0
DA:236,0
DA:243,0
DA:245,0
DA:246,0
DA:250,0
DA:252,0
DA:198,0
DA:201,0
DA:223,0
DA:224,0
DA:228,0
DA:233,0
DA:234,0
DA:236,0
DA:243,0
DA:250,0
DA:252,0
DA:198,0
DA:201,0
DA:223,0
DA:224,0
DA:228,0
DA:233,0
DA:234,0
DA:236,0
DA:243,0
DA:250,0
DA:252,0
DA:395,2403
DA:405,2403
DA:406,2403
DA:407,2403
DA:412,2403
DA:418,2403
DA:420,2403
DA:426,0
DA:435,0
DA:437,0
DA:438,0
DA:440,0
DA:449,0
DA:450,0
DA:464,0
DA:502,0
DA:503,0
DA:504,0
DA:505,0
DA:426,0
DA:435,0
DA:437,0
DA:438,0
DA:440,0
DA:449,0
DA:450,0
DA:464,0
DA:502,0
DA:503,0
DA:504,0
DA:505,0
DA:426,0
DA:435,0
DA:437,0
DA:438,0
DA:440,0
DA:449,0
DA:450,0
DA:464,0
DA:502,0
DA:503,0
DA:504,0
DA:505,0
DA:426,0
DA:435,0
DA:437,0
DA:438,0
DA:440,0
DA:449,0
DA:450,0
DA:464,0
DA:502,0
DA:503,0
DA:504,0
DA:505,0
DA:426,0
DA:435,0
DA:437,0
DA:438,0
DA:440,0
DA:449,0
DA:450,0
DA:464,0
DA:502,0
DA:503,0
DA:504,0
DA:505,0
DA:426,11196
DA:435,11196
DA:437,11196
DA:438,11196
DA:440,11196
DA:449,11196
DA:450,11196
DA:464,11196
DA:502,11196
DA:503,11196
DA:504,11196
DA:505,11196
DA:426,0
DA:435,0
DA:437,0
DA:438,0
DA:440,0
DA:449,0
DA:450,0
DA:464,0
DA:502,0
DA:503,0
DA:504,0
DA:505,0
DA:426,0
DA:435,0
DA:437,0
DA:438,0
DA:440,0
DA:449,0
DA:450,0
DA:464,0
DA:502,0
DA:503,0
DA:504,0
DA:505,0
DA:509,0
DA:512,0
DA:514,0
DA:515,0
DA:523,0
DA:525,0
DA:528,0
DA:532,0
DA:536,0
DA:542,0
DA:543,0
DA:551,0
DA:558,0
DA:561,0
DA:566,0
DA:573,0
DA:576,0
DA:580,0
DA:601,0
DA:602,0
DA:603,0
DA:606,0
LF:217
LH:35
end_of_record
SF:/qulacs-osaka/include/Eigen/src/Core/PlainObjectBase.h
FN:279,_ZN5Eigen15PlainObjectBaseINS_6MatrixISt7complexIdELin1ELin1ELi1ELin1ELin1EEEE6resizeEll
FNDA:0,_ZN5Eigen15PlainObjectBaseINS_6MatrixISt7complexIdELin1ELin1ELi1ELin1ELin1EEEE6resizeEll
FNF:1
FNH:0
DA:45,0
DA:46,0
DA:48,0
DA:98,0
DA:151,0
DA:153,0
DA:165,0
DA:256,0
DA:279,0
DA:293,0
DA:295,0
DA:319,0
DA:519,0
DA:520,0
DA:781,0
LF:15
LH:0
end_of_record
SF:/qulacs-osaka/include/Eigen/src/Core/CwiseNullaryOp.h
DA:78,0
DA:80,0
LF:2
LH:0
end_of_record
SF:/usr/include/c++/9/bits/basic_string.h
FN:6109,_ZStplIcSt11char_traitsIcESaIcEENSt7__cxx1112basic_stringIT_T0_T1_EEPKS5_OS8_
FNDA:0,_ZStplIcSt11char_traitsIcESaIcEENSt7__cxx1112basic_stringIT_T0_T1_EEPKS5_OS8_
FN:6121,_ZStplIcSt11char_traitsIcESaIcEENSt7__cxx1112basic_stringIT_T0_T1_EEOS8_PKS5_
FNDA:260,_ZStplIcSt11char_traitsIcESaIcEENSt7__cxx1112basic_stringIT_T0_T1_EEOS8_PKS5_
FNF:2
FNH:1
DA:157,0
DA:159,0
DA:160,260
DA:179,0
DA:183,260
DA:193,0
DA:203,260
DA:211,0
DA:217,0
DA:222,260
DA:231,0
DA:237,0
DA:247,0
DA:348,0
DA:349,0
DA:448,0
DA:451,0
DA:555,260
DA:563,260
DA:569,260
DA:658,0
DA:705,0
DA:1070,0
DA:1188,0
DA:1222,0
DA:1366,0
DA:2313,0
DA:6109,0
DA:6111,0
DA:6121,260
DA:6123,260
DA:6177,4
DA:6421,0
DA:6565,0
LF:34
LH:10
end_of_record
SF:/usr/include/c++/9/bits/locale_facets.h
FN:872,_ZNKSt5ctypeIcE5widenEc
FNDA:14,_ZNKSt5ctypeIcE5widenEc
FN:1084,_ZNKSt5ctypeIcE8do_widenEc
FNDA:0,_ZNKSt5ctypeIcE8do_widenEc
FNF:2
FNH:1
DA:872,14
DA:874,14
DA:875,14
DA:876,0
DA:877,0
DA:1084,0
DA:1085,0
LF:7
LH:3
end_of_record
SF:/usr/include/c++/9/ext/new_allocator.h
DA:128,69994
LF:1
LH:1
end_of_record
SF:/usr/include/c++/9/bits/stl_pair.h
DA:396,0
DA:397,0
DA:456,0
LF:3
LH:0
end_of_record
SF:/usr/include/c++/9/bits/ios_base.h
DA:707,0
DA:708,0
DA:709,0
DA:731,0
DA:732,0
LF:5
LH:0
end_of_record
SF:/qulacs-osaka/include/Eigen/src/Core/functors/NullaryFunctors.h
DA:19,0
LF:1
LH:0
end_of_record
SF:/qulacs-osaka/src/cppsim/exception.hpp
DA:35,0
DA:49,0
DA:105,0
DA:120,0
DA:134,0
DA:148,0
DA:191,0
DA:205,0
DA:219,0
DA:247,0
LF:10
LH:0
end_of_record
SF:/qulacs-osaka/src/cppsim/gate_matrix.hpp
FN:73,_ZN17QuantumGateMatrixD0Ev
FNDA:0,_ZN17QuantumGateMatrixD0Ev
FN:73,_ZN17QuantumGateMatrixD2Ev
FNDA:0,_ZN17QuantumGateMatrixD2Ev
FN:113,_ZNK17QuantumGateMatrix4copyEv
FNDA:0,_ZNK17QuantumGateMatrix4copyEv
FNF:3
FNH:0
DA:73,0
DA:73,0
DA:113,0
DA:114,0
LF:4
LH:0
end_of_record
SF:/usr/include/c++/9/ostream
DA:113,12
DA:171,2
DA:196,4
DA:206,0
DA:570,12
LF:5
LH:4
end_of_record
SF:/qulacs-osaka/src/cppsim/state.hpp
FN:66,_ZNK16QuantumStateBase15is_state_vectorEv
FNDA:0,_ZNK16QuantumStateBase15is_state_vectorEv
FN:253,_ZN16QuantumStateBase19get_classical_valueEj
FNDA:0,_ZN16QuantumStateBase19get_classical_valueEj
FN:267,_ZN16QuantumStateBase19set_classical_valueEjj
FNDA:0,_ZN16QuantumStateBase19set_classical_valueEjj
FN:279,_ZNK16QuantumStateBase22get_classical_registerEv
FNDA:0,_ZNK16QuantumStateBase22get_classical_registerEv
FN:299,_ZNK16QuantumStateBase9to_stringB5cxx11Ev
FNDA:0,_ZNK16QuantumStateBase9to_stringB5cxx11Ev
FN:333,_ZNK16QuantumStateBase15get_cuda_streamEv
FNDA:0,_ZNK16QuantumStateBase15get_cuda_streamEv
FN:347,_ZN15QuantumStateCpuC2Ej
FNDA:0,_ZN15QuantumStateCpuC2Ej
FN:356,_ZN15QuantumStateCpuD2Ev
FNDA:0,_ZN15QuantumStateCpuD2Ev
FN:356,_ZN15QuantumStateCpuD0Ev
FNDA:0,_ZN15QuantumStateCpuD0Ev
FN:360,_ZN15QuantumStateCpu14set_zero_stateEv
FNDA:0,_ZN15QuantumStateCpu14set_zero_stateEv
FN:367,_ZN15QuantumStateCpu19set_zero_norm_stateEv
FNDA:0,_ZN15QuantumStateCpu19set_zero_norm_stateEv
FN:377,_ZN15QuantumStateCpu23set_computational_basisEy
FNDA:0,_ZN15QuantumStateCpu23set_computational_basisEy
FN:392,_ZN15QuantumStateCpu21set_Haar_random_stateEv
FNDA:0,_ZN15QuantumStateCpu21set_Haar_random_stateEv
FN:400,_ZN15QuantumStateCpu21set_Haar_random_stateEj
FNDA:0,_ZN15QuantumStateCpu21set_Haar_random_stateEj
FN:411,_ZNK15QuantumStateCpu20get_zero_probabilityEj
FNDA:0,_ZNK15QuantumStateCpu20get_zero_probabilityEj
FN:427,_ZNK15QuantumStateCpu24get_marginal_probabilityESt6vectorIjSaIjEE
FNDA:0,_ZNK15QuantumStateCpu24get_marginal_probabilityESt6vectorIjSaIjEE
FN:454,_ZNK15QuantumStateCpu11get_entropyEv
FNDA:0,_ZNK15QuantumStateCpu11get_entropyEv
FN:464,_ZNK15QuantumStateCpu16get_squared_normEv
FNDA:0,_ZNK15QuantumStateCpu16get_squared_normEv
FN:474,_ZNK15QuantumStateCpu30get_squared_norm_single_threadEv
FNDA:0,_ZNK15QuantumStateCpu30get_squared_norm_single_threadEv
FN:483,_ZN15QuantumStateCpu9normalizeEd
FNDA:0,_ZN15QuantumStateCpu9normalizeEd
FN:492,_ZN15QuantumStateCpu23normalize_single_threadEd
FNDA:0,_ZN15QuantumStateCpu23normalize_single_threadEd
FN:501,_ZNK15QuantumStateCpu15allocate_bufferEv
FNDA:0,_ZNK15QuantumStateCpu15allocate_bufferEv
FN:510,_ZNK15QuantumStateCpu4copyEv
FNDA:0,_ZNK15QuantumStateCpu4copyEv
FN:521,_ZN15QuantumStateCpu4loadEPK16QuantumStateBase
FNDA:0,_ZN15QuantumStateCpu4loadEPK16QuantumStateBase
FN:541,_ZN15QuantumStateCpu4loadERKSt6vectorISt7complexIdESaIS2_EE
FNDA:0,_ZN15QuantumStateCpu4loadERKSt6vectorISt7complexIdESaIS2_EE
FN:554,_ZN15QuantumStateCpu4loadEPKSt7complexIdE
FNDA:0,_ZN15QuantumStateCpu4loadEPKSt7complexIdE
FN:562,_ZNK15QuantumStateCpu15get_device_nameB5cxx11Ev
FNDA:0,_ZNK15QuantumStateCpu15get_device_nameB5cxx11Ev
FN:567,_ZNK15QuantumStateCpu4dataEv
FNDA:0,_ZNK15QuantumStateCpu4dataEv
FN:576,_ZNK15QuantumStateCpu8data_cppEv
FNDA:0,_ZNK15QuantumStateCpu8data_cppEv
FN:582,_ZNK15QuantumStateCpu6data_cEv
FNDA:0,_ZNK15QuantumStateCpu6data_cEv
FN:586,_ZNK15QuantumStateCpu16duplicate_data_cEv
FNDA:0,_ZNK15QuantumStateCpu16duplicate_data_cEv
FN:592,_ZNK15QuantumStateCpu18duplicate_data_cppEv
FNDA:0,_ZNK15QuantumStateCpu18duplicate_data_cppEv
FN:601,_ZN15QuantumStateCpu9add_stateEPK16QuantumStateBase
FNDA:0,_ZN15QuantumStateCpu9add_stateEPK16QuantumStateBase
FN:612,_ZN15QuantumStateCpu19add_state_with_coefESt7complexIdEPK16QuantumStateBase
FNDA:0,_ZN15QuantumStateCpu19add_state_with_coefESt7complexIdEPK16QuantumStateBase
FN:625,_ZN15QuantumStateCpu33add_state_with_coef_single_threadESt7complexIdEPK16QuantumStateBase
FNDA:0,_ZN15QuantumStateCpu33add_state_with_coef_single_threadESt7complexIdEPK16QuantumStateBase
FN:639,_ZN15QuantumStateCpu13multiply_coefESt7complexIdE
FNDA:0,_ZN15QuantumStateCpu13multiply_coefESt7complexIdE
FN:643,_ZN15QuantumStateCpu29multiply_elementwise_functionERKSt8functionIFSt7complexIdEyEE
FNDA:0,_ZN15QuantumStateCpu29multiply_elementwise_functionERKSt8functionIFSt7complexIdEyEE
FN:657,_ZN15QuantumStateCpu8samplingEj
FNDA:0,_ZN15QuantumStateCpu8samplingEj
FN:677,_ZN15QuantumStateCpu8samplingEjj
FNDA:0,_ZN15QuantumStateCpu8samplingEjj
FNF:39
FNH:0
DA:38,0
DA:39,0
DA:41,0
DA:42,0
DA:43,0
DA:44,0
DA:45,0
DA:61,0
DA:66,0
DA:253,0
DA:254,0
DA:255,0
DA:257,0
DA:267,0
DA:268,0
DA:269,0
DA:271,0
DA:272,0
DA:279,0
DA:280,0
DA:299,0
DA:300,0
DA:301,0
DA:302,0
DA:303,0
DA:305,0
DA:306,0
DA:307,0
DA:308,0
DA:333,0
DA:347,0
DA:348,0
DA:349,0
DA:350,0
DA:351,0
DA:352,0
DA:356,0
DA:356,0
DA:360,0
DA:361,0
DA:362,0
DA:367,0
DA:368,0
DA:369,0
DA:370,0
DA:377,0
DA:378,0
DA:382,0
DA:384,0
DA:385,0
DA:386,0
DA:387,0
DA:392,0
DA:393,0
DA:394,0
DA:395,0
DA:400,0
DA:401,0
DA:402,0
DA:411,0
DA:413,0
DA:416,0
DA:418,0
DA:427,0
DA:429,0
DA:433,0
DA:438,0
DA:439,0
DA:440,0
DA:441,0
DA:442,0
DA:445,0
DA:446,0
DA:454,0
DA:455,0
DA:464,0
DA:465,0
DA:474,0
DA:475,0
DA:483,0
DA:484,0
DA:485,0
DA:492,0
DA:493,0
DA:494,0
DA:501,0
DA:502,0
DA:503,0
DA:510,0
DA:511,0
DA:512,0
DA:513,0
DA:514,0
DA:515,0
DA:516,0
DA:521,0
DA:522,0
DA:525,0
DA:528,0
DA:529,0
DA:530,0
DA:531,0
DA:532,0
DA:534,0
DA:535,0
DA:537,0
DA:541,0
DA:542,0
DA:545,0
DA:548,0
DA:549,0
DA:554,0
DA:555,0
DA:556,0
DA:562,0
DA:567,0
DA:568,0
DA:576,0
DA:582,0
DA:583,0
DA:586,0
DA:587,0
DA:588,0
DA:589,0
DA:592,0
DA:593,0
DA:594,0
DA:595,0
DA:601,0
DA:602,0
DA:604,0
DA:606,0
DA:607,0
DA:612,0
DA:614,0
DA:617,0
DA:619,0
DA:625,0
DA:627,0
DA:630,0
DA:632,0
DA:633,0
DA:639,0
DA:640,0
DA:641,0
DA:643,0
DA:645,0
DA:646,0
DA:647,0
DA:649,0
DA:657,0
DA:660,0
DA:661,0
DA:662,0
DA:663,0
DA:664,0
DA:665,0
DA:668,0
DA:672,0
DA:673,0
DA:675,0
DA:677,0
DA:679,0
DA:680,0
LF:164
LH:0
end_of_record
SF:/qulacs-osaka/src/cppsim/circuit.hpp
FN:140,_ZN14QuantumCircuit13merge_circuitEPKS_
FNDA:0,_ZN14QuantumCircuit13merge_circuitEPKS_
FNF:1
FNH:0
DA:140,0
DA:141,0
DA:145,0
DA:147,0
DA:148,0
DA:150,0
LF:6
LH:0
end_of_record
SF:/usr/include/c++/9/iostream
LF:0
LH:0
end_of_record
SF:/qulacs-osaka/include/Eigen/src/Core/util/Memory.h
FN:67,_ZN5Eigen8internal19throw_std_bad_allocEv
FNDA:0,_ZN5Eigen8internal19throw_std_bad_allocEv
FN:153,_ZN5Eigen8internal14aligned_mallocEm
FNDA:0,_ZN5Eigen8internal14aligned_mallocEm
FN:369,_ZN5Eigen8internal28conditional_aligned_new_autoISt7complexIdELb1EEEPT_m
FNDA:0,_ZN5Eigen8internal28conditional_aligned_new_autoISt7complexIdELb1EEEPT_m
FNF:3
FNH:0
DA:67,0
DA:70,0
DA:88,0
DA:89,0
DA:90,0
DA:91,0
DA:92,0
DA:98,0
DA:153,0
DA:167,0
DA:168,0
DA:170,0
DA:214,0
DA:288,0
DA:289,0
DA:369,0
DA:371,0
DA:374,0
DA:387,0
DA:493,0
DA:494,0
DA:496,0
LF:22
LH:0
end_of_record
SF:/qulacs-osaka/src/cppsim/pauli_operator.hpp
FN:92,_ZNK13PauliOperator14get_index_listEv
FNDA:568,_ZNK13PauliOperator14get_index_listEv
FN:110,_ZNK13PauliOperator17get_pauli_id_listEv
FNDA:568,_ZNK13PauliOperator17get_pauli_id_listEv
FN:201,_ZNK13PauliOperator8get_coefEv
FNDA:568,_ZNK13PauliOperator8get_coefEv
FNF:3
FNH:3
DA:92,568
DA:96,568
DA:97,568
DA:110,568
DA:114,568
DA:115,568
DA:201,568
LF:7
LH:7
end_of_record
SF:/qulacs-osaka/include/Eigen/src/Core/AssignEvaluator.h
FN:322,_ZN5Eigen8internal21dense_assignment_loopINS0_31generic_dense_assignment_kernelINS0_9evaluatorINS_6MatrixISt7complexIdELin1ELin1ELi1ELin1ELin1EEEEENS3_INS_14CwiseNullaryOpINS0_18scalar_constant_opIS6_EENS4_IS6_Lin1ELin1ELi0ELin1ELin1EEEEEEENS0_9assign_opIS6_S6_EELi0EEELi0ELi0EE3runERSH_
FNDA:0,_ZN5Eigen8internal21dense_assignment_loopINS0_31generic_dense_assignment_kernelINS0_9evaluatorINS_6MatrixISt7complexIdELin1ELin1ELi1ELin1ELin1EEEEENS3_INS_14CwiseNullaryOpINS0_18scalar_constant_opIS6_EENS4_IS6_Lin1ELin1ELi0ELin1ELin1EEEEEEENS0_9assign_opIS6_S6_EELi0EEELi0ELi0EE3runERSH_
FN:725,_ZN5Eigen8internal26call_dense_assignment_loopINS_6MatrixISt7complexIdELin1ELin1ELi1ELin1ELin1EEENS_14CwiseNullaryOpINS0_18scalar_constant_opIS4_EENS2_IS4_Lin1ELin1ELi0ELin1ELin1EEEEENS0_9assign_opIS4_S4_EEEEvRT_RKT0_RKT1_
FNDA:0,_ZN5Eigen8internal26call_dense_assignment_loopINS_6MatrixISt7complexIdELin1ELin1ELi1ELin1ELin1EEENS_14CwiseNullaryOpINS0_18scalar_constant_opIS4_EENS2_IS4_Lin1ELin1ELi0ELin1ELin1EEEEENS0_9assign_opIS4_S4_EEEEvRT_RKT0_RKT1_
FNF:2
FNH:0
DA:322,0
DA:324,0
DA:325,0
DA:329,0
DA:610,0
DA:611,0
DA:645,0
DA:719,0
DA:720,0
DA:725,0
DA:741,0
DA:742,0
DA:782,0
DA:879,0
LF:14
LH:0
end_of_record
SF:/usr/include/c++/9/bits/char_traits.h
DA:300,0
DA:335,0
DA:363,0
DA:365,0
LF:4
LH:0
end_of_record
SF:/usr/include/c++/9/bits/basic_string.tcc
FN:206,_ZNSt7__cxx1112basic_stringIcSt11char_traitsIcESaIcEE12_M_constructIPcEEvT_S7_St20forward_iterator_tag
FNDA:0,_ZNSt7__cxx1112basic_stringIcSt11char_traitsIcESaIcEE12_M_constructIPcEEvT_S7_St20forward_iterator_tag
FN:206,_ZNSt7__cxx1112basic_stringIcSt11char_traitsIcESaIcEE12_M_constructIPKcEEvT_S8_St20forward_iterator_tag
FNDA:0,_ZNSt7__cxx1112basic_stringIcSt11char_traitsIcESaIcEE12_M_constructIPKcEEvT_S8_St20forward_iterator_tag
FN:1158,_ZStplIcSt11char_traitsIcESaIcEENSt7__cxx1112basic_stringIT_T0_T1_EEPKS5_RKS8_
FNDA:0,_ZStplIcSt11char_traitsIcESaIcEENSt7__cxx1112basic_stringIT_T0_T1_EEPKS5_RKS8_
FNF:3
FNH:0
DA:206,0
DA:211,0
DA:212,0
DA:215,0
DA:217,0
DA:219,0
DA:220,0
DA:225,0
DA:232,0
DA:233,0
DA:206,0
DA:211,0
DA:212,0
DA:215,0
DA:217,0
DA:219,0
DA:220,0
DA:225,0
DA:232,0
DA:233,0
DA:1158,0
DA:1166,0
DA:1167,0
DA:1169,0
LF:24
LH:0
end_of_record
SF:/usr/include/c++/9/bits/std_function.h
FN:653,_ZNSt8functionIFbRKSt6vectorIjSaIjEEjEEC2ERKS6_
FNDA:0,_ZNSt8functionIFbRKSt6vectorIjSaIjEEjEEC2ERKS6_
FN:653,_ZNSt8functionIFbRKSt6vectorIjSaIjEEEEC2ERKS6_
FNDA:0,_ZNSt8functionIFbRKSt6vectorIjSaIjEEEEC2ERKS6_
FNF:2
FNH:0
DA:255,0
DA:258,0
DA:259,0
DA:260,0
DA:369,0
DA:396,0
DA:565,0
DA:653,0
DA:657,0
DA:659,0
DA:660,0
DA:661,0
DA:663,0
DA:653,0
DA:657,0
DA:659,0
DA:660,0
DA:661,0
DA:663,0
DA:686,0
DA:687,0
DA:688,0
LF:22
LH:0
end_of_record
SF:/usr/include/c++/9/bits/stl_uninitialized.h
DA:82,0
DA:83,0
DA:307,0
DA:927,11196
DA:928,20400
DA:929,9204
DA:930,11196
DA:949,0
LF:8
LH:4
end_of_record
TN:
SF:/qulacs-osaka/src/cppsim/exception.hpp
DA:35,0
DA:49,0
DA:148,0
DA:191,0
DA:205,0
LF:5
LH:0
end_of_record
SF:/qulacs-osaka/src/cppsim/state.hpp
FN:66,_ZNK16QuantumStateBase15is_state_vectorEv
FNDA:0,_ZNK16QuantumStateBase15is_state_vectorEv
FN:253,_ZN16QuantumStateBase19get_classical_valueEj
FNDA:0,_ZN16QuantumStateBase19get_classical_valueEj
FN:267,_ZN16QuantumStateBase19set_classical_valueEjj
FNDA:0,_ZN16QuantumStateBase19set_classical_valueEjj
FN:279,_ZNK16QuantumStateBase22get_classical_registerEv
FNDA:0,_ZNK16QuantumStateBase22get_classical_registerEv
FN:299,_ZNK16QuantumStateBase9to_stringB5cxx11Ev
FNDA:0,_ZNK16QuantumStateBase9to_stringB5cxx11Ev
FN:333,_ZNK16QuantumStateBase15get_cuda_streamEv
FNDA:0,_ZNK16QuantumStateBase15get_cuda_streamEv
FN:347,_ZN15QuantumStateCpuC2Ej
FNDA:12,_ZN15QuantumStateCpuC2Ej
FN:356,_ZN15QuantumStateCpuD2Ev
FNDA:12,_ZN15QuantumStateCpuD2Ev
FN:356,_ZN15QuantumStateCpuD0Ev
FNDA:12,_ZN15QuantumStateCpuD0Ev
FN:360,_ZN15QuantumStateCpu14set_zero_stateEv
FNDA:6000,_ZN15QuantumStateCpu14set_zero_stateEv
FN:367,_ZN15QuantumStateCpu19set_zero_norm_stateEv
FNDA:0,_ZN15QuantumStateCpu19set_zero_norm_stateEv
FN:377,_ZN15QuantumStateCpu23set_computational_basisEy
FNDA:6000,_ZN15QuantumStateCpu23set_computational_basisEy
FN:392,_ZN15QuantumStateCpu21set_Haar_random_stateEv
FNDA:0,_ZN15QuantumStateCpu21set_Haar_random_stateEv
FN:400,_ZN15QuantumStateCpu21set_Haar_random_stateEj
FNDA:0,_ZN15QuantumStateCpu21set_Haar_random_stateEj
FN:411,_ZNK15QuantumStateCpu20get_zero_probabilityEj
FNDA:0,_ZNK15QuantumStateCpu20get_zero_probabilityEj
FN:427,_ZNK15QuantumStateCpu24get_marginal_probabilityESt6vectorIjSaIjEE
FNDA:0,_ZNK15QuantumStateCpu24get_marginal_probabilityESt6vectorIjSaIjEE
FN:454,_ZNK15QuantumStateCpu11get_entropyEv
FNDA:0,_ZNK15QuantumStateCpu11get_entropyEv
FN:464,_ZNK15QuantumStateCpu16get_squared_normEv
FNDA:0,_ZNK15QuantumStateCpu16get_squared_normEv
FN:474,_ZNK15QuantumStateCpu30get_squared_norm_single_threadEv
FNDA:0,_ZNK15QuantumStateCpu30get_squared_norm_single_threadEv
FN:483,_ZN15QuantumStateCpu9normalizeEd
FNDA:0,_ZN15QuantumStateCpu9normalizeEd
FN:492,_ZN15QuantumStateCpu23normalize_single_threadEd
FNDA:0,_ZN15QuantumStateCpu23normalize_single_threadEd
FN:501,_ZNK15QuantumStateCpu15allocate_bufferEv
FNDA:0,_ZNK15QuantumStateCpu15allocate_bufferEv
FN:510,_ZNK15QuantumStateCpu4copyEv
FNDA:0,_ZNK15QuantumStateCpu4copyEv
FN:521,_ZN15QuantumStateCpu4loadEPK16QuantumStateBase
FNDA:0,_ZN15QuantumStateCpu4loadEPK16QuantumStateBase
FN:541,_ZN15QuantumStateCpu4loadERKSt6vectorISt7complexIdESaIS2_EE
FNDA:0,_ZN15QuantumStateCpu4loadERKSt6vectorISt7complexIdESaIS2_EE
FN:554,_ZN15QuantumStateCpu4loadEPKSt7complexIdE
FNDA:0,_ZN15QuantumStateCpu4loadEPKSt7complexIdE
FN:562,_ZNK15QuantumStateCpu15get_device_nameB5cxx11Ev
FNDA:0,_ZNK15QuantumStateCpu15get_device_nameB5cxx11Ev
FN:567,_ZNK15QuantumStateCpu4dataEv
FNDA:0,_ZNK15QuantumStateCpu4dataEv
FN:576,_ZNK15QuantumStateCpu8data_cppEv
FNDA:0,_ZNK15QuantumStateCpu8data_cppEv
FN:582,_ZNK15QuantumStateCpu6data_cEv
FNDA:6000,_ZNK15QuantumStateCpu6data_cEv
FN:586,_ZNK15QuantumStateCpu16duplicate_data_cEv
FNDA:0,_ZNK15QuantumStateCpu16duplicate_data_cEv
FN:592,_ZNK15QuantumStateCpu18duplicate_data_cppEv
FNDA:0,_ZNK15QuantumStateCpu18duplicate_data_cppEv
FN:601,_ZN15QuantumStateCpu9add_stateEPK16QuantumStateBase
FNDA:0,_ZN15QuantumStateCpu9add_stateEPK16QuantumStateBase
FN:612,_ZN15QuantumStateCpu19add_state_with_coefESt7complexIdEPK16QuantumStateBase
FNDA:0,_ZN15QuantumStateCpu19add_state_with_coefESt7complexIdEPK16QuantumStateBase
FN:625,_ZN15QuantumStateCpu33add_state_with_coef_single_threadESt7complexIdEPK16QuantumStateBase
FNDA:0,_ZN15QuantumStateCpu33add_state_with_coef_single_threadESt7complexIdEPK16QuantumStateBase
FN:639,_ZN15QuantumStateCpu13multiply_coefESt7complexIdE
FNDA:0,_ZN15QuantumStateCpu13multiply_coefESt7complexIdE
FN:643,_ZN15QuantumStateCpu29multiply_elementwise_functionERKSt8functionIFSt7complexIdEyEE
FNDA:0,_ZN15QuantumStateCpu29multiply_elementwise_functionERKSt8functionIFSt7complexIdEyEE
FN:657,_ZN15QuantumStateCpu8samplingEj
FNDA:0,_ZN15QuantumStateCpu8samplingEj
FN:677,_ZN15QuantumStateCpu8samplingEjj
FNDA:0,_ZN15QuantumStateCpu8samplingEjj
FNF:39
FNH:6
DA:38,12
DA:39,12
DA:41,12
DA:42,12
DA:43,12
DA:44,12
DA:45,12
DA:61,12
DA:66,0
DA:253,0
DA:254,0
DA:255,0
DA:257,0
DA:267,0
DA:268,0
DA:269,0
DA:271,0
DA:272,0
DA:279,0
DA:280,0
DA:299,0
DA:300,0
DA:301,0
DA:302,0
DA:303,0
DA:305,0
DA:306,0
DA:307,0
DA:308,0
DA:333,0
DA:347,12
DA:348,12
DA:349,12
DA:350,12
DA:351,12
DA:352,12
DA:356,12
DA:356,24
DA:360,6000
DA:361,6000
DA:362,6000
DA:367,0
DA:368,0
DA:369,0
DA:370,0
DA:377,6000
DA:378,6000
DA:382,0
DA:384,6000
DA:385,6000
DA:386,6000
DA:387,6000
DA:392,0
DA:393,0
DA:394,0
DA:395,0
DA:400,0
DA:401,0
DA:402,0
DA:411,0
DA:413,0
DA:416,0
DA:418,0
DA:427,0
DA:429,0
DA:433,0
DA:438,0
DA:439,0
DA:440,0
DA:441,0
DA:442,0
DA:445,0
DA:446,0
DA:454,0
DA:455,0
DA:464,0
DA:465,0
DA:474,0
DA:475,0
DA:483,0
DA:484,0
DA:485,0
DA:492,0
DA:493,0
DA:494,0
DA:501,0
DA:502,0
DA:503,0
DA:510,0
DA:511,0
DA:512,0
DA:513,0
DA:514,0
DA:515,0
DA:516,0
DA:521,0
DA:522,0
DA:525,0
DA:528,0
DA:529,0
DA:530,0
DA:531,0
DA:532,0
DA:534,0
DA:535,0
DA:537,0
DA:541,0
DA:542,0
DA:545,0
DA:548,0
DA:549,0
DA:554,0
DA:555,0
DA:556,0
DA:562,0
DA:567,0
DA:568,0
DA:576,0
DA:582,6000
DA:583,12
DA:586,0
DA:587,0
DA:588,0
DA:589,0
DA:592,0
DA:593,0
DA:594,0
DA:595,0
DA:601,0
DA:602,0
DA:604,0
DA:606,0
DA:607,0
DA:612,0
DA:614,0
DA:617,0
DA:619,0
DA:625,0
DA:627,0
DA:630,0
DA:632,0
DA:633,0
DA:639,0
DA:640,0
DA:641,0
DA:643,0
DA:645,0
DA:646,0
DA:647,0
DA:649,0
DA:657,0
DA:660,0
DA:661,0
DA:662,0
DA:663,0
DA:664,0
DA:665,0
DA:668,0
DA:672,0
DA:673,0
DA:675,0
DA:677,0
DA:679,0
DA:680,0
LF:164
LH:27
end_of_record
SF:/usr/include/c++/9/ostream
DA:113,0
DA:196,0
DA:206,0
DA:570,0
LF:4
LH:0
end_of_record
SF:/qulacs-osaka/include/Eigen/src/Core/util/Memory.h
FN:67,_ZN5Eigen8internal19throw_std_bad_allocEv
FNDA:0,_ZN5Eigen8internal19throw_std_bad_allocEv
FN:153,_ZN5Eigen8internal14aligned_mallocEm
FNDA:0,_ZN5Eigen8internal14aligned_mallocEm
FN:369,_ZN5Eigen8internal28conditional_aligned_new_autoISt7complexIdELb1EEEPT_m
FNDA:0,_ZN5Eigen8internal28conditional_aligned_new_autoISt7complexIdELb1EEEPT_m
FNF:3
FNH:0
DA:67,0
DA:70,0
DA:88,0
DA:89,0
DA:90,0
DA:91,0
DA:92,0
DA:98,0
DA:153,0
DA:167,0
DA:168,0
DA:170,0
DA:214,0
DA:288,0
DA:289,0
DA:369,0
DA:371,0
DA:374,0
DA:387,0
LF:19
LH:0
end_of_record
SF:/usr/include/c++/9/iostream
LF:0
LH:0
end_of_record
SF:/usr/include/c++/9/bits/stl_uninitialized.h
DA:307,0
DA:927,0
DA:928,0
DA:929,0
DA:930,0
LF:5
LH:0
end_of_record
SF:/usr/include/c++/9/bits/std_function.h
DA:686,0
DA:687,0
DA:688,0
LF:3
LH:0
end_of_record
SF:/usr/include/c++/9/bits/basic_string.tcc
FN:206,_ZNSt7__cxx1112basic_stringIcSt11char_traitsIcESaIcEE12_M_constructIPcEEvT_S7_St20forward_iterator_tag
FNDA:0,_ZNSt7__cxx1112basic_stringIcSt11char_traitsIcESaIcEE12_M_constructIPcEEvT_S7_St20forward_iterator_tag
FN:206,_ZNSt7__cxx1112basic_stringIcSt11char_traitsIcESaIcEE12_M_constructIPKcEEvT_S8_St20forward_iterator_tag
FNDA:0,_ZNSt7__cxx1112basic_stringIcSt11char_traitsIcESaIcEE12_M_constructIPKcEEvT_S8_St20forward_iterator_tag
FNF:2
FNH:0
DA:206,0
DA:211,0
DA:212,0
DA:215,0
DA:217,0
DA:219,0
DA:220,0
DA:225,0
DA:232,0
DA:233,0
DA:206,0
DA:211,0
DA:212,0
DA:215,0
DA:217,0
DA:219,0
DA:220,0
DA:225,0
DA:232,0
DA:233,0
LF:20
LH:0
end_of_record
SF:/usr/include/c++/9/bits/char_traits.h
DA:300,0
DA:363,0
DA:365,0
LF:3
LH:0
end_of_record
SF:/qulacs-osaka/include/Eigen/src/Core/DenseStorage.h
DA:500,0
DA:542,0
LF:2
LH:0
end_of_record
SF:/usr/include/c++/9/bits/move.h
DA:193,0
DA:194,0
DA:195,0
LF:3
LH:0
end_of_record
SF:/usr/include/x86_64-linux-gnu/bits/string_fortified.h
DA:34,0
LF:1
LH:0
end_of_record
SF:/usr/include/c++/9/streambuf
LF:0
LH:0
end_of_record
SF:/usr/include/c++/9/bits/vector.tcc
FN:109,_ZNSt6vectorIySaIyEE12emplace_backIJyEEEvDpOT_
FNDA:0,_ZNSt6vectorIySaIyEE12emplace_backIJyEEEvDpOT_
FN:109,_ZNSt6vectorIdSaIdEE12emplace_backIJdEEEvDpOT_
FNDA:0,_ZNSt6vectorIdSaIdEE12emplace_backIJdEEEvDpOT_
FN:198,_ZNSt6vectorIjSaIjEEaSERKS1_
FNDA:0,_ZNSt6vectorIjSaIjEEaSERKS1_
FN:426,_ZNSt6vectorIySaIyEE17_M_realloc_insertIJyEEEvN9__gnu_cxx17__normal_iteratorIPyS1_EEDpOT_
FNDA:0,_ZNSt6vectorIySaIyEE17_M_realloc_insertIJyEEEvN9__gnu_cxx17__normal_iteratorIPyS1_EEDpOT_
FN:426,_ZNSt6vectorIdSaIdEE17_M_realloc_insertIJdEEEvN9__gnu_cxx17__normal_iteratorIPdS1_EEDpOT_
FNDA:0,_ZNSt6vectorIdSaIdEE17_M_realloc_insertIJdEEEvN9__gnu_cxx17__normal_iteratorIPdS1_EEDpOT_
FN:426,_ZNSt6vectorIdSaIdEE17_M_realloc_insertIJRKdEEEvN9__gnu_cxx17__normal_iteratorIPdS1_EEDpOT_
FNDA:0,_ZNSt6vectorIdSaIdEE17_M_realloc_insertIJRKdEEEvN9__gnu_cxx17__normal_iteratorIPdS1_EEDpOT_
FN:426,_ZNSt6vectorIjSaIjEE17_M_realloc_insertIJRKjEEEvN9__gnu_cxx17__normal_iteratorIPjS1_EEDpOT_
FNDA:0,_ZNSt6vectorIjSaIjEE17_M_realloc_insertIJRKjEEEvN9__gnu_cxx17__normal_iteratorIPjS1_EEDpOT_
FN:509,_ZNSt6vectorIjSaIjEE14_M_fill_insertEN9__gnu_cxx17__normal_iteratorIPjS1_EEmRKj
FNDA:0,_ZNSt6vectorIjSaIjEE14_M_fill_insertEN9__gnu_cxx17__normal_iteratorIPjS1_EEmRKj
FNF:8
FNH:0
DA:109,0
DA:112,0
DA:115,0
DA:117,0
DA:121,0
DA:125,0
DA:109,0
DA:112,0
DA:115,0
DA:117,0
DA:121,0
DA:125,0
DA:198,0
DA:201,0
DA:223,0
DA:224,0
DA:226,0
DA:228,0
DA:233,0
DA:234,0
DA:236,0
DA:243,0
DA:245,0
DA:246,0
DA:250,0
DA:252,0
DA:426,0
DA:435,0
DA:437,0
DA:438,0
DA:440,0
DA:449,0
DA:450,0
DA:464,0
DA:502,0
DA:503,0
DA:504,0
DA:505,0
DA:426,0
DA:435,0
DA:437,0
DA:438,0
DA:440,0
DA:449,0
DA:450,0
DA:464,0
DA:502,0
DA:503,0
DA:504,0
DA:505,0
DA:426,0
DA:435,0
DA:437,0
DA:438,0
DA:440,0
DA:449,0
DA:450,0
DA:464,0
DA:502,0
DA:503,0
DA:504,0
DA:505,0
DA:426,0
DA:435,0
DA:437,0
DA:438,0
DA:440,0
DA:449,0
DA:450,0
DA:464,0
DA:502,0
DA:503,0
DA:504,0
DA:505,0
DA:509,0
DA:512,0
DA:514,0
DA:515,0
DA:523,0
DA:525,0
DA:528,0
DA:532,0
DA:536,0
DA:542,0
DA:543,0
DA:551,0
DA:558,0
DA:561,0
DA:566,0
DA:573,0
DA:576,0
DA:580,0
DA:601,0
DA:602,0
DA:603,0
DA:606,0
LF:96
LH:0
end_of_record
SF:/usr/include/c++/9/bits/random.tcc
FN:396,_ZNSt23mersenne_twister_engineImLm64ELm312ELm156ELm31ELm13043109905998158313ELm29ELm6148914691236517205ELm17ELm8202884508482404352ELm37ELm18444473444759240704ELm43ELm6364136223846793005EE11_M_gen_randEv
FNDA:0,_ZNSt23mersenne_twister_engineImLm64ELm312ELm156ELm31ELm13043109905998158313ELm29ELm6148914691236517205ELm17ELm8202884508482404352ELm37ELm18444473444759240704ELm43ELm6364136223846793005EE11_M_gen_randEv
FN:452,_ZNSt23mersenne_twister_engineImLm64ELm312ELm156ELm31ELm13043109905998158313ELm29ELm6148914691236517205ELm17ELm8202884508482404352ELm37ELm18444473444759240704ELm43ELm6364136223846793005EEclEv
FNDA:0,_ZNSt23mersenne_twister_engineImLm64ELm312ELm156ELm31ELm13043109905998158313ELm29ELm6148914691236517205ELm17ELm8202884508482404352ELm37ELm18444473444759240704ELm43ELm6364136223846793005EEclEv
FN:3316,_ZSt18generate_canonicalIdLm53ESt23mersenne_twister_engineImLm64ELm312ELm156ELm31ELm13043109905998158313ELm29ELm6148914691236517205ELm17ELm8202884508482404352ELm37ELm18444473444759240704ELm43ELm6364136223846793005EEET_RT1_
FNDA:0,_ZSt18generate_canonicalIdLm53ESt23mersenne_twister_engineImLm64ELm312ELm156ELm31ELm13043109905998158313ELm29ELm6148914691236517205ELm17ELm8202884508482404352ELm37ELm18444473444759240704ELm43ELm6364136223846793005EEET_RT1_
FNF:3
FNH:0
DA:329,0
DA:332,0
DA:334,0
DA:335,0
DA:336,0
DA:337,0
DA:338,0
DA:341,0
DA:396,0
DA:403,0
DA:405,0
DA:406,0
DA:407,0
DA:408,0
DA:411,0
DA:413,0
DA:414,0
DA:415,0
DA:416,0
DA:419,0
DA:420,0
DA:421,0
DA:422,0
DA:423,0
DA:424,0
DA:452,0
DA:457,0
DA:458,0
DA:461,0
DA:462,0
DA:463,0
DA:464,0
DA:465,0
DA:467,0
DA:3316,0
DA:3332,0
DA:3334,0
DA:3335,0
DA:3337,0
DA:3338,0
DA:3347,0
LF:41
LH:0
end_of_record
SF:/usr/include/c++/9/bits/locale_facets.h
FN:872,_ZNKSt5ctypeIcE5widenEc
FNDA:0,_ZNKSt5ctypeIcE5widenEc
FN:1084,_ZNKSt5ctypeIcE8do_widenEc
FNDA:0,_ZNKSt5ctypeIcE8do_widenEc
FNF:2
FNH:0
DA:872,0
DA:874,0
DA:875,0
DA:876,0
DA:877,0
DA:1084,0
DA:1085,0
LF:7
LH:0
end_of_record
SF:/usr/include/c++/9/bits/basic_string.h
DA:159,0
DA:160,0
DA:179,0
DA:183,0
DA:193,0
DA:203,0
DA:211,0
DA:217,0
DA:222,0
DA:231,0
DA:237,0
DA:247,0
DA:348,0
DA:349,0
DA:448,0
DA:451,0
DA:658,0
DA:1070,0
DA:1188,0
DA:2313,0
DA:6177,0
DA:6421,0
LF:22
LH:0
end_of_record
SF:/qulacs-osaka/include/Eigen/src/Core/PlainObjectBase.h
DA:98,0
DA:151,0
DA:165,0
DA:256,0
DA:319,0
DA:781,0
LF:6
LH:0
end_of_record
SF:/usr/include/c++/9/bits/ios_base.h
DA:707,0
DA:708,0
DA:709,0
DA:731,0
DA:732,0
LF:5
LH:0
end_of_record
SF:/usr/include/c++/9/ext/new_allocator.h
DA:128,0
LF:1
LH:0
end_of_record
SF:/usr/include/c++/9/bits/predefined_ops.h
DA:65,0
LF:1
LH:0
end_of_record
SF:/usr/include/c++/9/bits/exception.h
DA:63,0
LF:1
LH:0
end_of_record
SF:/usr/include/c++/9/bits/stl_algobase.h
DA:227,0
DA:228,0
DA:384,0
DA:385,0
DA:386,0
DA:387,0
DA:586,0
DA:587,0
DA:588,0
DA:713,0
DA:714,0
DA:770,0
DA:771,0
DA:772,0
DA:974,0
DA:976,0
DA:979,0
DA:983,0
LF:18
LH:0
end_of_record
SF:/qulacs-osaka/include/Eigen/src/Core/IO.h
FN:53,_ZN5Eigen8IOFormatC2EiiRKNSt7__cxx1112basic_stringIcSt11char_traitsIcESaIcEEES8_S8_S8_S8_S8_
FNDA:0,_ZN5Eigen8IOFormatC2EiiRKNSt7__cxx1112basic_stringIcSt11char_traitsIcESaIcEEES8_S8_S8_S8_S8_
FN:129,_ZN5Eigen8internal12print_matrixINS_6MatrixISt7complexIdELin1ELi1ELi0ELin1ELi1EEEEERSoS6_RKT_RKNS_8IOFormatE
FNDA:0,_ZN5Eigen8internal12print_matrixINS_6MatrixISt7complexIdELin1ELi1ELi0ELin1ELi1EEEEERSoS6_RKT_RKNS_8IOFormatE
FN:216,_ZN5EigenlsINS_6MatrixISt7complexIdELin1ELi1ELi0ELin1ELi1EEEEERSoS5_RKNS_9DenseBaseIT_EE
FNDA:0,_ZN5EigenlsINS_6MatrixISt7complexIdELin1ELi1ELi0ELin1ELi1EEEEERSoS5_RKNS_9DenseBaseIT_EE
FNF:3
FNH:0
DA:53,0
DA:57,0
DA:58,0
DA:62,0
DA:64,0
DA:65,0
DA:68,0
DA:129,0
DA:131,0
DA:134,0
DA:140,0
DA:143,0
DA:147,0
DA:160,0
DA:164,0
DA:166,0
DA:167,0
DA:170,0
DA:171,0
DA:173,0
DA:174,0
DA:175,0
DA:176,0
DA:180,0
DA:182,0
DA:185,0
DA:186,0
DA:194,0
DA:198,0
DA:216,0
DA:220,0
LF:31
LH:0
end_of_record
SF:/qulacs-osaka/include/Eigen/src/Core/Matrix.h
FN:291,_ZN5Eigen6MatrixISt7complexIdELin1ELi1ELi0ELin1ELi1EEC2IyEERKT_
FNDA:0,_ZN5Eigen6MatrixISt7complexIdELin1ELi1ELi0ELin1ELi1EEC2IyEERKT_
FNF:1
FNH:0
DA:178,0
DA:291,0
DA:294,0
DA:295,0
LF:4
LH:0
end_of_record
SF:/usr/include/c++/9/bits/stl_vector.h
FN:550,_ZNSt6vectorIjSaIjEEC2ERKS1_
FNDA:0,_ZNSt6vectorIjSaIjEEC2ERKS1_
FN:954,_ZNSt6vectorIjSaIjEE6resizeEmRKj
FNDA:0,_ZNSt6vectorIjSaIjEE6resizeEmRKj
FN:1184,_ZNSt6vectorIdSaIdEE9push_backERKd
FNDA:0,_ZNSt6vectorIdSaIdEE9push_backERKd
FN:1184,_ZNSt6vectorIjSaIjEE9push_backERKj
FNDA:0,_ZNSt6vectorIjSaIjEE9push_backERKj
FN:1753,_ZNKSt6vectorIySaIyEE12_M_check_lenEmPKc
FNDA:0,_ZNKSt6vectorIySaIyEE12_M_check_lenEmPKc
FN:1753,_ZNKSt6vectorIdSaIdEE12_M_check_lenEmPKc
FNDA:0,_ZNKSt6vectorIdSaIdEE12_M_check_lenEmPKc
FN:1753,_ZNKSt6vectorIjSaIjEE12_M_check_lenEmPKc
FNDA:0,_ZNKSt6vectorIjSaIjEE12_M_check_lenEmPKc
FNF:7
FNH:0
DA:94,12
DA:95,12
DA:350,0
DA:358,0
DA:359,0
DA:360,0
DA:550,0
DA:552,0
DA:554,0
DA:555,0
DA:558,0
DA:677,12
DA:680,0
DA:916,0
DA:954,0
DA:956,0
DA:957,0
DA:958,0
DA:959,0
DA:960,0
DA:997,0
DA:1043,0
DA:1061,0
DA:1184,0
DA:1186,0
DA:1189,0
DA:1191,0
DA:1195,0
DA:1196,0
DA:1184,0
DA:1186,0
DA:1189,0
DA:1191,0
DA:1195,0
DA:1196,0
DA:1201,0
DA:1708,0
DA:1753,0
DA:1755,0
DA:1756,0
DA:1758,0
DA:1759,0
DA:1753,0
DA:1755,0
DA:1756,0
DA:1758,0
DA:1759,0
DA:1753,0
DA:1755,0
DA:1756,0
DA:1758,0
DA:1759,0
DA:1791,0
DA:1795,0
LF:54
LH:3
end_of_record
SF:/usr/include/c++/9/complex
DA:684,0
DA:1252,0
DA:1256,0
DA:1282,6000
DA:1348,0
LF:5
LH:1
end_of_record
SF:/usr/include/c++/9/new
DA:57,0
LF:1
LH:0
end_of_record
SF:/usr/include/c++/9/bits/stl_iterator.h
DA:807,0
DA:829,0
DA:830,0
DA:856,0
DA:992,0
LF:5
LH:0
end_of_record
SF:/usr/include/c++/9/bits/random.h
FN:1606,_ZNSt13random_deviceC2Ev
FNDA:0,_ZNSt13random_deviceC2Ev
FNF:1
FNH:0
DA:181,0
DA:519,0
DA:1606,0
DA:1612,0
DA:1643,0
DA:1751,0
DA:1752,0
DA:1862,0
DA:1981,0
DA:1982,0
DA:2017,0
DA:2019,0
LF:12
LH:0
end_of_record
SF:/qulacs-osaka/src/cppsim/utility.hpp
FN:58,_ZN6RandomC2Ev
FNDA:0,_ZN6RandomC2Ev
FNF:1
FNH:0
DA:58,0
DA:59,0
DA:60,0
DA:61,0
DA:74,0
DA:95,0
LF:6
LH:0
end_of_record
SF:/qulacs-osaka/include/Eigen/src/Core/CoreEvaluators.h
DA:187,0
LF:1
LH:0
end_of_record
SF:/usr/include/c++/9/sstream
DA:832,0
LF:1
LH:0
end_of_record
SF:/usr/include/c++/9/bits/stl_iterator_base_funcs.h
DA:104,0
DA:180,0
LF:2
LH:0
end_of_record
SF:/qulacs-osaka/src/cppsim/simulator.cpp
FN:9,_ZN23QuantumCircuitSimulatorC2EP14QuantumCircuitP16QuantumStateBase
FNDA:6,_ZN23QuantumCircuitSimulatorC2EP14QuantumCircuitP16QuantumStateBase
FN:15,_ZN23QuantumCircuitSimulatorD2Ev
FNDA:6,_ZN23QuantumCircuitSimulatorD2Ev
FN:21,_ZN23QuantumCircuitSimulator16initialize_stateEy
FNDA:6000,_ZN23QuantumCircuitSimulator16initialize_stateEy
FN:25,_ZN23QuantumCircuitSimulator23initialize_random_stateEv
FNDA:0,_ZN23QuantumCircuitSimulator23initialize_random_stateEv
FN:29,_ZN23QuantumCircuitSimulator23initialize_random_stateEj
FNDA:0,_ZN23QuantumCircuitSimulator23initialize_random_stateEj
FN:33,_ZN23QuantumCircuitSimulator8simulateEv
FNDA:0,_ZN23QuantumCircuitSimulator8simulateEv
FN:36,_ZN23QuantumCircuitSimulator14simulate_rangeEjj
FNDA:102000,_ZN23QuantumCircuitSimulator14simulate_rangeEjj
FN:40,_ZN23QuantumCircuitSimulator21get_expectation_valueEPK24HermitianQuantumOperator
FNDA:0,_ZN23QuantumCircuitSimulator21get_expectation_valueEPK24HermitianQuantumOperator
FN:45,_ZN23QuantumCircuitSimulator14get_gate_countEv
FNDA:6000,_ZN23QuantumCircuitSimulator14get_gate_countEv
FN:48,_ZN23QuantumCircuitSimulator20copy_state_to_bufferEv
FNDA:32000,_ZN23QuantumCircuitSimulator20copy_state_to_bufferEv
FN:52,_ZN23QuantumCircuitSimulator22copy_state_from_bufferEv
FNDA:64000,_ZN23QuantumCircuitSimulator22copy_state_from_bufferEv
FN:59,_ZN23QuantumCircuitSimulator21swap_state_and_bufferEv
FNDA:0,_ZN23QuantumCircuitSimulator21swap_state_and_bufferEv
FNF:12
FNH:7
DA:9,6
DA:10,6
DA:11,6
DA:12,6
DA:13,6
DA:15,12
DA:16,6
DA:17,6
DA:18,6
DA:19,6
DA:21,6000
DA:22,6000
DA:23,6000
DA:25,0
DA:26,0
DA:27,0
DA:29,0
DA:30,0
DA:31,0
DA:33,0
DA:34,0
DA:35,0
DA:36,102000
DA:37,102000
DA:38,102000
DA:40,0
DA:42,0
DA:45,6000
DA:46,6000
DA:48,32000
DA:49,32000
DA:50,32000
DA:51,32000
DA:52,64000
DA:53,64000
DA:54,0
DA:55,0
DA:57,64000
DA:58,64000
DA:59,0
DA:60,0
DA:61,0
DA:62,0
DA:65,0
LF:44
LH:26
end_of_record
SF:/usr/include/c++/9/bits/alloc_traits.h
DA:470,0
LF:1
LH:0
end_of_record
TN:
SF:/usr/include/c++/9/ext/new_allocator.h
DA:128,2
LF:1
LH:1
end_of_record
SF:/usr/include/c++/9/bits/ios_base.h
DA:707,0
DA:708,0
DA:709,0
DA:731,0
DA:732,0
LF:5
LH:0
end_of_record
SF:/qulacs-osaka/src/cppsim/gate_matrix_diagonal.cpp
FN:17,_ZN25QuantumGateDiagonalMatrixC2ERKSt6vectorIjSaIjEERKN5Eigen6MatrixISt7complexIdELin1ELi1ELi0ELin1ELi1EEES4_
FNDA:2,_ZN25QuantumGateDiagonalMatrixC2ERKSt6vectorIjSaIjEERKN5Eigen6MatrixISt7complexIdELin1ELi1ELi0ELin1ELi1EEES4_
FN:30,_ZN25QuantumGateDiagonalMatrixC2ERKSt6vectorI15TargetQubitInfoSaIS1_EERKN5Eigen6MatrixISt7complexIdELin1ELi1ELi0ELin1ELi1EEERKS0_I16ControlQubitInfoSaISD_EE
FNDA:0,_ZN25QuantumGateDiagonalMatrixC2ERKSt6vectorI15TargetQubitInfoSaIS1_EERKN5Eigen6MatrixISt7complexIdELin1ELi1ELi0ELin1ELi1EEERKS0_I16ControlQubitInfoSaISD_EE
FN:44,_ZN25QuantumGateDiagonalMatrixC2ERKSt6vectorIjSaIjEEPN5Eigen6MatrixISt7complexIdELin1ELi1ELi0ELin1ELi1EEES4_
FNDA:0,_ZN25QuantumGateDiagonalMatrixC2ERKSt6vectorIjSaIjEEPN5Eigen6MatrixISt7complexIdELin1ELi1ELi0ELin1ELi1EEES4_
FN:57,_ZN25QuantumGateDiagonalMatrixC2ERKSt6vectorI15TargetQubitInfoSaIS1_EEPN5Eigen6MatrixISt7complexIdELin1ELi1ELi0ELin1ELi1EEERKS0_I16ControlQubitInfoSaISC_EE
FNDA:0,_ZN25QuantumGateDiagonalMatrixC2ERKSt6vectorI15TargetQubitInfoSaIS1_EEPN5Eigen6MatrixISt7complexIdELin1ELi1ELi0ELin1ELi1EEERKS0_I16ControlQubitInfoSaISC_EE
FN:69,_ZN25QuantumGateDiagonalMatrix20update_quantum_stateEP16QuantumStateBase
FNDA:0,_ZN25QuantumGateDiagonalMatrix20update_quantum_stateEP16QuantumStateBase
FN:134,_ZN25QuantumGateDiagonalMatrix17add_control_qubitEjj
FNDA:0,_ZN25QuantumGateDiagonalMatrix17add_control_qubitEjj
FN:142,_ZNK25QuantumGateDiagonalMatrix9to_stringB5cxx11Ev
FNDA:0,_ZNK25QuantumGateDiagonalMatrix9to_stringB5cxx11Ev
FN:150,_ZlsRSoRK25QuantumGateDiagonalMatrix
FNDA:0,_ZlsRSoRK25QuantumGateDiagonalMatrix
FN:155,_ZlsRSoP25QuantumGateDiagonalMatrix
FNDA:0,_ZlsRSoP25QuantumGateDiagonalMatrix
FNF:9
FNH:1
DA:17,2
DA:20,2
DA:21,6
DA:22,4
DA:24,2
DA:25,0
DA:27,2
DA:28,2
DA:29,2
DA:30,0
DA:33,0
DA:35,0
DA:37,0
DA:38,0
DA:39,0
DA:40,0
DA:44,0
DA:47,0
DA:48,0
DA:49,0
DA:51,0
DA:52,0
DA:55,0
DA:56,0
DA:57,0
DA:60,0
DA:62,0
DA:64,0
DA:66,0
DA:67,0
DA:69,0
DA:70,0
DA:80,0
DA:81,0
DA:82,0
DA:83,0
DA:86,0
DA:110,0
DA:111,0
DA:112,0
DA:113,0
DA:115,0
DA:116,0
DA:120,0
DA:121,0
DA:122,0
DA:123,0
DA:130,0
DA:132,0
DA:134,0
DA:136,0
DA:137,0
DA:138,0
DA:139,0
DA:140,0
DA:142,0
DA:143,0
DA:144,0
DA:146,0
DA:147,0
DA:150,0
DA:152,0
DA:153,0
DA:155,0
DA:156,0
DA:157,0
LF:66
LH:8
end_of_record
SF:/qulacs-osaka/include/Eigen/src/Core/PlainObjectBase.h
FN:279,_ZN5Eigen15PlainObjectBaseINS_6MatrixISt7complexIdELin1ELin1ELi1ELin1ELin1EEEE6resizeEll
FNDA:0,_ZN5Eigen15PlainObjectBaseINS_6MatrixISt7complexIdELin1ELin1ELi1ELin1ELin1EEEE6resizeEll
FNF:1
FNH:0
DA:45,0
DA:46,0
DA:48,0
DA:151,0
DA:153,0
DA:165,0
DA:256,0
DA:260,0
DA:279,0
DA:293,0
DA:295,0
DA:519,2
DA:520,2
LF:13
LH:2
end_of_record
SF:/qulacs-osaka/include/Eigen/src/Core/CwiseNullaryOp.h
DA:78,0
DA:80,0
LF:2
LH:0
end_of_record
SF:/usr/include/c++/9/bits/basic_string.h
DA:159,0
DA:160,0
DA:179,0
DA:183,0
DA:193,0
DA:203,2
DA:211,0
DA:217,0
DA:222,2
DA:231,2
DA:237,0
DA:247,0
DA:348,0
DA:349,0
DA:448,0
DA:451,0
DA:658,2
DA:705,2
DA:1070,0
DA:1188,0
DA:1366,0
DA:2313,0
DA:6421,0
LF:23
LH:5
end_of_record
SF:/usr/include/c++/9/bits/locale_facets.h
FN:872,_ZNKSt5ctypeIcE5widenEc
FNDA:0,_ZNKSt5ctypeIcE5widenEc
FN:1084,_ZNKSt5ctypeIcE8do_widenEc
FNDA:0,_ZNKSt5ctypeIcE8do_widenEc
FNF:2
FNH:0
DA:872,0
DA:874,0
DA:875,0
DA:876,0
DA:877,0
DA:1084,0
DA:1085,0
LF:7
LH:0
end_of_record
SF:/qulacs-osaka/include/Eigen/src/Core/functors/AssignmentFunctors.h
DA:24,0
LF:1
LH:0
end_of_record
SF:/usr/include/c++/9/bits/vector.tcc
FN:109,_ZNSt6vectorIjSaIjEE12emplace_backIJjEEEvDpOT_
FNDA:0,_ZNSt6vectorIjSaIjEE12emplace_backIJjEEEvDpOT_
FN:109,_ZNSt6vectorI16ControlQubitInfoSaIS0_EE12emplace_backIJS0_EEEvDpOT_
FNDA:0,_ZNSt6vectorI16ControlQubitInfoSaIS0_EE12emplace_backIJS0_EEEvDpOT_
FN:109,_ZNSt6vectorI15TargetQubitInfoSaIS0_EE12emplace_backIJS0_EEEvDpOT_
FNDA:4,_ZNSt6vectorI15TargetQubitInfoSaIS0_EE12emplace_backIJS0_EEEvDpOT_
FN:198,_ZNSt6vectorI16ControlQubitInfoSaIS0_EEaSERKS2_
FNDA:0,_ZNSt6vectorI16ControlQubitInfoSaIS0_EEaSERKS2_
FN:198,_ZNSt6vectorI15TargetQubitInfoSaIS0_EEaSERKS2_
FNDA:0,_ZNSt6vectorI15TargetQubitInfoSaIS0_EEaSERKS2_
FN:426,_ZNSt6vectorIjSaIjEE17_M_realloc_insertIJjEEEvN9__gnu_cxx17__normal_iteratorIPjS1_EEDpOT_
FNDA:0,_ZNSt6vectorIjSaIjEE17_M_realloc_insertIJjEEEvN9__gnu_cxx17__normal_iteratorIPjS1_EEDpOT_
FN:426,_ZNSt6vectorI16ControlQubitInfoSaIS0_EE17_M_realloc_insertIJS0_EEEvN9__gnu_cxx17__normal_iteratorIPS0_S2_EEDpOT_
FNDA:0,_ZNSt6vectorI16ControlQubitInfoSaIS0_EE17_M_realloc_insertIJS0_EEEvN9__gnu_cxx17__normal_iteratorIPS0_S2_EEDpOT_
FN:426,_ZNSt6vectorI15TargetQubitInfoSaIS0_EE17_M_realloc_insertIJS0_EEEvN9__gnu_cxx17__normal_iteratorIPS0_S2_EEDpOT_
FNDA:0,_ZNSt6vectorI15TargetQubitInfoSaIS0_EE17_M_realloc_insertIJS0_EEEvN9__gnu_cxx17__normal_iteratorIPS0_S2_EEDpOT_
FNF:8
FNH:1
DA:109,0
DA:112,0
DA:115,0
DA:117,0
DA:121,0
DA:125,0
DA:109,0
DA:112,0
DA:117,0
DA:121,0
DA:125,0
DA:109,4
DA:112,4
DA:117,0
DA:121,4
DA:125,4
DA:198,0
DA:201,0
DA:223,0
DA:224,0
DA:228,0
DA:233,0
DA:234,0
DA:236,0
DA:243,0
DA:250,0
DA:252,0
DA:198,0
DA:201,0
DA:223,0
DA:224,0
DA:228,0
DA:233,0
DA:234,0
DA:236,0
DA:243,0
DA:250,0
DA:252,0
DA:426,0
DA:435,0
DA:437,0
DA:438,0
DA:440,0
DA:449,0
DA:450,0
DA:464,0
DA:502,0
DA:503,0
DA:504,0
DA:505,0
DA:426,0
DA:435,0
DA:437,0
DA:438,0
DA:440,0
DA:449,0
DA:450,0
DA:464,0
DA:502,0
DA:503,0
DA:504,0
DA:505,0
DA:426,0
DA:435,0
DA:437,0
DA:438,0
DA:440,0
DA:449,0
DA:450,0
DA:464,0
DA:502,0
DA:503,0
DA:504,0
DA:505,0
LF:74
LH:4
end_of_record
SF:/usr/include/c++/9/streambuf
LF:0
LH:0
end_of_record
SF:/usr/include/c++/9/bits/move.h
DA:193,2
DA:194,2
DA:195,2
LF:3
LH:3
end_of_record
SF:/usr/include/x86_64-linux-gnu/bits/string_fortified.h
DA:34,2
LF:1
LH:1
end_of_record
SF:/usr/include/c++/9/bits/stl_algo.h
DA:4336,0
DA:4337,0
LF:2
LH:0
end_of_record
SF:/qulacs-osaka/include/Eigen/src/Core/DenseStorage.h
FN:402,_ZN5Eigen12DenseStorageISt7complexIdELin1ELin1ELin1ELi1EE6resizeElll
FNDA:0,_ZN5Eigen12DenseStorageISt7complexIdELin1ELin1ELin1ELi1EE6resizeElll
FN:508,_ZN5Eigen12DenseStorageISt7complexIdELin1ELin1ELi1ELi0EEC2ERKS3_
FNDA:2,_ZN5Eigen12DenseStorageISt7complexIdELin1ELin1ELi1ELi0EEC2ERKS3_
FNF:2
FNH:1
DA:402,0
DA:404,0
DA:406,0
DA:407,0
DA:408,0
DA:410,0
DA:413,0
DA:414,0
DA:415,0
DA:500,2
DA:508,2
DA:509,2
DA:510,2
DA:513,2
DA:514,2
DA:542,2
LF:16
LH:7
end_of_record
SF:/qulacs-osaka/include/Eigen/src/Core/EigenBase.h
DA:66,0
LF:1
LH:0
end_of_record
SF:/usr/include/c++/9/bits/char_traits.h
DA:300,0
DA:363,0
DA:365,0
LF:3
LH:0
end_of_record
SF:/qulacs-osaka/include/Eigen/src/Core/AssignEvaluator.h
FN:397,_ZN5Eigen8internal21dense_assignment_loopINS0_31generic_dense_assignment_kernelINS0_9evaluatorINS_6MatrixISt7complexIdELin1ELin1ELi1ELin1ELin1EEEEENS3_INS_14CwiseNullaryOpINS0_18scalar_constant_opIS6_EES7_EEEENS0_9assign_opIS6_S6_EELi0EEELi3ELi0EE3runERSG_
FNDA:0,_ZN5Eigen8internal21dense_assignment_loopINS0_31generic_dense_assignment_kernelINS0_9evaluatorINS_6MatrixISt7complexIdELin1ELin1ELi1ELin1ELin1EEEEENS3_INS_14CwiseNullaryOpINS0_18scalar_constant_opIS6_EES7_EEEENS0_9assign_opIS6_S6_EELi0EEELi3ELi0EE3runERSG_
FN:397,_ZN5Eigen8internal21dense_assignment_loopINS0_31generic_dense_assignment_kernelINS0_9evaluatorINS_6MatrixISt7complexIdELin1ELi1ELi0ELin1ELi1EEEEENS3_INS_14CwiseNullaryOpINS0_18scalar_constant_opIS6_EES7_EEEENS0_13mul_assign_opIS6_S6_EELi0EEELi3ELi0EE3runERSG_
FNDA:0,_ZN5Eigen8internal21dense_assignment_loopINS0_31generic_dense_assignment_kernelINS0_9evaluatorINS_6MatrixISt7complexIdELin1ELi1ELi0ELin1ELi1EEEEENS3_INS_14CwiseNullaryOpINS0_18scalar_constant_opIS6_EES7_EEEENS0_13mul_assign_opIS6_S6_EELi0EEELi3ELi0EE3runERSG_
FN:725,_ZN5Eigen8internal26call_dense_assignment_loopINS_6MatrixISt7complexIdELin1ELin1ELi1ELin1ELin1EEENS_14CwiseNullaryOpINS0_18scalar_constant_opIS4_EES5_EENS0_9assign_opIS4_S4_EEEEvRT_RKT0_RKT1_
FNDA:0,_ZN5Eigen8internal26call_dense_assignment_loopINS_6MatrixISt7complexIdELin1ELin1ELi1ELin1ELin1EEENS_14CwiseNullaryOpINS0_18scalar_constant_opIS4_EES5_EENS0_9assign_opIS4_S4_EEEEvRT_RKT0_RKT1_
FNF:3
FNH:0
DA:389,0
DA:390,0
DA:397,0
DA:399,0
DA:411,0
DA:415,0
DA:416,0
DA:419,0
DA:397,0
DA:399,0
DA:411,0
DA:415,0
DA:416,0
DA:419,0
DA:610,0
DA:611,0
DA:637,0
DA:658,0
DA:719,0
DA:720,0
DA:725,0
DA:741,0
DA:742,0
DA:782,0
DA:879,0
LF:25
LH:0
end_of_record
SF:/qulacs-osaka/src/cppsim/gate_matrix_diagonal.hpp
FN:72,_ZN25QuantumGateDiagonalMatrixD0Ev
FNDA:2,_ZN25QuantumGateDiagonalMatrixD0Ev
FN:72,_ZN25QuantumGateDiagonalMatrixD2Ev
FNDA:2,_ZN25QuantumGateDiagonalMatrixD2Ev
FN:89,_ZN25QuantumGateDiagonalMatrix15multiply_scalarESt7complexIdE
FNDA:0,_ZN25QuantumGateDiagonalMatrix15multiply_scalarESt7complexIdE
FN:96,_ZN25QuantumGateDiagonalMatrix17set_gate_propertyEj
FNDA:0,_ZN25QuantumGateDiagonalMatrix17set_gate_propertyEj
FN:112,_ZNK25QuantumGateDiagonalMatrix4copyEv
FNDA:0,_ZNK25QuantumGateDiagonalMatrix4copyEv
FN:121,_ZNK25QuantumGateDiagonalMatrix10set_matrixERN5Eigen6MatrixISt7complexIdELin1ELin1ELi1ELin1ELin1EEE
FNDA:0,_ZNK25QuantumGateDiagonalMatrix10set_matrixERN5Eigen6MatrixISt7complexIdELin1ELin1ELi1ELin1ELin1EEE
FNF:6
FNH:2
DA:72,2
DA:72,4
DA:89,0
DA:96,0
DA:97,0
DA:98,0
DA:112,0
DA:113,0
DA:121,0
DA:122,0
DA:123,0
DA:124,0
DA:125,0
DA:127,0
LF:14
LH:2
end_of_record
SF:/usr/include/c++/9/bits/basic_string.tcc
FN:206,_ZNSt7__cxx1112basic_stringIcSt11char_traitsIcESaIcEE12_M_constructIPcEEvT_S7_St20forward_iterator_tag
FNDA:0,_ZNSt7__cxx1112basic_stringIcSt11char_traitsIcESaIcEE12_M_constructIPcEEvT_S7_St20forward_iterator_tag
FN:206,_ZNSt7__cxx1112basic_stringIcSt11char_traitsIcESaIcEE12_M_constructIPKcEEvT_S8_St20forward_iterator_tag
FNDA:0,_ZNSt7__cxx1112basic_stringIcSt11char_traitsIcESaIcEE12_M_constructIPKcEEvT_S8_St20forward_iterator_tag
FNF:2
FNH:0
DA:206,0
DA:211,0
DA:212,0
DA:215,0
DA:217,0
DA:219,0
DA:220,0
DA:225,0
DA:232,0
DA:233,0
DA:206,0
DA:211,0
DA:212,0
DA:215,0
DA:217,0
DA:219,0
DA:220,0
DA:225,0
DA:232,0
DA:233,0
LF:20
LH:0
end_of_record
SF:/usr/include/c++/9/bits/stl_uninitialized.h
DA:82,0
DA:83,0
DA:927,0
DA:928,0
DA:929,0
DA:930,0
DA:949,0
LF:7
LH:0
end_of_record
SF:/usr/include/c++/9/iostream
LF:0
LH:0
end_of_record
SF:/qulacs-osaka/include/Eigen/src/Core/util/Memory.h
FN:67,_ZN5Eigen8internal19throw_std_bad_allocEv
FNDA:0,_ZN5Eigen8internal19throw_std_bad_allocEv
FN:153,_ZN5Eigen8internal14aligned_mallocEm
FNDA:2,_ZN5Eigen8internal14aligned_mallocEm
FN:369,_ZN5Eigen8internal28conditional_aligned_new_autoISt7complexIdELb1EEEPT_m
FNDA:2,_ZN5Eigen8internal28conditional_aligned_new_autoISt7complexIdELb1EEEPT_m
FNF:3
FNH:2
DA:67,0
DA:70,0
DA:88,2
DA:89,2
DA:90,2
DA:91,2
DA:92,2
DA:98,4
DA:153,2
DA:167,2
DA:168,0
DA:170,2
DA:214,2
DA:288,2
DA:289,0
DA:369,2
DA:371,2
DA:374,2
DA:387,2
DA:493,2
DA:494,2
DA:496,2
LF:22
LH:18
end_of_record
SF:/usr/include/c++/9/ostream
DA:113,0
DA:570,0
LF:2
LH:0
end_of_record
SF:/qulacs-osaka/src/cppsim/state.hpp
FN:66,_ZNK16QuantumStateBase15is_state_vectorEv
FNDA:0,_ZNK16QuantumStateBase15is_state_vectorEv
FN:582,_ZNK15QuantumStateCpu6data_cEv
FNDA:0,_ZNK15QuantumStateCpu6data_cEv
FNF:2
FNH:0
DA:66,0
DA:582,0
DA:583,0
LF:3
LH:0
end_of_record
SF:/qulacs-osaka/include/Eigen/src/Core/functors/NullaryFunctors.h
DA:19,0
DA:23,0
LF:2
LH:0
end_of_record
SF:/qulacs-osaka/src/cppsim/exception.hpp
DA:21,0
LF:1
LH:0
end_of_record
SF:/usr/include/c++/9/bits/alloc_traits.h
DA:470,2
DA:484,0
LF:2
LH:1
end_of_record
SF:/usr/include/c++/9/bits/stl_iterator_base_funcs.h
DA:104,0
LF:1
LH:0
end_of_record
SF:/usr/lib/gcc/x86_64-linux-gnu/9/include/avxintrin.h
DA:155,0
DA:314,0
DA:339,0
DA:741,0
DA:862,0
DA:868,0
LF:6
LH:0
end_of_record
SF:/usr/include/c++/9/sstream
DA:832,0
LF:1
LH:0
end_of_record
SF:/qulacs-osaka/include/Eigen/src/Core/CoreEvaluators.h
DA:154,0
DA:155,0
DA:172,0
DA:179,0
DA:187,0
DA:472,0
LF:6
LH:0
end_of_record
SF:/qulacs-osaka/include/Eigen/src/Core/util/XprHelper.h
DA:120,0
LF:1
LH:0
end_of_record
SF:/qulacs-osaka/src/cppsim/gate.hpp
FN:92,_ZN15QuantumGateBaseC2Ev
FNDA:2,_ZN15QuantumGateBaseC2Ev
FN:95,_ZN15QuantumGateBaseC2ERKS_
FNDA:0,_ZN15QuantumGateBaseC2ERKS_
FN:109,_ZN15QuantumGateBaseD0Ev
FNDA:0,_ZN15QuantumGateBaseD0Ev
FN:109,_ZN15QuantumGateBaseD2Ev
FNDA:2,_ZN15QuantumGateBaseD2Ev
FN:270,_ZN15QuantumGateBase8set_seedEi
FNDA:0,_ZN15QuantumGateBase8set_seedEi
FN:271,_ZN15QuantumGateBase27get_cumulative_distributionEv
FNDA:0,_ZN15QuantumGateBase27get_cumulative_distributionEv
FN:272,_ZN15QuantumGateBase13get_gate_listEv
FNDA:0,_ZN15QuantumGateBase13get_gate_listEv
FN:273,_ZN15QuantumGateBase25optimize_ProbablisticGateEv
FNDA:0,_ZN15QuantumGateBase25optimize_ProbablisticGateEv
FNF:8
FNH:2
DA:92,2
DA:93,2
DA:94,2
DA:95,0
DA:96,0
DA:97,0
DA:98,0
DA:99,0
DA:100,0
DA:101,0
DA:102,0
DA:109,0
DA:109,2
DA:270,0
DA:271,0
DA:272,0
DA:273,0
LF:17
LH:4
end_of_record
SF:/usr/include/c++/9/new
DA:57,0
LF:1
LH:0
end_of_record
SF:/usr/include/c++/9/bits/stl_iterator.h
DA:535,0
DA:807,0
DA:829,0
DA:830,4
DA:992,0
LF:5
LH:1
end_of_record
SF:/usr/include/c++/9/complex
DA:1348,0
LF:1
LH:0
end_of_record
SF:/usr/include/c++/9/bits/stl_vector.h
FN:550,_ZNSt6vectorI16ControlQubitInfoSaIS0_EEC2ERKS2_
FNDA:0,_ZNSt6vectorI16ControlQubitInfoSaIS0_EEC2ERKS2_
FN:550,_ZNSt6vectorI15TargetQubitInfoSaIS0_EEC2ERKS2_
FNDA:0,_ZNSt6vectorI15TargetQubitInfoSaIS0_EEC2ERKS2_
FN:1753,_ZNKSt6vectorI16ControlQubitInfoSaIS0_EE12_M_check_lenEmPKc
FNDA:0,_ZNKSt6vectorI16ControlQubitInfoSaIS0_EE12_M_check_lenEmPKc
FN:1753,_ZNKSt6vectorI15TargetQubitInfoSaIS0_EE12_M_check_lenEmPKc
FNDA:0,_ZNKSt6vectorI15TargetQubitInfoSaIS0_EE12_M_check_lenEmPKc
FN:1753,_ZNKSt6vectorIjSaIjEE12_M_check_lenEmPKc
FNDA:0,_ZNKSt6vectorIjSaIjEE12_M_check_lenEmPKc
FNF:5
FNH:0
DA:94,0
DA:95,2
DA:108,0
DA:109,0
DA:110,0
DA:350,0
DA:358,0
DA:359,0
DA:360,0
DA:550,0
DA:552,0
DA:554,0
DA:555,0
DA:558,0
DA:550,0
DA:552,0
DA:554,0
DA:555,0
DA:558,0
DA:677,2
DA:680,2
DA:916,0
DA:997,0
DA:1201,4
DA:1508,0
DA:1753,0
DA:1755,0
DA:1756,0
DA:1758,0
DA:1759,0
DA:1753,0
DA:1755,0
DA:1756,0
DA:1758,0
DA:1759,0
DA:1753,0
DA:1755,0
DA:1756,0
DA:1758,0
DA:1759,0
LF:40
LH:4
end_of_record
SF:/qulacs-osaka/include/Eigen/src/Core/Matrix.h
DA:178,2
DA:225,0
DA:369,2
LF:3
LH:2
end_of_record
SF:/qulacs-osaka/include/Eigen/src/Core/IO.h
FN:53,_ZN5Eigen8IOFormatC2EiiRKNSt7__cxx1112basic_stringIcSt11char_traitsIcESaIcEEES8_S8_S8_S8_S8_
FNDA:0,_ZN5Eigen8IOFormatC2EiiRKNSt7__cxx1112basic_stringIcSt11char_traitsIcESaIcEEES8_S8_S8_S8_S8_
FN:129,_ZN5Eigen8internal12print_matrixINS_6MatrixISt7complexIdELin1ELi1ELi0ELin1ELi1EEEEERSoS6_RKT_RKNS_8IOFormatE
FNDA:0,_ZN5Eigen8internal12print_matrixINS_6MatrixISt7complexIdELin1ELi1ELi0ELin1ELi1EEEEERSoS6_RKT_RKNS_8IOFormatE
FN:216,_ZN5EigenlsINS_6MatrixISt7complexIdELin1ELi1ELi0ELin1ELi1EEEEERSoS5_RKNS_9DenseBaseIT_EE
FNDA:0,_ZN5EigenlsINS_6MatrixISt7complexIdELin1ELi1ELi0ELin1ELi1EEEEERSoS5_RKNS_9DenseBaseIT_EE
FNF:3
FNH:0
DA:53,0
DA:57,0
DA:58,0
DA:62,0
DA:64,0
DA:65,0
DA:68,0
DA:129,0
DA:131,0
DA:134,0
DA:140,0
DA:143,0
DA:147,0
DA:160,0
DA:164,0
DA:166,0
DA:167,0
DA:170,0
DA:171,0
DA:173,0
DA:174,0
DA:175,0
DA:176,0
DA:180,0
DA:182,0
DA:185,0
DA:186,0
DA:194,0
DA:198,0
DA:216,0
DA:220,0
LF:31
LH:0
end_of_record
SF:/qulacs-osaka/include/Eigen/src/Core/SelfCwiseBinaryOp.h
DA:20,0
LF:1
LH:0
end_of_record
SF:/usr/include/c++/9/bits/exception.h
DA:63,0
LF:1
LH:0
end_of_record
SF:/usr/include/c++/9/bits/stl_algobase.h
DA:227,0
DA:228,0
DA:340,0
DA:342,0
DA:343,0
DA:344,0
LF:6
LH:0
end_of_record
SF:/qulacs-osaka/src/cppsim/qubit_info.hpp
DA:35,4
DA:44,0
DA:71,0
DA:96,0
DA:116,4
LF:5
LH:2
end_of_record
TN:
SF:/qulacs-osaka/src/cppsim/gate_matrix.hpp
FN:73,_ZN17QuantumGateMatrixD0Ev
FNDA:0,_ZN17QuantumGateMatrixD0Ev
FN:73,_ZN17QuantumGateMatrixD2Ev
FNDA:0,_ZN17QuantumGateMatrixD2Ev
FN:90,_ZN17QuantumGateMatrix15multiply_scalarESt7complexIdE
FNDA:0,_ZN17QuantumGateMatrix15multiply_scalarESt7complexIdE
FN:97,_ZN17QuantumGateMatrix17set_gate_propertyEj
FNDA:0,_ZN17QuantumGateMatrix17set_gate_propertyEj
FN:113,_ZNK17QuantumGateMatrix4copyEv
FNDA:2148,_ZNK17QuantumGateMatrix4copyEv
FN:122,_ZNK17QuantumGateMatrix10set_matrixERN5Eigen6MatrixISt7complexIdELin1ELin1ELi1ELin1ELin1EEE
FNDA:0,_ZNK17QuantumGateMatrix10set_matrixERN5Eigen6MatrixISt7complexIdELin1ELin1ELi1ELin1ELin1EEE
FNF:6
FNH:1
DA:73,0
DA:73,0
DA:90,0
DA:97,0
DA:98,0
DA:99,0
DA:113,2148
DA:114,2148
DA:122,0
DA:123,0
DA:124,0
LF:11
LH:2
end_of_record
SF:/qulacs-osaka/include/Eigen/src/Core/functors/NullaryFunctors.h
DA:19,0
DA:23,0
LF:2
LH:0
end_of_record
SF:/qulacs-osaka/src/cppsim/state.hpp
FN:66,_ZNK16QuantumStateBase15is_state_vectorEv
FNDA:3062,_ZNK16QuantumStateBase15is_state_vectorEv
FN:582,_ZNK15QuantumStateCpu6data_cEv
FNDA:2593,_ZNK15QuantumStateCpu6data_cEv
FNF:2
FNH:2
DA:66,3062
DA:582,2593
DA:583,2593
LF:3
LH:3
end_of_record
SF:/usr/include/c++/9/ostream
DA:113,0
DA:570,0
LF:2
LH:0
end_of_record
SF:/usr/include/c++/9/iostream
LF:0
LH:0
end_of_record
SF:/qulacs-osaka/include/Eigen/src/Core/util/Memory.h
FN:67,_ZN5Eigen8internal19throw_std_bad_allocEv
FNDA:0,_ZN5Eigen8internal19throw_std_bad_allocEv
FN:153,_ZN5Eigen8internal14aligned_mallocEm
FNDA:3388,_ZN5Eigen8internal14aligned_mallocEm
FN:369,_ZN5Eigen8internal28conditional_aligned_new_autoISt7complexIdELb1EEEPT_m
FNDA:3388,_ZN5Eigen8internal28conditional_aligned_new_autoISt7complexIdELb1EEEPT_m
FNF:3
FNH:2
DA:67,0
DA:70,0
DA:88,3388
DA:89,3388
DA:90,3388
DA:91,3388
DA:92,3388
DA:98,1240
DA:153,3388
DA:167,3388
DA:168,0
DA:170,3388
DA:214,3388
DA:288,3388
DA:289,0
DA:369,3388
DA:371,3388
DA:374,3388
DA:387,3388
DA:493,3388
DA:494,3388
DA:496,3388
LF:22
LH:18
end_of_record
SF:/usr/include/c++/9/bits/stl_uninitialized.h
DA:82,18969
DA:83,11667
DA:927,0
DA:928,0
DA:929,0
DA:930,0
DA:949,0
LF:7
LH:2
end_of_record
SF:/usr/include/c++/9/bits/char_traits.h
DA:300,2
DA:363,7881
DA:365,7685
LF:3
LH:3
end_of_record
SF:/qulacs-osaka/include/Eigen/src/Core/EigenBase.h
DA:66,0
LF:1
LH:0
end_of_record
SF:/qulacs-osaka/include/Eigen/src/Core/AssignEvaluator.h
FN:397,_ZN5Eigen8internal21dense_assignment_loopINS0_31generic_dense_assignment_kernelINS0_9evaluatorINS_6MatrixISt7complexIdELin1ELin1ELi1ELin1ELin1EEEEES8_NS0_9assign_opIS6_S6_EELi0EEELi3ELi0EE3runERSB_
FNDA:0,_ZN5Eigen8internal21dense_assignment_loopINS0_31generic_dense_assignment_kernelINS0_9evaluatorINS_6MatrixISt7complexIdELin1ELin1ELi1ELin1ELin1EEEEES8_NS0_9assign_opIS6_S6_EELi0EEELi3ELi0EE3runERSB_
FN:397,_ZN5Eigen8internal21dense_assignment_loopINS0_31generic_dense_assignment_kernelINS0_9evaluatorINS_6MatrixISt7complexIdELin1ELin1ELi1ELin1ELin1EEEEENS3_INS_14CwiseNullaryOpINS0_18scalar_constant_opIS6_EES7_EEEENS0_13mul_assign_opIS6_S6_EELi0EEELi3ELi0EE3runERSG_
FNDA:0,_ZN5Eigen8internal21dense_assignment_loopINS0_31generic_dense_assignment_kernelINS0_9evaluatorINS_6MatrixISt7complexIdELin1ELin1ELi1ELin1ELin1EEEEENS3_INS_14CwiseNullaryOpINS0_18scalar_constant_opIS6_EES7_EEEENS0_13mul_assign_opIS6_S6_EELi0EEELi3ELi0EE3runERSG_
FN:725,_ZN5Eigen8internal26call_dense_assignment_loopINS_6MatrixISt7complexIdELin1ELin1ELi1ELin1ELin1EEES5_NS0_9assign_opIS4_S4_EEEEvRT_RKT0_RKT1_
FNDA:0,_ZN5Eigen8internal26call_dense_assignment_loopINS_6MatrixISt7complexIdELin1ELin1ELi1ELin1ELin1EEES5_NS0_9assign_opIS4_S4_EEEEvRT_RKT0_RKT1_
FNF:3
FNH:0
DA:389,0
DA:390,0
DA:397,0
DA:399,0
DA:411,0
DA:415,0
DA:416,0
DA:419,0
DA:397,0
DA:399,0
DA:411,0
DA:415,0
DA:416,0
DA:419,0
DA:610,0
DA:611,0
DA:637,0
DA:658,0
DA:719,0
DA:720,0
DA:725,0
DA:741,0
DA:742,0
DA:782,0
DA:879,0
LF:25
LH:0
end_of_record
SF:/usr/include/c++/9/bits/basic_string.tcc
FN:206,_ZNSt7__cxx1112basic_stringIcSt11char_traitsIcESaIcEE12_M_constructIPcEEvT_S7_St20forward_iterator_tag
FNDA:0,_ZNSt7__cxx1112basic_stringIcSt11char_traitsIcESaIcEE12_M_constructIPcEEvT_S7_St20forward_iterator_tag
FN:206,_ZNSt7__cxx1112basic_stringIcSt11char_traitsIcESaIcEE12_M_constructIPKcEEvT_S8_St20forward_iterator_tag
FNDA:7883,_ZNSt7__cxx1112basic_stringIcSt11char_traitsIcESaIcEE12_M_constructIPKcEEvT_S8_St20forward_iterator_tag
FNF:2
FNH:1
DA:206,0
DA:211,0
DA:212,0
DA:215,0
DA:217,0
DA:219,0
DA:220,0
DA:225,0
DA:232,0
DA:233,0
DA:206,7883
DA:211,7883
DA:212,0
DA:215,7883
DA:217,7883
DA:219,71
DA:220,71
DA:225,7883
DA:232,7883
DA:233,7883
LF:20
LH:9
end_of_record
SF:/usr/include/c++/9/bits/stl_algo.h
DA:4336,10025
DA:4337,6963
LF:2
LH:2
end_of_record
SF:/qulacs-osaka/include/Eigen/src/Core/DenseStorage.h
FN:353,_ZN5Eigen12DenseStorageISt7complexIdELin1ELin1ELin1ELi1EEC2ERKS3_
FNDA:3388,_ZN5Eigen12DenseStorageISt7complexIdELin1ELin1ELin1ELi1EEC2ERKS3_
FN:402,_ZN5Eigen12DenseStorageISt7complexIdELin1ELin1ELin1ELi1EE6resizeElll
FNDA:0,_ZN5Eigen12DenseStorageISt7complexIdELin1ELin1ELin1ELi1EE6resizeElll
FNF:2
FNH:1
DA:344,4791
DA:353,3388
DA:354,3388
DA:355,3388
DA:356,3388
DA:359,3388
DA:360,3388
DA:391,0
DA:402,0
DA:404,0
DA:406,0
DA:407,0
DA:408,0
DA:410,0
DA:413,0
DA:414,0
DA:415,0
LF:17
LH:7
end_of_record
SF:/usr/include/c++/9/streambuf
LF:0
LH:0
end_of_record
SF:/usr/include/c++/9/bits/move.h
DA:193,4791
DA:194,4791
DA:195,4791
LF:3
LH:3
end_of_record
SF:/usr/include/x86_64-linux-gnu/bits/string_fortified.h
DA:34,3388
LF:1
LH:1
end_of_record
SF:/usr/include/c++/9/bits/vector.tcc
FN:109,_ZNSt6vectorIjSaIjEE12emplace_backIJjEEEvDpOT_
FNDA:7685,_ZNSt6vectorIjSaIjEE12emplace_backIJjEEEvDpOT_
FN:109,_ZNSt6vectorI16ControlQubitInfoSaIS0_EE12emplace_backIJS0_EEEvDpOT_
FNDA:146,_ZNSt6vectorI16ControlQubitInfoSaIS0_EE12emplace_backIJS0_EEEvDpOT_
FN:109,_ZNSt6vectorI15TargetQubitInfoSaIS0_EE12emplace_backIJS0_EEEvDpOT_
FNDA:2416,_ZNSt6vectorI15TargetQubitInfoSaIS0_EE12emplace_backIJS0_EEEvDpOT_
FN:198,_ZNSt6vectorI16ControlQubitInfoSaIS0_EEaSERKS2_
FNDA:0,_ZNSt6vectorI16ControlQubitInfoSaIS0_EEaSERKS2_
FN:198,_ZNSt6vectorI15TargetQubitInfoSaIS0_EEaSERKS2_
FNDA:0,_ZNSt6vectorI15TargetQubitInfoSaIS0_EEaSERKS2_
FN:426,_ZNSt6vectorIjSaIjEE17_M_realloc_insertIJjEEEvN9__gnu_cxx17__normal_iteratorIPjS1_EEDpOT_
FNDA:0,_ZNSt6vectorIjSaIjEE17_M_realloc_insertIJjEEEvN9__gnu_cxx17__normal_iteratorIPjS1_EEDpOT_
FN:426,_ZNSt6vectorI16ControlQubitInfoSaIS0_EE17_M_realloc_insertIJS0_EEEvN9__gnu_cxx17__normal_iteratorIPS0_S2_EEDpOT_
FNDA:0,_ZNSt6vectorI16ControlQubitInfoSaIS0_EE17_M_realloc_insertIJS0_EEEvN9__gnu_cxx17__normal_iteratorIPS0_S2_EEDpOT_
FN:426,_ZNSt6vectorI15TargetQubitInfoSaIS0_EE17_M_realloc_insertIJS0_EEEvN9__gnu_cxx17__normal_iteratorIPS0_S2_EEDpOT_
FNDA:0,_ZNSt6vectorI15TargetQubitInfoSaIS0_EE17_M_realloc_insertIJS0_EEEvN9__gnu_cxx17__normal_iteratorIPS0_S2_EEDpOT_
FNF:8
FNH:3
DA:109,7685
DA:112,7685
DA:115,416
DA:117,416
DA:121,7269
DA:125,7685
DA:109,146
DA:112,146
DA:117,0
DA:121,146
DA:125,146
DA:109,2416
DA:112,2416
DA:117,122
DA:121,2294
DA:125,2416
DA:198,0
DA:201,0
DA:223,0
DA:224,0
DA:228,0
DA:233,0
DA:234,0
DA:236,0
DA:243,0
DA:250,0
DA:252,0
DA:198,0
DA:201,0
DA:223,0
DA:224,0
DA:228,0
DA:233,0
DA:234,0
DA:236,0
DA:243,0
DA:250,0
DA:252,0
DA:426,0
DA:435,0
DA:437,0
DA:438,0
DA:440,0
DA:449,0
DA:450,0
DA:464,0
DA:502,0
DA:503,0
DA:504,0
DA:505,0
DA:426,0
DA:435,0
DA:437,0
DA:438,0
DA:440,0
DA:449,0
DA:450,0
DA:464,0
DA:502,0
DA:503,0
DA:504,0
DA:505,0
DA:426,0
DA:435,0
DA:437,0
DA:438,0
DA:440,0
DA:449,0
DA:450,0
DA:464,0
DA:502,0
DA:503,0
DA:504,0
DA:505,0
LF:74
LH:15
end_of_record
SF:/qulacs-osaka/include/Eigen/src/Core/functors/AssignmentFunctors.h
DA:24,0
LF:1
LH:0
end_of_record
SF:/qulacs-osaka/src/cppsim/gate_matrix.cpp
FN:18,_ZN17QuantumGateMatrixC2ERKSt6vectorIjSaIjEERKN5Eigen6MatrixISt7complexIdELin1ELin1ELi1ELin1ELin1EEES4_
FNDA:1140,_ZN17QuantumGateMatrixC2ERKSt6vectorIjSaIjEERKN5Eigen6MatrixISt7complexIdELin1ELin1ELi1ELin1ELin1EEES4_
FN:31,_ZN17QuantumGateMatrixC2ERKSt6vectorI15TargetQubitInfoSaIS1_EERKN5Eigen6MatrixISt7complexIdELin1ELin1ELi1ELin1ELin1EEERKS0_I16ControlQubitInfoSaISD_EE
FNDA:100,_ZN17QuantumGateMatrixC2ERKSt6vectorI15TargetQubitInfoSaIS1_EERKN5Eigen6MatrixISt7complexIdELin1ELin1ELi1ELin1ELin1EEERKS0_I16ControlQubitInfoSaISD_EE
FN:45,_ZN17QuantumGateMatrixC2ERKSt6vectorIjSaIjEEPN5Eigen6MatrixISt7complexIdELin1ELin1ELi1ELin1ELin1EEES4_
FNDA:0,_ZN17QuantumGateMatrixC2ERKSt6vectorIjSaIjEEPN5Eigen6MatrixISt7complexIdELin1ELin1ELi1ELin1ELin1EEES4_
FN:58,_ZN17QuantumGateMatrixC2ERKSt6vectorI15TargetQubitInfoSaIS1_EEPN5Eigen6MatrixISt7complexIdELin1ELin1ELi1ELin1ELin1EEERKS0_I16ControlQubitInfoSaISC_EE
FNDA:3551,_ZN17QuantumGateMatrixC2ERKSt6vectorI15TargetQubitInfoSaIS1_EEPN5Eigen6MatrixISt7complexIdELin1ELin1ELi1ELin1ELin1EEERKS0_I16ControlQubitInfoSaISC_EE
FN:70,_ZN17QuantumGateMatrix20update_quantum_stateEP16QuantumStateBase
FNDA:3062,_ZN17QuantumGateMatrix20update_quantum_stateEP16QuantumStateBase
FN:273,_ZN17QuantumGateMatrix17add_control_qubitEjj
FNDA:146,_ZN17QuantumGateMatrix17add_control_qubitEjj
FN:281,_ZNK17QuantumGateMatrix9to_stringB5cxx11Ev
FNDA:0,_ZNK17QuantumGateMatrix9to_stringB5cxx11Ev
FN:289,_ZlsRSoRK17QuantumGateMatrix
FNDA:0,_ZlsRSoRK17QuantumGateMatrix
FN:293,_ZlsRSoP17QuantumGateMatrix
FNDA:0,_ZlsRSoP17QuantumGateMatrix
FNF:9
FNH:5
DA:18,1140
DA:21,1140
DA:22,3556
DA:23,2416
DA:25,1140
DA:26,0
DA:28,1140
DA:29,1140
DA:30,1140
DA:31,100
DA:34,100
DA:36,100
DA:38,200
DA:39,100
DA:40,100
DA:41,100
DA:45,0
DA:48,0
DA:49,0
DA:50,0
DA:52,0
DA:53,0
DA:56,0
DA:57,0
DA:58,3551
DA:61,3551
DA:63,3551
DA:65,7102
DA:67,3551
DA:68,3551
DA:70,3062
DA:71,3062
DA:98,3062
DA:99,3423
DA:100,361
DA:101,361
DA:104,3062
DA:106,2593
DA:108,436
DA:119,670
DA:120,335
DA:124,101
DA:137,162
DA:138,81
DA:139,81
DA:169,40
DA:170,20
DA:171,20
DA:172,20
DA:180,2157
DA:193,2117
DA:194,2117
DA:199,40
DA:214,40
DA:215,20
DA:216,20
DA:238,40
DA:239,20
DA:240,20
DA:241,20
DA:247,469
DA:248,409
DA:249,84
DA:250,42
DA:252,367
DA:253,367
DA:257,60
DA:258,40
DA:259,20
DA:260,20
DA:261,20
DA:263,80
DA:264,40
DA:265,40
DA:266,40
DA:271,3062
DA:273,146
DA:275,146
DA:276,146
DA:277,146
DA:278,146
DA:279,146
DA:281,0
DA:282,0
DA:283,0
DA:285,0
DA:286,0
DA:289,0
DA:290,0
DA:291,0
DA:293,0
DA:294,0
DA:295,0
LF:93
LH:73
end_of_record
SF:/usr/include/c++/9/bits/basic_string.h
DA:159,0
DA:160,0
DA:179,71
DA:183,7883
DA:193,0
DA:203,0
DA:211,71
DA:217,7883
DA:222,0
DA:231,0
DA:237,0
DA:247,0
DA:348,7883
DA:349,2
DA:448,0
DA:451,0
DA:658,0
DA:705,4791
DA:1070,0
DA:1188,0
DA:1366,2148
DA:2313,0
DA:6421,0
LF:23
LH:8
end_of_record
SF:/usr/include/c++/9/bits/locale_facets.h
FN:872,_ZNKSt5ctypeIcE5widenEc
FNDA:0,_ZNKSt5ctypeIcE5widenEc
FN:1084,_ZNKSt5ctypeIcE8do_widenEc
FNDA:0,_ZNKSt5ctypeIcE8do_widenEc
FNF:2
FNH:0
DA:872,0
DA:874,0
DA:875,0
DA:876,0
DA:877,0
DA:1084,0
DA:1085,0
LF:7
LH:0
end_of_record
SF:/qulacs-osaka/include/Eigen/src/Core/PlainObjectBase.h
FN:279,_ZN5Eigen15PlainObjectBaseINS_6MatrixISt7complexIdELin1ELin1ELi1ELin1ELin1EEEE6resizeEll
FNDA:0,_ZN5Eigen15PlainObjectBaseINS_6MatrixISt7complexIdELin1ELin1ELi1ELin1ELin1EEEE6resizeEll
FNF:1
FNH:0
DA:45,0
DA:46,0
DA:48,0
DA:151,0
DA:153,0
DA:163,0
DA:256,0
DA:260,3062
DA:279,0
DA:293,0
DA:295,0
DA:519,1240
DA:520,1240
LF:13
LH:3
end_of_record
SF:/usr/include/c++/9/bits/ios_base.h
DA:707,0
DA:708,0
DA:709,0
DA:731,0
DA:732,0
LF:5
LH:0
end_of_record
SF:/usr/include/c++/9/ext/new_allocator.h
DA:128,3464
LF:1
LH:1
end_of_record
SF:/qulacs-osaka/src/cppsim/qubit_info.hpp
DA:35,2562
DA:44,434
DA:71,146
DA:96,18679
DA:116,2416
LF:5
LH:5
end_of_record
SF:/usr/include/c++/9/bits/exception.h
DA:63,0
LF:1
LH:0
end_of_record
SF:/usr/include/c++/9/bits/stl_algobase.h
DA:227,0
DA:228,0
DA:340,0
DA:342,0
DA:343,0
DA:344,0
LF:6
LH:0
end_of_record
SF:/qulacs-osaka/include/Eigen/src/Core/IO.h
FN:53,_ZN5Eigen8IOFormatC2EiiRKNSt7__cxx1112basic_stringIcSt11char_traitsIcESaIcEEES8_S8_S8_S8_S8_
FNDA:0,_ZN5Eigen8IOFormatC2EiiRKNSt7__cxx1112basic_stringIcSt11char_traitsIcESaIcEEES8_S8_S8_S8_S8_
FN:129,_ZN5Eigen8internal12print_matrixINS_6MatrixISt7complexIdELin1ELin1ELi1ELin1ELin1EEEEERSoS6_RKT_RKNS_8IOFormatE
FNDA:0,_ZN5Eigen8internal12print_matrixINS_6MatrixISt7complexIdELin1ELin1ELi1ELin1ELin1EEEEERSoS6_RKT_RKNS_8IOFormatE
FN:216,_ZN5EigenlsINS_6MatrixISt7complexIdELin1ELin1ELi1ELin1ELin1EEEEERSoS5_RKNS_9DenseBaseIT_EE
FNDA:0,_ZN5EigenlsINS_6MatrixISt7complexIdELin1ELin1ELi1ELin1ELin1EEEEERSoS5_RKNS_9DenseBaseIT_EE
FNF:3
FNH:0
DA:53,0
DA:57,0
DA:58,0
DA:62,0
DA:64,0
DA:65,0
DA:68,0
DA:129,0
DA:131,0
DA:134,0
DA:140,0
DA:143,0
DA:147,0
DA:160,0
DA:164,0
DA:166,0
DA:167,0
DA:170,0
DA:171,0
DA:173,0
DA:174,0
DA:175,0
DA:176,0
DA:180,0
DA:182,0
DA:185,0
DA:186,0
DA:187,0
DA:190,0
DA:191,0
DA:194,0
DA:198,0
DA:216,0
DA:220,0
LF:34
LH:0
end_of_record
SF:/qulacs-osaka/include/Eigen/src/Core/SelfCwiseBinaryOp.h
FN:18,_ZN5Eigen9DenseBaseINS_6MatrixISt7complexIdELin1ELin1ELi1ELin1ELin1EEEEmLERKS3_
FNDA:0,_ZN5Eigen9DenseBaseINS_6MatrixISt7complexIdELin1ELin1ELi1ELin1ELin1EEEEmLERKS3_
FNF:1
FNH:0
DA:18,0
DA:20,0
DA:21,0
LF:3
LH:0
end_of_record
SF:/usr/include/c++/9/bits/stl_vector.h
FN:550,_ZNSt6vectorI16ControlQubitInfoSaIS0_EEC2ERKS2_
FNDA:3651,_ZNSt6vectorI16ControlQubitInfoSaIS0_EEC2ERKS2_
FN:550,_ZNSt6vectorI15TargetQubitInfoSaIS0_EEC2ERKS2_
FNDA:3651,_ZNSt6vectorI15TargetQubitInfoSaIS0_EEC2ERKS2_
FN:1753,_ZNKSt6vectorI16ControlQubitInfoSaIS0_EE12_M_check_lenEmPKc
FNDA:0,_ZNKSt6vectorI16ControlQubitInfoSaIS0_EE12_M_check_lenEmPKc
FN:1753,_ZNKSt6vectorI15TargetQubitInfoSaIS0_EE12_M_check_lenEmPKc
FNDA:0,_ZNKSt6vectorI15TargetQubitInfoSaIS0_EE12_M_check_lenEmPKc
FN:1753,_ZNKSt6vectorIjSaIjEE12_M_check_lenEmPKc
FNDA:0,_ZNKSt6vectorIjSaIjEE12_M_check_lenEmPKc
FNF:5
FNH:2
DA:94,12512
DA:95,10001
DA:108,7302
DA:109,7302
DA:110,7302
DA:350,7302
DA:358,14604
DA:359,7302
DA:360,7302
DA:550,3651
DA:552,3651
DA:554,3651
DA:555,3651
DA:558,3651
DA:550,3651
DA:552,3651
DA:554,3651
DA:555,3651
DA:558,3651
DA:677,10364
DA:680,3263
DA:916,12968
DA:997,0
DA:1201,9886
DA:1508,0
DA:1753,0
DA:1755,0
DA:1756,0
DA:1758,0
DA:1759,0
DA:1753,0
DA:1755,0
DA:1756,0
DA:1758,0
DA:1759,0
DA:1753,0
DA:1755,0
DA:1756,0
DA:1758,0
DA:1759,0
LF:40
LH:23
end_of_record
SF:/qulacs-osaka/include/Eigen/src/Core/Matrix.h
DA:178,0
DA:208,0
DA:369,1240
LF:3
LH:1
end_of_record
SF:/usr/include/c++/9/bits/stl_iterator.h
DA:535,6963
DA:807,3062
DA:829,18630
DA:830,2777
DA:992,0
LF:5
LH:4
end_of_record
SF:/usr/include/c++/9/new
DA:57,0
LF:1
LH:0
end_of_record
SF:/usr/include/c++/9/complex
DA:1348,0
LF:1
LH:0
end_of_record
SF:/qulacs-osaka/include/Eigen/src/Core/util/XprHelper.h
DA:120,0
LF:1
LH:0
end_of_record
SF:/qulacs-osaka/src/cppsim/gate.hpp
FN:92,_ZN15QuantumGateBaseC2Ev
FNDA:4791,_ZN15QuantumGateBaseC2Ev
FN:95,_ZN15QuantumGateBaseC2ERKS_
FNDA:2148,_ZN15QuantumGateBaseC2ERKS_
FN:109,_ZN15QuantumGateBaseD0Ev
FNDA:0,_ZN15QuantumGateBaseD0Ev
FN:109,_ZN15QuantumGateBaseD2Ev
FNDA:0,_ZN15QuantumGateBaseD2Ev
FN:270,_ZN15QuantumGateBase8set_seedEi
FNDA:0,_ZN15QuantumGateBase8set_seedEi
FN:271,_ZN15QuantumGateBase27get_cumulative_distributionEv
FNDA:0,_ZN15QuantumGateBase27get_cumulative_distributionEv
FN:272,_ZN15QuantumGateBase13get_gate_listEv
FNDA:0,_ZN15QuantumGateBase13get_gate_listEv
FN:273,_ZN15QuantumGateBase25optimize_ProbablisticGateEv
FNDA:0,_ZN15QuantumGateBase25optimize_ProbablisticGateEv
FNF:8
FNH:2
DA:92,4791
DA:93,4791
DA:94,4791
DA:95,2148
DA:96,2148
DA:97,2148
DA:98,2148
DA:99,2148
DA:100,2148
DA:101,2148
DA:102,2148
DA:109,0
DA:109,0
DA:270,0
DA:271,0
DA:272,0
DA:273,0
LF:17
LH:11
end_of_record
SF:/qulacs-osaka/include/Eigen/src/Core/CoreEvaluators.h
DA:155,0
DA:172,0
DA:187,0
DA:204,0
DA:472,0
LF:5
LH:0
end_of_record
SF:/usr/include/c++/9/sstream
DA:832,0
LF:1
LH:0
end_of_record
SF:/usr/lib/gcc/x86_64-linux-gnu/9/include/avxintrin.h
DA:155,0
DA:314,0
DA:339,0
DA:741,0
DA:862,0
DA:868,0
LF:6
LH:0
end_of_record
SF:/usr/include/c++/9/bits/stl_iterator_base_funcs.h
DA:104,7883
LF:1
LH:1
end_of_record
SF:/usr/include/c++/9/bits/alloc_traits.h
DA:470,3464
DA:484,122
LF:2
LH:2
end_of_record
TN:
SF:/usr/include/c++/9/bits/uniform_int_dist.h
FN:225,_ZNSt24uniform_int_distributionImEclISt23mersenne_twister_engineImLm32ELm624ELm397ELm31ELm2567483615ELm11ELm4294967295ELm7ELm2636928640ELm15ELm4022730752ELm18ELm1812433253EEEEmRT_RKNS0_10param_typeE
FNDA:10200,_ZNSt24uniform_int_distributionImEclISt23mersenne_twister_engineImLm32ELm624ELm397ELm31ELm2567483615ELm11ELm4294967295ELm7ELm2636928640ELm15ELm4022730752ELm18ELm1812433253EEEEmRT_RKNS0_10param_typeE
FNF:1
FNH:1
DA:74,10200
DA:76,0
DA:173,10200
DA:225,10200
DA:238,10200
DA:239,10200
DA:243,10200
DA:246,10200
DA:247,10200
DA:248,10200
DA:250,10234
DA:251,10234
DA:252,10200
DA:254,0
DA:275,0
DA:277,0
DA:279,0
DA:282,0
DA:284,10200
LF:19
LH:13
end_of_record
SF:/usr/include/c++/9/bits/alloc_traits.h
DA:470,60682
LF:1
LH:1
end_of_record
SF:/usr/include/c++/9/bits/stl_iterator_base_funcs.h
DA:104,32
DA:180,223202
LF:2
LH:2
end_of_record
SF:/usr/include/c++/9/sstream
DA:832,0
LF:1
LH:0
end_of_record
SF:/qulacs-osaka/include/Eigen/src/Core/CoreEvaluators.h
DA:187,0
LF:1
LH:0
end_of_record
SF:/qulacs-osaka/src/cppsim/utility.hpp
FN:58,_ZN6RandomC2Ev
FNDA:0,_ZN6RandomC2Ev
FNF:1
FNH:0
DA:58,0
DA:59,0
DA:60,0
DA:61,0
DA:74,60400
DA:95,6
LF:6
LH:2
end_of_record
SF:/qulacs-osaka/src/cppsim/gate.hpp
FN:271,_ZN15QuantumGateBase27get_cumulative_distributionEv
FNDA:0,_ZN15QuantumGateBase27get_cumulative_distributionEv
FN:272,_ZN15QuantumGateBase13get_gate_listEv
FNDA:0,_ZN15QuantumGateBase13get_gate_listEv
FN:273,_ZN15QuantumGateBase25optimize_ProbablisticGateEv
FNDA:0,_ZN15QuantumGateBase25optimize_ProbablisticGateEv
FNF:3
FNH:0
DA:271,0
DA:272,0
DA:273,0
LF:3
LH:0
end_of_record
SF:/usr/include/c++/9/bits/random.h
FN:1606,_ZNSt13random_deviceC2Ev
FNDA:0,_ZNSt13random_deviceC2Ev
FNF:1
FNH:0
DA:139,3738
DA:181,60400
DA:519,6
DA:1606,0
DA:1612,0
DA:1643,0
DA:1751,0
DA:1752,0
DA:1862,60400
DA:1981,0
DA:1982,0
DA:2017,0
DA:2019,0
LF:13
LH:4
end_of_record
SF:/usr/include/c++/9/bits/stl_heap.h
FN:128,_ZSt11__push_heapIN9__gnu_cxx17__normal_iteratorIPSt6vectorIjSaIjEES2_IS4_SaIS4_EEEElS4_NS0_5__ops14_Iter_less_valEEvT_T0_SC_T1_RT2_
FNDA:0,_ZSt11__push_heapIN9__gnu_cxx17__normal_iteratorIPSt6vectorIjSaIjEES2_IS4_SaIS4_EEEElS4_NS0_5__ops14_Iter_less_valEEvT_T0_SC_T1_RT2_
FN:128,_ZSt11__push_heapISt16reverse_iteratorIN9__gnu_cxx17__normal_iteratorIPSt4pairIdiESt6vectorIS4_SaIS4_EEEEElS4_NS1_5__ops14_Iter_less_valEEvT_T0_SE_T1_RT2_
FNDA:0,_ZSt11__push_heapISt16reverse_iteratorIN9__gnu_cxx17__normal_iteratorIPSt4pairIdiESt6vectorIS4_SaIS4_EEEEElS4_NS1_5__ops14_Iter_less_valEEvT_T0_SE_T1_RT2_
FN:214,_ZSt13__adjust_heapIN9__gnu_cxx17__normal_iteratorIPSt6vectorIjSaIjEES2_IS4_SaIS4_EEEElS4_NS0_5__ops15_Iter_less_iterEEvT_T0_SC_T1_T2_
FNDA:0,_ZSt13__adjust_heapIN9__gnu_cxx17__normal_iteratorIPSt6vectorIjSaIjEES2_IS4_SaIS4_EEEElS4_NS0_5__ops15_Iter_less_iterEEvT_T0_SC_T1_T2_
FN:214,_ZSt13__adjust_heapISt16reverse_iteratorIN9__gnu_cxx17__normal_iteratorIPSt4pairIdiESt6vectorIS4_SaIS4_EEEEElS4_NS1_5__ops15_Iter_less_iterEEvT_T0_SE_T1_T2_
FNDA:0,_ZSt13__adjust_heapISt16reverse_iteratorIN9__gnu_cxx17__normal_iteratorIPSt4pairIdiESt6vectorIS4_SaIS4_EEEEElS4_NS1_5__ops15_Iter_less_iterEEvT_T0_SE_T1_T2_
FN:243,_ZSt10__pop_heapIN9__gnu_cxx17__normal_iteratorIPSt6vectorIjSaIjEES2_IS4_SaIS4_EEEENS0_5__ops15_Iter_less_iterEEvT_SB_SB_RT0_
FNDA:0,_ZSt10__pop_heapIN9__gnu_cxx17__normal_iteratorIPSt6vectorIjSaIjEES2_IS4_SaIS4_EEEENS0_5__ops15_Iter_less_iterEEvT_SB_SB_RT0_
FN:326,_ZSt11__make_heapIN9__gnu_cxx17__normal_iteratorIPSt6vectorIjSaIjEES2_IS4_SaIS4_EEEENS0_5__ops15_Iter_less_iterEEvT_SB_RT0_
FNDA:0,_ZSt11__make_heapIN9__gnu_cxx17__normal_iteratorIPSt6vectorIjSaIjEES2_IS4_SaIS4_EEEENS0_5__ops15_Iter_less_iterEEvT_SB_RT0_
FN:326,_ZSt11__make_heapISt16reverse_iteratorIN9__gnu_cxx17__normal_iteratorIPSt4pairIdiESt6vectorIS4_SaIS4_EEEEENS1_5__ops15_Iter_less_iterEEvT_SD_RT0_
FNDA:0,_ZSt11__make_heapISt16reverse_iteratorIN9__gnu_cxx17__normal_iteratorIPSt4pairIdiESt6vectorIS4_SaIS4_EEEEENS1_5__ops15_Iter_less_iterEEvT_SD_RT0_
FNF:7
FNH:0
DA:128,0
DA:132,0
DA:133,0
DA:137,0
DA:140,0
DA:128,0
DA:132,0
DA:133,0
DA:137,0
DA:140,0
DA:214,0
DA:219,0
DA:221,0
DA:222,0
DA:228,0
DA:230,0
DA:231,0
DA:237,0
DA:239,0
DA:214,0
DA:219,0
DA:221,0
DA:222,0
DA:228,0
DA:230,0
DA:231,0
DA:237,0
DA:239,0
DA:243,0
DA:253,0
DA:256,0
DA:326,0
DA:334,0
DA:338,0
DA:342,0
DA:344,0
DA:346,0
DA:326,0
DA:334,0
DA:338,0
DA:339,0
DA:341,0
DA:342,0
DA:344,0
DA:345,0
DA:346,0
DA:405,0
DA:408,0
LF:48
LH:0
end_of_record
SF:/qulacs-osaka/src/cppsim/gate_general.hpp
FN:51,_ZN25QuantumGate_Probabilistic20update_quantum_stateEP16QuantumStateBase
FNDA:0,_ZN25QuantumGate_Probabilistic20update_quantum_stateEP16QuantumStateBase
FN:117,_ZN25QuantumGate_Probabilistic27get_cumulative_distributionEv
FNDA:0,_ZN25QuantumGate_Probabilistic27get_cumulative_distributionEv
FN:120,_ZN25QuantumGate_Probabilistic13get_gate_listEv
FNDA:0,_ZN25QuantumGate_Probabilistic13get_gate_listEv
FN:123,_ZN25QuantumGate_Probabilistic25optimize_ProbablisticGateEv
FNDA:0,_ZN25QuantumGate_Probabilistic25optimize_ProbablisticGateEv
FN:196,_ZN35QuantumGate_ProbabilisticInstrument20update_quantum_stateEP16QuantumStateBase
FNDA:0,_ZN35QuantumGate_ProbabilisticInstrument20update_quantum_stateEP16QuantumStateBase
FN:263,_ZN16QuantumGate_CPTP20update_quantum_stateEP16QuantumStateBase
FNDA:0,_ZN16QuantumGate_CPTP20update_quantum_stateEP16QuantumStateBase
FN:369,_ZN14QuantumGate_CP20update_quantum_stateEP16QuantumStateBase
FNDA:0,_ZN14QuantumGate_CP20update_quantum_stateEP16QuantumStateBase
FN:488,_ZN22QuantumGate_Instrument20update_quantum_stateEP16QuantumStateBase
FNDA:0,_ZN22QuantumGate_Instrument20update_quantum_stateEP16QuantumStateBase
FN:574,_ZN20QuantumGate_Adaptive20update_quantum_stateEP16QuantumStateBase
FNDA:0,_ZN20QuantumGate_Adaptive20update_quantum_stateEP16QuantumStateBase
FNF:9
FNH:0
DA:51,0
DA:52,0
DA:58,0
DA:60,0
DA:61,0
DA:64,0
DA:65,0
DA:66,0
DA:68,0
DA:69,0
DA:70,0
DA:71,0
DA:72,0
DA:73,0
DA:74,0
DA:75,0
DA:77,0
DA:78,0
DA:79,0
DA:82,0
DA:83,0
DA:85,0
DA:117,0
DA:118,0
DA:120,0
DA:121,0
DA:123,0
DA:124,0
DA:126,0
DA:127,0
DA:131,0
DA:132,0
DA:133,0
DA:135,0
DA:137,0
DA:138,0
DA:139,0
DA:140,0
DA:141,0
DA:142,0
DA:144,0
DA:196,0
DA:202,0
DA:204,0
DA:205,0
DA:207,0
DA:208,0
DA:209,0
DA:263,0
DA:264,0
DA:268,0
DA:270,0
DA:271,0
DA:272,0
DA:273,0
DA:274,0
DA:275,0
DA:276,0
DA:277,0
DA:280,0
DA:283,0
DA:288,0
DA:290,0
DA:291,0
DA:292,0
DA:294,0
DA:295,0
DA:296,0
DA:297,0
DA:298,0
DA:299,0
DA:301,0
DA:302,0
DA:305,0
DA:306,0
DA:308,0
DA:369,0
DA:370,0
DA:374,0
DA:376,0
DA:382,0
DA:384,0
DA:385,0
DA:386,0
DA:387,0
DA:388,0
DA:392,0
DA:393,0
DA:394,0
DA:395,0
DA:396,0
DA:397,0
DA:398,0
DA:399,0
DA:403,0
DA:406,0
DA:407,0
DA:408,0
DA:411,0
DA:413,0
DA:414,0
DA:415,0
DA:417,0
DA:418,0
DA:419,0
DA:420,0
DA:421,0
DA:422,0
DA:424,0
DA:425,0
DA:428,0
DA:429,0
DA:431,0
DA:488,0
DA:492,0
DA:494,0
DA:496,0
DA:497,0
DA:498,0
DA:499,0
DA:500,0
DA:501,0
DA:502,0
DA:505,0
DA:506,0
DA:509,0
DA:514,0
DA:516,0
DA:517,0
DA:574,0
DA:576,0
DA:577,0
DA:579,0
DA:581,0
DA:582,0
DA:584,0
LF:136
LH:0
end_of_record
SF:/usr/include/c++/9/new
DA:57,0
LF:1
LH:0
end_of_record
SF:/usr/include/c++/9/bits/stl_iterator.h
DA:137,0
DA:143,0
DA:144,0
DA:179,0
DA:207,0
DA:231,0
DA:232,0
DA:255,0
DA:418,0
DA:807,24
DA:829,62260
DA:830,26344
DA:835,10200
DA:841,0
DA:842,122271
DA:856,223202
DA:860,10218
DA:868,2140
DA:910,32
DA:925,0
DA:992,133234
LF:21
LH:10
end_of_record
SF:/usr/include/c++/9/bits/stl_numeric.h
LF:0
LH:0
end_of_record
SF:/usr/include/c++/9/complex
DA:684,4448
DA:1234,0
DA:1252,4448
DA:1256,4448
DA:1282,0
DA:1348,0
LF:6
LH:3
end_of_record
SF:/usr/include/c++/9/bits/stl_vector.h
FN:519,_ZNSt6vectorIjSaIjEEC2EmRKjRKS0_
FNDA:6,_ZNSt6vectorIjSaIjEEC2EmRKjRKS0_
FN:519,_ZNSt6vectorIS_IjSaIjEESaIS1_EEC2EmRKS1_RKS2_
FNDA:6,_ZNSt6vectorIS_IjSaIjEESaIS1_EEC2EmRKS1_RKS2_
FN:550,_ZNSt6vectorIjSaIjEEC2ERKS1_
FNDA:20610,_ZNSt6vectorIjSaIjEEC2ERKS1_
FN:550,_ZNSt6vectorIdSaIdEEC2ERKS1_
FNDA:0,_ZNSt6vectorIdSaIdEEC2ERKS1_
FN:550,_ZNSt6vectorIP15QuantumGateBaseSaIS1_EEC2ERKS3_
FNDA:0,_ZNSt6vectorIP15QuantumGateBaseSaIS1_EEC2ERKS3_
FN:550,_ZNSt6vectorIN14NoiseSimulator15SamplingRequestESaIS1_EEC2ERKS3_
FNDA:6,_ZNSt6vectorIN14NoiseSimulator15SamplingRequestESaIS1_EEC2ERKS3_
FN:675,_ZNSt6vectorIN14NoiseSimulator15SamplingRequestESaIS1_EED2Ev
FNDA:12,_ZNSt6vectorIN14NoiseSimulator15SamplingRequestESaIS1_EED2Ev
FN:675,_ZNSt6vectorIS_IjSaIjEESaIS1_EED2Ev
FNDA:6,_ZNSt6vectorIS_IjSaIjEESaIS1_EED2Ev
FN:954,_ZNSt6vectorIjSaIjEE6resizeEmRKj
FNDA:0,_ZNSt6vectorIjSaIjEE6resizeEmRKj
FN:1184,_ZNSt6vectorIySaIyEE9push_backERKy
FNDA:20400,_ZNSt6vectorIySaIyEE9push_backERKy
FN:1184,_ZNSt6vectorIP15QuantumGateBaseSaIS1_EE9push_backERKS1_
FNDA:0,_ZNSt6vectorIP15QuantumGateBaseSaIS1_EE9push_backERKS1_
FN:1184,_ZNSt6vectorIdSaIdEE9push_backERKd
FNDA:4448,_ZNSt6vectorIdSaIdEE9push_backERKd
FN:1184,_ZNSt6vectorIjSaIjEE9push_backERKj
FNDA:0,_ZNSt6vectorIjSaIjEE9push_backERKj
FN:1753,_ZNKSt6vectorIjSaIjEE12_M_check_lenEmPKc
FNDA:0,_ZNKSt6vectorIjSaIjEE12_M_check_lenEmPKc
FN:1753,_ZNKSt6vectorIdSaIdEE12_M_check_lenEmPKc
FNDA:0,_ZNKSt6vectorIdSaIdEE12_M_check_lenEmPKc
FN:1753,_ZNKSt6vectorIP15QuantumGateBaseSaIS1_EE12_M_check_lenEmPKc
FNDA:0,_ZNKSt6vectorIP15QuantumGateBaseSaIS1_EE12_M_check_lenEmPKc
FN:1753,_ZNKSt6vectorIySaIyEE12_M_check_lenEmPKc
FNDA:62,_ZNKSt6vectorIySaIyEE12_M_check_lenEmPKc
FN:1753,_ZNKSt6vectorISt4pairIdiESaIS1_EE12_M_check_lenEmPKc
FNDA:0,_ZNKSt6vectorISt4pairIdiESaIS1_EE12_M_check_lenEmPKc
FN:1753,_ZNKSt6vectorIN14NoiseSimulator15SamplingRequestESaIS1_EE12_M_check_lenEmPKc
FNDA:14,_ZNKSt6vectorIN14NoiseSimulator15SamplingRequestESaIS1_EE12_M_check_lenEmPKc
FN:1888,_ZSteqIjSaIjEEbRKSt6vectorIT_T0_ES6_
FNDA:20394,_ZSteqIjSaIjEEbRKSt6vectorIT_T0_ES6_
FNF:20
FNH:11
DA:94,20654
DA:95,44
DA:99,20450
DA:100,20450
DA:101,30
DA:102,20420
DA:108,120331
DA:109,120331
DA:110,2140
DA:333,18
DA:334,0
DA:350,60707
DA:358,12
DA:359,20622
DA:360,6
DA:519,6
DA:522,6
DA:519,6
DA:522,6
DA:550,6
DA:552,6
DA:554,6
DA:555,6
DA:558,6
DA:550,0
DA:552,0
DA:554,0
DA:555,0
DA:558,0
DA:550,0
DA:552,0
DA:554,0
DA:555,0
DA:558,0
DA:550,20610
DA:552,20610
DA:554,20610
DA:555,20610
DA:558,20610
DA:675,6
DA:677,20406
DA:680,20400
DA:675,12
DA:677,64
DA:680,12
DA:677,114
DA:680,40026
DA:916,41922
DA:954,0
DA:956,0
DA:957,0
DA:958,0
DA:959,0
DA:960,0
DA:997,0
DA:1043,138924
DA:1061,118824
DA:1184,20400
DA:1186,20400
DA:1189,20338
DA:1191,20338
DA:1195,62
DA:1196,20400
DA:1184,0
DA:1186,0
DA:1189,0
DA:1191,0
DA:1195,0
DA:1196,0
DA:1184,4448
DA:1186,4448
DA:1189,4294
DA:1191,4294
DA:1195,154
DA:1196,4448
DA:1184,0
DA:1186,0
DA:1189,0
DA:1191,0
DA:1195,0
DA:1196,0
DA:1201,20452
DA:1496,0
DA:1592,6
DA:1708,0
DA:1753,14
DA:1755,14
DA:1756,0
DA:1758,14
DA:1759,14
DA:1753,0
DA:1755,0
DA:1756,0
DA:1758,0
DA:1759,0
DA:1753,62
DA:1755,62
DA:1756,0
DA:1758,62
DA:1759,62
DA:1753,0
DA:1755,0
DA:1756,0
DA:1758,0
DA:1759,0
DA:1753,0
DA:1755,0
DA:1756,0
DA:1758,0
DA:1759,0
DA:1753,0
DA:1755,0
DA:1756,0
DA:1758,0
DA:1759,0
DA:1766,12
DA:1767,0
DA:1791,0
DA:1795,0
DA:1888,20394
DA:1889,20394
DA:1890,40788
DA:1913,20394
LF:123
LH:66
end_of_record
SF:/qulacs-osaka/include/Eigen/src/Core/Matrix.h
FN:291,_ZN5Eigen6MatrixISt7complexIdELin1ELi1ELi0ELin1ELi1EEC2IyEERKT_
FNDA:0,_ZN5Eigen6MatrixISt7complexIdELin1ELi1ELi0ELin1ELi1EEC2IyEERKT_
FNF:1
FNH:0
DA:178,0
DA:291,0
DA:294,0
DA:295,0
LF:4
LH:0
end_of_record
SF:/qulacs-osaka/include/Eigen/src/Core/IO.h
FN:53,_ZN5Eigen8IOFormatC2EiiRKNSt7__cxx1112basic_stringIcSt11char_traitsIcESaIcEEES8_S8_S8_S8_S8_
FNDA:0,_ZN5Eigen8IOFormatC2EiiRKNSt7__cxx1112basic_stringIcSt11char_traitsIcESaIcEEES8_S8_S8_S8_S8_
FN:129,_ZN5Eigen8internal12print_matrixINS_6MatrixISt7complexIdELin1ELi1ELi0ELin1ELi1EEEEERSoS6_RKT_RKNS_8IOFormatE
FNDA:0,_ZN5Eigen8internal12print_matrixINS_6MatrixISt7complexIdELin1ELi1ELi0ELin1ELi1EEEEERSoS6_RKT_RKNS_8IOFormatE
FN:216,_ZN5EigenlsINS_6MatrixISt7complexIdELin1ELi1ELi0ELin1ELi1EEEEERSoS5_RKNS_9DenseBaseIT_EE
FNDA:0,_ZN5EigenlsINS_6MatrixISt7complexIdELin1ELi1ELi0ELin1ELi1EEEEERSoS5_RKNS_9DenseBaseIT_EE
FNF:3
FNH:0
DA:53,0
DA:57,0
DA:58,0
DA:62,0
DA:64,0
DA:65,0
DA:68,0
DA:129,0
DA:131,0
DA:134,0
DA:140,0
DA:143,0
DA:147,0
DA:160,0
DA:164,0
DA:166,0
DA:167,0
DA:170,0
DA:171,0
DA:173,0
DA:174,0
DA:175,0
DA:176,0
DA:180,0
DA:182,0
DA:185,0
DA:186,0
DA:194,0
DA:198,0
DA:216,0
DA:220,0
LF:31
LH:0
end_of_record
SF:/usr/include/c++/9/bits/exception.h
DA:63,0
LF:1
LH:0
end_of_record
SF:/usr/include/c++/9/bits/stl_algobase.h
FN:123,_ZSt9iter_swapIN9__gnu_cxx17__normal_iteratorIPN14NoiseSimulator15SamplingRequestESt6vectorIS3_SaIS3_EEEES8_EvT_T0_
FNDA:0,_ZSt9iter_swapIN9__gnu_cxx17__normal_iteratorIPN14NoiseSimulator15SamplingRequestESt6vectorIS3_SaIS3_EEEES8_EvT_T0_
FN:562,_ZNSt20__copy_move_backwardILb1ELb0ESt26random_access_iterator_tagE13__copy_move_bIPN14NoiseSimulator15SamplingRequestES5_EET0_T_S7_S6_
FNDA:0,_ZNSt20__copy_move_backwardILb1ELb0ESt26random_access_iterator_tagE13__copy_move_bIPN14NoiseSimulator15SamplingRequestES5_EET0_T_S7_S6_
FN:562,_ZNSt20__copy_move_backwardILb1ELb0ESt26random_access_iterator_tagE13__copy_move_bIPSt6vectorIjSaIjEES6_EET0_T_S8_S7_
FNDA:0,_ZNSt20__copy_move_backwardILb1ELb0ESt26random_access_iterator_tagE13__copy_move_bIPSt6vectorIjSaIjEES6_EET0_T_S8_S7_
FNF:3
FNH:0
DA:123,0
DA:151,0
DA:153,0
DA:227,76
DA:228,12
DA:384,20610
DA:385,20610
DA:386,20610
DA:387,0
DA:562,0
DA:565,0
DA:566,0
DA:567,0
DA:562,0
DA:565,0
DA:566,0
DA:567,0
DA:565,0
DA:586,0
DA:587,0
DA:588,0
DA:606,0
DA:713,0
DA:714,0
DA:770,388
DA:771,394
DA:772,388
DA:833,20394
DA:834,20394
DA:974,283602
DA:976,223202
DA:979,223202
DA:983,62234
DA:1029,6
LF:34
LH:15
end_of_record
SF:/usr/include/c++/9/bits/stl_construct.h
DA:75,20400
DA:107,20470
LF:2
LH:2
end_of_record
SF:/usr/include/c++/9/bits/predefined_ops.h
DA:43,0
DA:65,223202
DA:90,0
LF:3
LH:1
end_of_record
SF:/usr/include/c++/9/ext/new_allocator.h
DA:128,60682
LF:1
LH:1
end_of_record
SF:/usr/include/c++/9/bits/ios_base.h
DA:707,0
DA:708,0
DA:709,0
DA:731,0
DA:732,0
LF:5
LH:0
end_of_record
SF:/usr/include/c++/9/bits/stl_pair.h
DA:396,0
DA:397,0
DA:456,0
LF:3
LH:0
end_of_record
SF:/qulacs-osaka/include/Eigen/src/Core/PlainObjectBase.h
DA:98,0
DA:151,0
DA:165,0
DA:256,0
DA:319,0
DA:781,0
LF:6
LH:0
end_of_record
SF:/usr/include/c++/9/bits/basic_string.h
DA:159,0
DA:160,0
DA:179,0
DA:183,32
DA:193,0
DA:203,0
DA:211,0
DA:217,32
DA:222,32
DA:231,32
DA:237,0
DA:247,0
DA:348,32
DA:349,0
DA:448,0
DA:451,0
DA:658,0
DA:1070,0
DA:1188,0
DA:2313,0
DA:6177,32
DA:6421,0
LF:22
LH:6
end_of_record
SF:/usr/include/c++/9/bits/locale_facets.h
FN:872,_ZNKSt5ctypeIcE5widenEc
FNDA:0,_ZNKSt5ctypeIcE5widenEc
FN:1084,_ZNKSt5ctypeIcE8do_widenEc
FNDA:0,_ZNKSt5ctypeIcE8do_widenEc
FNF:2
FNH:0
DA:872,0
DA:874,0
DA:875,0
DA:876,0
DA:877,0
DA:1084,0
DA:1085,0
LF:7
LH:0
end_of_record
SF:/usr/include/c++/9/bits/random.tcc
FN:396,_ZNSt23mersenne_twister_engineImLm32ELm624ELm397ELm31ELm2567483615ELm11ELm4294967295ELm7ELm2636928640ELm15ELm4022730752ELm18ELm1812433253EE11_M_gen_randEv
FNDA:22,_ZNSt23mersenne_twister_engineImLm32ELm624ELm397ELm31ELm2567483615ELm11ELm4294967295ELm7ELm2636928640ELm15ELm4022730752ELm18ELm1812433253EE11_M_gen_randEv
FN:396,_ZNSt23mersenne_twister_engineImLm64ELm312ELm156ELm31ELm13043109905998158313ELm29ELm6148914691236517205ELm17ELm8202884508482404352ELm37ELm18444473444759240704ELm43ELm6364136223846793005EE11_M_gen_randEv
FNDA:0,_ZNSt23mersenne_twister_engineImLm64ELm312ELm156ELm31ELm13043109905998158313ELm29ELm6148914691236517205ELm17ELm8202884508482404352ELm37ELm18444473444759240704ELm43ELm6364136223846793005EE11_M_gen_randEv
FN:452,_ZNSt23mersenne_twister_engineImLm32ELm624ELm397ELm31ELm2567483615ELm11ELm4294967295ELm7ELm2636928640ELm15ELm4022730752ELm18ELm1812433253EEclEv
FNDA:10234,_ZNSt23mersenne_twister_engineImLm32ELm624ELm397ELm31ELm2567483615ELm11ELm4294967295ELm7ELm2636928640ELm15ELm4022730752ELm18ELm1812433253EEclEv
FN:452,_ZNSt23mersenne_twister_engineImLm64ELm312ELm156ELm31ELm13043109905998158313ELm29ELm6148914691236517205ELm17ELm8202884508482404352ELm37ELm18444473444759240704ELm43ELm6364136223846793005EEclEv
FNDA:20406,_ZNSt23mersenne_twister_engineImLm64ELm312ELm156ELm31ELm13043109905998158313ELm29ELm6148914691236517205ELm17ELm8202884508482404352ELm37ELm18444473444759240704ELm43ELm6364136223846793005EEclEv
FN:3316,_ZSt18generate_canonicalIdLm53ESt23mersenne_twister_engineImLm64ELm312ELm156ELm31ELm13043109905998158313ELm29ELm6148914691236517205ELm17ELm8202884508482404352ELm37ELm18444473444759240704ELm43ELm6364136223846793005EEET_RT1_
FNDA:20400,_ZSt18generate_canonicalIdLm53ESt23mersenne_twister_engineImLm64ELm312ELm156ELm31ELm13043109905998158313ELm29ELm6148914691236517205ELm17ELm8202884508482404352ELm37ELm18444473444759240704ELm43ELm6364136223846793005EEET_RT1_
FNF:5
FNH:4
DA:329,6
DA:332,3744
DA:334,3738
DA:335,3738
DA:336,3738
DA:337,3738
DA:338,3738
DA:341,6
DA:396,22
DA:403,5016
DA:405,4994
DA:406,4994
DA:407,9988
DA:408,7459
DA:411,8734
DA:413,8712
DA:414,8712
DA:415,17424
DA:416,13114
DA:419,22
DA:420,22
DA:421,44
DA:422,22
DA:423,22
DA:424,22
DA:396,0
DA:403,0
DA:405,0
DA:406,0
DA:407,0
DA:408,0
DA:411,0
DA:413,0
DA:414,0
DA:415,0
DA:416,0
DA:419,0
DA:420,0
DA:421,0
DA:422,0
DA:423,0
DA:424,0
DA:452,10234
DA:457,10234
DA:458,22
DA:461,10234
DA:462,10234
DA:463,10234
DA:464,10234
DA:465,10234
DA:467,10234
DA:452,20406
DA:457,20406
DA:458,74
DA:461,20406
DA:462,20406
DA:463,20406
DA:464,20406
DA:465,20406
DA:467,20406
DA:3316,20400
DA:3332,40800
DA:3334,20400
DA:3335,20400
DA:3337,20400
DA:3338,20400
DA:3347,20400
LF:67
LH:50
end_of_record
SF:/usr/include/c++/9/bits/vector.tcc
FN:109,_ZNSt6vectorIN14NoiseSimulator15SamplingRequestESaIS1_EE12emplace_backIJS1_EEEvDpOT_
FNDA:26,_ZNSt6vectorIN14NoiseSimulator15SamplingRequestESaIS1_EE12emplace_backIJS1_EEEvDpOT_
FN:109,_ZNSt6vectorISt4pairIdiESaIS1_EE12emplace_backIJS1_EEEvDpOT_
FNDA:0,_ZNSt6vectorISt4pairIdiESaIS1_EE12emplace_backIJS1_EEEvDpOT_
FN:109,_ZNSt6vectorIySaIyEE12emplace_backIJyEEEvDpOT_
FNDA:20400,_ZNSt6vectorIySaIyEE12emplace_backIJyEEEvDpOT_
FN:109,_ZNSt6vectorIdSaIdEE12emplace_backIJdEEEvDpOT_
FNDA:26,_ZNSt6vectorIdSaIdEE12emplace_backIJdEEEvDpOT_
FN:198,_ZNSt6vectorIP15QuantumGateBaseSaIS1_EEaSERKS3_
FNDA:0,_ZNSt6vectorIP15QuantumGateBaseSaIS1_EEaSERKS3_
FN:198,_ZNSt6vectorIjSaIjEEaSERKS1_
FNDA:0,_ZNSt6vectorIjSaIjEEaSERKS1_
FN:426,_ZNSt6vectorIN14NoiseSimulator15SamplingRequestESaIS1_EE17_M_realloc_insertIJS1_EEEvN9__gnu_cxx17__normal_iteratorIPS1_S3_EEDpOT_
FNDA:14,_ZNSt6vectorIN14NoiseSimulator15SamplingRequestESaIS1_EE17_M_realloc_insertIJS1_EEEvN9__gnu_cxx17__normal_iteratorIPS1_S3_EEDpOT_
FN:426,_ZNSt6vectorISt4pairIdiESaIS1_EE17_M_realloc_insertIJS1_EEEvN9__gnu_cxx17__normal_iteratorIPS1_S3_EEDpOT_
FNDA:0,_ZNSt6vectorISt4pairIdiESaIS1_EE17_M_realloc_insertIJS1_EEEvN9__gnu_cxx17__normal_iteratorIPS1_S3_EEDpOT_
FN:426,_ZNSt6vectorIySaIyEE17_M_realloc_insertIJyEEEvN9__gnu_cxx17__normal_iteratorIPyS1_EEDpOT_
FNDA:0,_ZNSt6vectorIySaIyEE17_M_realloc_insertIJyEEEvN9__gnu_cxx17__normal_iteratorIPyS1_EEDpOT_
FN:426,_ZNSt6vectorIdSaIdEE17_M_realloc_insertIJdEEEvN9__gnu_cxx17__normal_iteratorIPdS1_EEDpOT_
FNDA:0,_ZNSt6vectorIdSaIdEE17_M_realloc_insertIJdEEEvN9__gnu_cxx17__normal_iteratorIPdS1_EEDpOT_
FN:426,_ZNSt6vectorIySaIyEE17_M_realloc_insertIJRKyEEEvN9__gnu_cxx17__normal_iteratorIPyS1_EEDpOT_
FNDA:62,_ZNSt6vectorIySaIyEE17_M_realloc_insertIJRKyEEEvN9__gnu_cxx17__normal_iteratorIPyS1_EEDpOT_
FN:426,_ZNSt6vectorIP15QuantumGateBaseSaIS1_EE17_M_realloc_insertIJRKS1_EEEvN9__gnu_cxx17__normal_iteratorIPS1_S3_EEDpOT_
FNDA:0,_ZNSt6vectorIP15QuantumGateBaseSaIS1_EE17_M_realloc_insertIJRKS1_EEEvN9__gnu_cxx17__normal_iteratorIPS1_S3_EEDpOT_
FN:426,_ZNSt6vectorIdSaIdEE17_M_realloc_insertIJRKdEEEvN9__gnu_cxx17__normal_iteratorIPdS1_EEDpOT_
FNDA:0,_ZNSt6vectorIdSaIdEE17_M_realloc_insertIJRKdEEEvN9__gnu_cxx17__normal_iteratorIPdS1_EEDpOT_
FN:426,_ZNSt6vectorIjSaIjEE17_M_realloc_insertIJRKjEEEvN9__gnu_cxx17__normal_iteratorIPjS1_EEDpOT_
FNDA:0,_ZNSt6vectorIjSaIjEE17_M_realloc_insertIJRKjEEEvN9__gnu_cxx17__normal_iteratorIPjS1_EEDpOT_
FN:509,_ZNSt6vectorIjSaIjEE14_M_fill_insertEN9__gnu_cxx17__normal_iteratorIPjS1_EEmRKj
FNDA:0,_ZNSt6vectorIjSaIjEE14_M_fill_insertEN9__gnu_cxx17__normal_iteratorIPjS1_EEmRKj
FNF:15
FNH:5
DA:109,26
DA:112,26
DA:117,12
DA:121,14
DA:125,26
DA:109,0
DA:112,0
DA:117,0
DA:121,0
DA:125,0
DA:109,20400
DA:112,20400
DA:115,20238
DA:117,20238
DA:121,162
DA:125,20400
DA:109,26
DA:112,26
DA:115,0
DA:117,0
DA:121,26
DA:125,26
DA:198,0
DA:201,0
DA:223,0
DA:224,0
DA:226,0
DA:228,0
DA:233,0
DA:234,0
DA:236,0
DA:243,0
DA:245,0
DA:246,0
DA:250,0
DA:252,0
DA:198,0
DA:201,0
DA:223,0
DA:224,0
DA:226,0
DA:228,0
DA:233,0
DA:234,0
DA:236,0
DA:243,0
DA:245,0
DA:246,0
DA:250,0
DA:252,0
DA:426,14
DA:435,14
DA:437,14
DA:438,14
DA:440,14
DA:449,14
DA:450,14
DA:464,14
DA:502,14
DA:503,14
DA:504,14
DA:505,14
DA:426,0
DA:435,0
DA:437,0
DA:438,0
DA:440,0
DA:449,0
DA:450,0
DA:464,0
DA:502,0
DA:503,0
DA:504,0
DA:505,0
DA:426,0
DA:435,0
DA:437,0
DA:438,0
DA:440,0
DA:449,0
DA:450,0
DA:464,0
DA:502,0
DA:503,0
DA:504,0
DA:505,0
DA:426,0
DA:435,0
DA:437,0
DA:438,0
DA:440,0
DA:449,0
DA:450,0
DA:464,0
DA:502,0
DA:503,0
DA:504,0
DA:505,0
DA:426,62
DA:435,62
DA:437,62
DA:438,62
DA:440,62
DA:449,62
DA:450,62
DA:464,62
DA:502,62
DA:503,62
DA:504,62
DA:505,62
DA:426,0
DA:435,0
DA:437,0
DA:438,0
DA:440,0
DA:449,0
DA:450,0
DA:464,0
DA:502,0
DA:503,0
DA:504,0
DA:505,0
DA:426,0
DA:435,0
DA:437,0
DA:438,0
DA:440,0
DA:449,0
DA:450,0
DA:464,0
DA:502,0
DA:503,0
DA:504,0
DA:505,0
DA:426,0
DA:435,0
DA:437,0
DA:438,0
DA:440,0
DA:449,0
DA:450,0
DA:464,0
DA:502,0
DA:503,0
DA:504,0
DA:505,0
DA:509,0
DA:512,0
DA:514,0
DA:515,0
DA:523,0
DA:525,0
DA:528,0
DA:532,0
DA:536,0
DA:542,0
DA:543,0
DA:551,0
DA:558,0
DA:561,0
DA:566,0
DA:573,0
DA:576,0
DA:580,0
DA:601,0
DA:602,0
DA:603,0
DA:606,0
LF:168
LH:39
end_of_record
SF:/usr/include/c++/9/streambuf
LF:0
LH:0
end_of_record
SF:/usr/include/c++/9/bits/move.h
DA:193,10200
DA:194,10200
DA:195,10200
LF:3
LH:3
end_of_record
SF:/usr/include/x86_64-linux-gnu/bits/string_fortified.h
DA:34,34
LF:1
LH:1
end_of_record
SF:/usr/include/c++/9/bits/stl_algo.h
FN:78,_ZSt22__move_median_to_firstIN9__gnu_cxx17__normal_iteratorIPSt6vectorIjSaIjEES2_IS4_SaIS4_EEEENS0_5__ops15_Iter_less_iterEEvT_SB_SB_SB_T0_
FNDA:2140,_ZSt22__move_median_to_firstIN9__gnu_cxx17__normal_iteratorIPSt6vectorIjSaIjEES2_IS4_SaIS4_EEEENS0_5__ops15_Iter_less_iterEEvT_SB_SB_SB_T0_
FN:78,_ZSt22__move_median_to_firstISt16reverse_iteratorIN9__gnu_cxx17__normal_iteratorIPSt4pairIdiESt6vectorIS4_SaIS4_EEEEENS1_5__ops15_Iter_less_iterEEvT_SD_SD_SD_T0_
FNDA:0,_ZSt22__move_median_to_firstISt16reverse_iteratorIN9__gnu_cxx17__normal_iteratorIPSt4pairIdiESt6vectorIS4_SaIS4_EEEEENS1_5__ops15_Iter_less_iterEEvT_SD_SD_SD_T0_
FN:1667,_ZSt13__heap_selectIN9__gnu_cxx17__normal_iteratorIPSt6vectorIjSaIjEES2_IS4_SaIS4_EEEENS0_5__ops15_Iter_less_iterEEvT_SB_SB_T0_
FNDA:0,_ZSt13__heap_selectIN9__gnu_cxx17__normal_iteratorIPSt6vectorIjSaIjEES2_IS4_SaIS4_EEEENS0_5__ops15_Iter_less_iterEEvT_SB_SB_T0_
FN:1667,_ZSt13__heap_selectISt16reverse_iteratorIN9__gnu_cxx17__normal_iteratorIPSt4pairIdiESt6vectorIS4_SaIS4_EEEEENS1_5__ops15_Iter_less_iterEEvT_SD_SD_T0_
FNDA:0,_ZSt13__heap_selectISt16reverse_iteratorIN9__gnu_cxx17__normal_iteratorIPSt4pairIdiESt6vectorIS4_SaIS4_EEEEENS1_5__ops15_Iter_less_iterEEvT_SD_SD_T0_
FN:1820,_ZSt25__unguarded_linear_insertISt16reverse_iteratorIN9__gnu_cxx17__normal_iteratorIPSt4pairIdiESt6vectorIS4_SaIS4_EEEEENS1_5__ops14_Val_less_iterEEvT_T0_
FNDA:0,_ZSt25__unguarded_linear_insertISt16reverse_iteratorIN9__gnu_cxx17__normal_iteratorIPSt4pairIdiESt6vectorIS4_SaIS4_EEEEENS1_5__ops14_Val_less_iterEEvT_T0_
FN:1820,_ZSt25__unguarded_linear_insertIN9__gnu_cxx17__normal_iteratorIPSt6vectorIjSaIjEES2_IS4_SaIS4_EEEENS0_5__ops14_Val_less_iterEEvT_T0_
FNDA:20394,_ZSt25__unguarded_linear_insertIN9__gnu_cxx17__normal_iteratorIPSt6vectorIjSaIjEES2_IS4_SaIS4_EEEENS0_5__ops14_Val_less_iterEEvT_T0_
FN:1839,_ZSt16__insertion_sortIN9__gnu_cxx17__normal_iteratorIPSt6vectorIjSaIjEES2_IS4_SaIS4_EEEENS0_5__ops15_Iter_less_iterEEvT_SB_T0_
FNDA:6,_ZSt16__insertion_sortIN9__gnu_cxx17__normal_iteratorIPSt6vectorIjSaIjEES2_IS4_SaIS4_EEEENS0_5__ops15_Iter_less_iterEEvT_SB_T0_
FN:1839,_ZSt16__insertion_sortISt16reverse_iteratorIN9__gnu_cxx17__normal_iteratorIPSt4pairIdiESt6vectorIS4_SaIS4_EEEEENS1_5__ops15_Iter_less_iterEEvT_SD_T0_
FNDA:0,_ZSt16__insertion_sortISt16reverse_iteratorIN9__gnu_cxx17__normal_iteratorIPSt4pairIdiESt6vectorIS4_SaIS4_EEEEENS1_5__ops15_Iter_less_iterEEvT_SD_T0_
FN:1879,_ZSt22__final_insertion_sortISt16reverse_iteratorIN9__gnu_cxx17__normal_iteratorIPSt4pairIdiESt6vectorIS4_SaIS4_EEEEENS1_5__ops15_Iter_less_iterEEvT_SD_T0_
FNDA:0,_ZSt22__final_insertion_sortISt16reverse_iteratorIN9__gnu_cxx17__normal_iteratorIPSt4pairIdiESt6vectorIS4_SaIS4_EEEEENS1_5__ops15_Iter_less_iterEEvT_SD_T0_
FN:1879,_ZSt22__final_insertion_sortIN9__gnu_cxx17__normal_iteratorIPSt6vectorIjSaIjEES2_IS4_SaIS4_EEEENS0_5__ops15_Iter_less_iterEEvT_SB_T0_
FNDA:6,_ZSt22__final_insertion_sortIN9__gnu_cxx17__normal_iteratorIPSt6vectorIjSaIjEES2_IS4_SaIS4_EEEENS0_5__ops15_Iter_less_iterEEvT_SB_T0_
FN:1895,_ZSt21__unguarded_partitionIN9__gnu_cxx17__normal_iteratorIPSt6vectorIjSaIjEES2_IS4_SaIS4_EEEENS0_5__ops15_Iter_less_iterEET_SB_SB_SB_T0_
FNDA:2140,_ZSt21__unguarded_partitionIN9__gnu_cxx17__normal_iteratorIPSt6vectorIjSaIjEES2_IS4_SaIS4_EEEENS0_5__ops15_Iter_less_iterEET_SB_SB_SB_T0_
FN:1895,_ZSt21__unguarded_partitionISt16reverse_iteratorIN9__gnu_cxx17__normal_iteratorIPSt4pairIdiESt6vectorIS4_SaIS4_EEEEENS1_5__ops15_Iter_less_iterEET_SD_SD_SD_T0_
FNDA:0,_ZSt21__unguarded_partitionISt16reverse_iteratorIN9__gnu_cxx17__normal_iteratorIPSt4pairIdiESt6vectorIS4_SaIS4_EEEEENS1_5__ops15_Iter_less_iterEET_SD_SD_SD_T0_
FN:1916,_ZSt27__unguarded_partition_pivotIN9__gnu_cxx17__normal_iteratorIPSt6vectorIjSaIjEES2_IS4_SaIS4_EEEENS0_5__ops15_Iter_less_iterEET_SB_SB_T0_
FNDA:2140,_ZSt27__unguarded_partition_pivotIN9__gnu_cxx17__normal_iteratorIPSt6vectorIjSaIjEES2_IS4_SaIS4_EEEENS0_5__ops15_Iter_less_iterEET_SB_SB_T0_
FN:1916,_ZSt27__unguarded_partition_pivotISt16reverse_iteratorIN9__gnu_cxx17__normal_iteratorIPSt4pairIdiESt6vectorIS4_SaIS4_EEEEENS1_5__ops15_Iter_less_iterEET_SD_SD_T0_
FNDA:0,_ZSt27__unguarded_partition_pivotISt16reverse_iteratorIN9__gnu_cxx17__normal_iteratorIPSt4pairIdiESt6vectorIS4_SaIS4_EEEEENS1_5__ops15_Iter_less_iterEET_SD_SD_T0_
FN:1927,_ZSt14__partial_sortIN9__gnu_cxx17__normal_iteratorIPSt6vectorIjSaIjEES2_IS4_SaIS4_EEEENS0_5__ops15_Iter_less_iterEEvT_SB_SB_T0_
FNDA:0,_ZSt14__partial_sortIN9__gnu_cxx17__normal_iteratorIPSt6vectorIjSaIjEES2_IS4_SaIS4_EEEENS0_5__ops15_Iter_less_iterEEvT_SB_SB_T0_
FN:1939,_ZSt16__introsort_loopIN9__gnu_cxx17__normal_iteratorIPN14NoiseSimulator15SamplingRequestESt6vectorIS3_SaIS3_EEEElNS0_5__ops15_Iter_comp_iterIZNS2_16execute_samplingES7_EUlT_T0_E0_EEEvSB_SB_SC_T1_
FNDA:6,_ZSt16__introsort_loopIN9__gnu_cxx17__normal_iteratorIPN14NoiseSimulator15SamplingRequestESt6vectorIS3_SaIS3_EEEElNS0_5__ops15_Iter_comp_iterIZNS2_16execute_samplingES7_EUlT_T0_E0_EEEvSB_SB_SC_T1_
FN:1939,_ZSt16__introsort_loopISt16reverse_iteratorIN9__gnu_cxx17__normal_iteratorIPSt4pairIdiESt6vectorIS4_SaIS4_EEEEElNS1_5__ops15_Iter_less_iterEEvT_SD_T0_T1_
FNDA:0,_ZSt16__introsort_loopISt16reverse_iteratorIN9__gnu_cxx17__normal_iteratorIPSt4pairIdiESt6vectorIS4_SaIS4_EEEEElNS1_5__ops15_Iter_less_iterEEvT_SD_T0_T1_
FN:1962,_ZSt6__sortIN9__gnu_cxx17__normal_iteratorIPN14NoiseSimulator15SamplingRequestESt6vectorIS3_SaIS3_EEEENS0_5__ops15_Iter_comp_iterIZNS2_16execute_samplingES7_EUlT_T0_E0_EEEvSB_SB_SC_
FNDA:6,_ZSt6__sortIN9__gnu_cxx17__normal_iteratorIPN14NoiseSimulator15SamplingRequestESt6vectorIS3_SaIS3_EEEENS0_5__ops15_Iter_comp_iterIZNS2_16execute_samplingES7_EUlT_T0_E0_EEEvSB_SB_SC_
FN:3763,_ZSt22__gen_two_uniform_intsImRSt23mersenne_twister_engineImLm32ELm624ELm397ELm31ELm2567483615ELm11ELm4294967295ELm7ELm2636928640ELm15ELm4022730752ELm18ELm1812433253EEESt4pairIT_S4_ES4_S4_OT0_
FNDA:10194,_ZSt22__gen_two_uniform_intsImRSt23mersenne_twister_engineImLm32ELm624ELm397ELm31ELm2567483615ELm11ELm4294967295ELm7ELm2636928640ELm15ELm4022730752ELm18ELm1812433253EEESt4pairIT_S4_ES4_S4_OT0_
FN:3786,_ZSt7shuffleIN9__gnu_cxx17__normal_iteratorIPySt6vectorIySaIyEEEERSt23mersenne_twister_engineImLm32ELm624ELm397ELm31ELm2567483615ELm11ELm4294967295ELm7ELm2636928640ELm15ELm4022730752ELm18ELm1812433253EEEvT_SA_OT0_
FNDA:6,_ZSt7shuffleIN9__gnu_cxx17__normal_iteratorIPySt6vectorIySaIyEEEERSt23mersenne_twister_engineImLm32ELm624ELm397ELm31ELm2567483615ELm11ELm4294967295ELm7ELm2636928640ELm15ELm4022730752ELm18ELm1812433253EEEvT_SA_OT0_
FNF:20
FNH:10
DA:78,2140
DA:81,2140
DA:83,12
DA:85,9
DA:90,2128
DA:92,2113
DA:96,2140
DA:78,0
DA:96,0
DA:1186,6
DA:1667,0
DA:1671,0
DA:1672,0
DA:1673,0
DA:1674,0
DA:1675,0
DA:1667,0
DA:1671,0
DA:1672,0
DA:1674,0
DA:1675,0
DA:1820,20394
DA:1827,20587
DA:1834,20394
DA:1820,0
DA:1824,0
DA:1830,0
DA:1834,0
DA:1839,6
DA:1842,6
DA:1844,96
DA:1846,90
DA:1854,90
DA:1839,0
DA:1842,0
DA:1844,0
DA:1849,0
DA:1854,0
DA:1865,20310
DA:1866,20304
DA:1879,6
DA:1882,6
DA:1884,6
DA:1889,0
DA:1890,6
DA:1879,0
DA:1882,0
DA:1884,0
DA:1889,0
DA:1890,0
DA:1895,2140
DA:1901,105694
DA:1904,101684
DA:1906,99744
DA:1907,2140
DA:1895,0
DA:1906,0
DA:1907,0
DA:1916,2140
DA:1919,2140
DA:1920,2140
DA:1922,2140
DA:1916,0
DA:1919,0
DA:1920,0
DA:1922,0
DA:1927,0
DA:1932,0
DA:1934,0
DA:1939,6
DA:1943,6
DA:1945,0
DA:1947,0
DA:1948,0
DA:1950,0
DA:1952,0
DA:1953,0
DA:1954,0
DA:1939,0
DA:1943,0
DA:1945,0
DA:1947,0
DA:1948,0
DA:1950,0
DA:1951,0
DA:1953,0
DA:1954,0
DA:1962,6
DA:1965,6
DA:1967,6
DA:1970,6
DA:1972,6
DA:3763,10194
DA:3767,10194
DA:3768,10194
DA:3786,6
DA:3794,6
DA:3795,6
DA:3810,6
DA:3812,6
DA:3821,6
DA:3831,10200
DA:3833,10194
DA:3836,10194
DA:3838,10194
DA:3839,10194
DA:3847,0
DA:3848,0
DA:4867,6
DA:4868,6
DA:4899,6
LF:111
LH:55
end_of_record
SF:/qulacs-osaka/include/Eigen/src/Core/DenseStorage.h
DA:500,0
DA:542,0
LF:2
LH:0
end_of_record
SF:/usr/include/c++/9/bits/char_traits.h
DA:300,0
DA:363,32
DA:365,32
LF:3
LH:2
end_of_record
SF:/usr/include/c++/9/bits/std_function.h
DA:686,0
DA:687,0
DA:688,0
LF:3
LH:0
end_of_record
SF:/usr/include/c++/9/bits/basic_string.tcc
FN:206,_ZNSt7__cxx1112basic_stringIcSt11char_traitsIcESaIcEE12_M_constructIPcEEvT_S7_St20forward_iterator_tag
FNDA:0,_ZNSt7__cxx1112basic_stringIcSt11char_traitsIcESaIcEE12_M_constructIPcEEvT_S7_St20forward_iterator_tag
FN:206,_ZNSt7__cxx1112basic_stringIcSt11char_traitsIcESaIcEE12_M_constructIPKcEEvT_S8_St20forward_iterator_tag
FNDA:32,_ZNSt7__cxx1112basic_stringIcSt11char_traitsIcESaIcEE12_M_constructIPKcEEvT_S8_St20forward_iterator_tag
FNF:2
FNH:1
DA:206,0
DA:211,0
DA:212,0
DA:215,0
DA:217,0
DA:219,0
DA:220,0
DA:225,0
DA:232,0
DA:233,0
DA:206,32
DA:211,32
DA:212,0
DA:215,32
DA:217,32
DA:219,0
DA:220,0
DA:225,32
DA:232,32
DA:233,32
LF:20
LH:7
end_of_record
SF:/usr/include/c++/9/bits/stl_uninitialized.h
FN:76,_ZNSt20__uninitialized_copyILb0EE13__uninit_copyIN9__gnu_cxx17__normal_iteratorIPKN14NoiseSimulator15SamplingRequestESt6vectorIS5_SaIS5_EEEEPS5_EET0_T_SE_SD_
FNDA:6,_ZNSt20__uninitialized_copyILb0EE13__uninit_copyIN9__gnu_cxx17__normal_iteratorIPKN14NoiseSimulator15SamplingRequestESt6vectorIS5_SaIS5_EEEEPS5_EET0_T_SE_SD_
FN:215,_ZNSt22__uninitialized_fill_nILb0EE15__uninit_fill_nIPSt6vectorIjSaIjEEmS4_EET_S6_T0_RKT1_
FNDA:6,_ZNSt22__uninitialized_fill_nILb0EE15__uninit_fill_nIPSt6vectorIjSaIjEEmS4_EET_S6_T0_RKT1_
FNF:2
FNH:2
DA:76,6
DA:82,32
DA:84,6
DA:86,0
DA:89,0
DA:140,6
DA:215,6
DA:221,20406
DA:223,6
DA:225,0
DA:228,0
DA:273,6
DA:307,6
DA:927,62
DA:928,118
DA:929,56
DA:930,62
DA:949,58
LF:18
LH:14
end_of_record
SF:/qulacs-osaka/src/cppsim/noisesimulator.hpp
DA:25,134
DA:39,26
LF:2
LH:2
end_of_record
SF:/usr/include/c++/9/iostream
LF:0
LH:0
end_of_record
SF:/qulacs-osaka/include/Eigen/src/Core/util/Memory.h
FN:67,_ZN5Eigen8internal19throw_std_bad_allocEv
FNDA:0,_ZN5Eigen8internal19throw_std_bad_allocEv
FN:153,_ZN5Eigen8internal14aligned_mallocEm
FNDA:0,_ZN5Eigen8internal14aligned_mallocEm
FN:369,_ZN5Eigen8internal28conditional_aligned_new_autoISt7complexIdELb1EEEPT_m
FNDA:0,_ZN5Eigen8internal28conditional_aligned_new_autoISt7complexIdELb1EEEPT_m
FNF:3
FNH:0
DA:67,0
DA:70,0
DA:88,0
DA:89,0
DA:90,0
DA:91,0
DA:92,0
DA:98,0
DA:153,0
DA:167,0
DA:168,0
DA:170,0
DA:214,0
DA:288,0
DA:289,0
DA:369,0
DA:371,0
DA:374,0
DA:387,0
LF:19
LH:0
end_of_record
SF:/usr/include/c++/9/ostream
DA:113,0
DA:196,0
DA:206,0
DA:570,0
LF:4
LH:0
end_of_record
SF:/qulacs-osaka/src/cppsim/state.hpp
FN:66,_ZNK16QuantumStateBase15is_state_vectorEv
FNDA:0,_ZNK16QuantumStateBase15is_state_vectorEv
FN:253,_ZN16QuantumStateBase19get_classical_valueEj
FNDA:0,_ZN16QuantumStateBase19get_classical_valueEj
FN:267,_ZN16QuantumStateBase19set_classical_valueEjj
FNDA:0,_ZN16QuantumStateBase19set_classical_valueEjj
FN:279,_ZNK16QuantumStateBase22get_classical_registerEv
FNDA:0,_ZNK16QuantumStateBase22get_classical_registerEv
FN:299,_ZNK16QuantumStateBase9to_stringB5cxx11Ev
FNDA:0,_ZNK16QuantumStateBase9to_stringB5cxx11Ev
FN:333,_ZNK16QuantumStateBase15get_cuda_streamEv
FNDA:0,_ZNK16QuantumStateBase15get_cuda_streamEv
FN:347,_ZN15QuantumStateCpuC2Ej
FNDA:0,_ZN15QuantumStateCpuC2Ej
FN:356,_ZN15QuantumStateCpuD2Ev
FNDA:18,_ZN15QuantumStateCpuD2Ev
FN:356,_ZN15QuantumStateCpuD0Ev
FNDA:6,_ZN15QuantumStateCpuD0Ev
FN:360,_ZN15QuantumStateCpu14set_zero_stateEv
FNDA:4,_ZN15QuantumStateCpu14set_zero_stateEv
FN:367,_ZN15QuantumStateCpu19set_zero_norm_stateEv
FNDA:0,_ZN15QuantumStateCpu19set_zero_norm_stateEv
FN:377,_ZN15QuantumStateCpu23set_computational_basisEy
FNDA:0,_ZN15QuantumStateCpu23set_computational_basisEy
FN:392,_ZN15QuantumStateCpu21set_Haar_random_stateEv
FNDA:0,_ZN15QuantumStateCpu21set_Haar_random_stateEv
FN:400,_ZN15QuantumStateCpu21set_Haar_random_stateEj
FNDA:0,_ZN15QuantumStateCpu21set_Haar_random_stateEj
FN:411,_ZNK15QuantumStateCpu20get_zero_probabilityEj
FNDA:0,_ZNK15QuantumStateCpu20get_zero_probabilityEj
FN:427,_ZNK15QuantumStateCpu24get_marginal_probabilityESt6vectorIjSaIjEE
FNDA:0,_ZNK15QuantumStateCpu24get_marginal_probabilityESt6vectorIjSaIjEE
FN:454,_ZNK15QuantumStateCpu11get_entropyEv
FNDA:0,_ZNK15QuantumStateCpu11get_entropyEv
FN:464,_ZNK15QuantumStateCpu16get_squared_normEv
FNDA:0,_ZNK15QuantumStateCpu16get_squared_normEv
FN:474,_ZNK15QuantumStateCpu30get_squared_norm_single_threadEv
FNDA:0,_ZNK15QuantumStateCpu30get_squared_norm_single_threadEv
FN:483,_ZN15QuantumStateCpu9normalizeEd
FNDA:0,_ZN15QuantumStateCpu9normalizeEd
FN:492,_ZN15QuantumStateCpu23normalize_single_threadEd
FNDA:0,_ZN15QuantumStateCpu23normalize_single_threadEd
FN:501,_ZNK15QuantumStateCpu15allocate_bufferEv
FNDA:0,_ZNK15QuantumStateCpu15allocate_bufferEv
FN:510,_ZNK15QuantumStateCpu4copyEv
FNDA:2,_ZNK15QuantumStateCpu4copyEv
FN:521,_ZN15QuantumStateCpu4loadEPK16QuantumStateBase
FNDA:32,_ZN15QuantumStateCpu4loadEPK16QuantumStateBase
FN:541,_ZN15QuantumStateCpu4loadERKSt6vectorISt7complexIdESaIS2_EE
FNDA:0,_ZN15QuantumStateCpu4loadERKSt6vectorISt7complexIdESaIS2_EE
FN:554,_ZN15QuantumStateCpu4loadEPKSt7complexIdE
FNDA:0,_ZN15QuantumStateCpu4loadEPKSt7complexIdE
FN:562,_ZNK15QuantumStateCpu15get_device_nameB5cxx11Ev
FNDA:32,_ZNK15QuantumStateCpu15get_device_nameB5cxx11Ev
FN:567,_ZNK15QuantumStateCpu4dataEv
FNDA:0,_ZNK15QuantumStateCpu4dataEv
FN:576,_ZNK15QuantumStateCpu8data_cppEv
FNDA:92,_ZNK15QuantumStateCpu8data_cppEv
FN:582,_ZNK15QuantumStateCpu6data_cEv
FNDA:4,_ZNK15QuantumStateCpu6data_cEv
FN:586,_ZNK15QuantumStateCpu16duplicate_data_cEv
FNDA:0,_ZNK15QuantumStateCpu16duplicate_data_cEv
FN:592,_ZNK15QuantumStateCpu18duplicate_data_cppEv
FNDA:0,_ZNK15QuantumStateCpu18duplicate_data_cppEv
FN:601,_ZN15QuantumStateCpu9add_stateEPK16QuantumStateBase
FNDA:0,_ZN15QuantumStateCpu9add_stateEPK16QuantumStateBase
FN:612,_ZN15QuantumStateCpu19add_state_with_coefESt7complexIdEPK16QuantumStateBase
FNDA:0,_ZN15QuantumStateCpu19add_state_with_coefESt7complexIdEPK16QuantumStateBase
FN:625,_ZN15QuantumStateCpu33add_state_with_coef_single_threadESt7complexIdEPK16QuantumStateBase
FNDA:0,_ZN15QuantumStateCpu33add_state_with_coef_single_threadESt7complexIdEPK16QuantumStateBase
FN:639,_ZN15QuantumStateCpu13multiply_coefESt7complexIdE
FNDA:0,_ZN15QuantumStateCpu13multiply_coefESt7complexIdE
FN:643,_ZN15QuantumStateCpu29multiply_elementwise_functionERKSt8functionIFSt7complexIdEyEE
FNDA:0,_ZN15QuantumStateCpu29multiply_elementwise_functionERKSt8functionIFSt7complexIdEyEE
FN:657,_ZN15QuantumStateCpu8samplingEj
FNDA:26,_ZN15QuantumStateCpu8samplingEj
FN:677,_ZN15QuantumStateCpu8samplingEjj
FNDA:0,_ZN15QuantumStateCpu8samplingEjj
FNF:39
FNH:9
DA:38,0
DA:39,0
DA:41,0
DA:42,0
DA:43,0
DA:44,0
DA:45,0
DA:61,18
DA:66,0
DA:253,0
DA:254,0
DA:255,0
DA:257,0
DA:267,0
DA:268,0
DA:269,0
DA:271,0
DA:272,0
DA:279,0
DA:280,0
DA:299,0
DA:300,0
DA:301,0
DA:302,0
DA:303,0
DA:305,0
DA:306,0
DA:307,0
DA:308,0
DA:333,0
DA:347,0
DA:348,0
DA:349,0
DA:350,0
DA:351,0
DA:352,0
DA:356,6
DA:356,36
DA:360,4
DA:361,4
DA:362,4
DA:367,0
DA:368,0
DA:369,0
DA:370,0
DA:377,0
DA:378,0
DA:382,0
DA:384,0
DA:385,0
DA:386,0
DA:387,0
DA:392,0
DA:393,0
DA:394,0
DA:395,0
DA:400,0
DA:401,0
DA:402,0
DA:411,0
DA:413,0
DA:416,0
DA:418,0
DA:427,0
DA:429,0
DA:433,0
DA:438,0
DA:439,0
DA:440,0
DA:441,0
DA:442,0
DA:445,0
DA:446,0
DA:454,0
DA:455,0
DA:464,0
DA:465,0
DA:474,0
DA:475,0
DA:483,0
DA:484,0
DA:485,0
DA:492,0
DA:493,0
DA:494,0
DA:501,0
DA:502,0
DA:503,0
DA:510,2
DA:511,2
DA:512,2
DA:513,2
DA:514,2
DA:515,0
DA:516,2
DA:521,32
DA:522,32
DA:525,0
DA:528,32
DA:529,64
DA:530,0
DA:531,0
DA:532,0
DA:534,32
DA:535,32
DA:537,32
DA:541,0
DA:542,0
DA:545,0
DA:548,0
DA:549,0
DA:554,0
DA:555,0
DA:556,0
DA:562,32
DA:567,0
DA:568,0
DA:576,92
DA:582,4
DA:583,18
DA:586,0
DA:587,0
DA:588,0
DA:589,0
DA:592,0
DA:593,0
DA:594,0
DA:595,0
DA:601,0
DA:602,0
DA:604,0
DA:606,0
DA:607,0
DA:612,0
DA:614,0
DA:617,0
DA:619,0
DA:625,0
DA:627,0
DA:630,0
DA:632,0
DA:633,0
DA:639,0
DA:640,0
DA:641,0
DA:643,0
DA:645,0
DA:646,0
DA:647,0
DA:649,0
DA:657,26
DA:660,26
DA:661,26
DA:662,26
DA:663,4474
DA:664,4448
DA:665,4448
DA:668,20426
DA:672,20400
DA:673,20400
DA:675,26
DA:677,0
DA:679,0
DA:680,0
LF:164
LH:34
end_of_record
SF:/qulacs-osaka/src/cppsim/exception.hpp
DA:35,0
DA:49,0
DA:148,0
DA:191,0
DA:205,0
LF:5
LH:0
end_of_record
SF:/qulacs-osaka/src/cppsim/noisesimulator.cpp
FN:18,_ZN14NoiseSimulatorC2EPK14QuantumCircuitPK15QuantumStateCpu
FNDA:6,_ZN14NoiseSimulatorC2EPK14QuantumCircuitPK15QuantumStateCpu
FN:36,_ZN14NoiseSimulatorD0Ev
FNDA:0,_ZN14NoiseSimulatorD0Ev
FN:36,_ZN14NoiseSimulatorD2Ev
FNDA:6,_ZN14NoiseSimulatorD2Ev
FN:41,_ZN14NoiseSimulator7executeEj
FNDA:6,_ZN14NoiseSimulator7executeEj
FN:48,_ZN14NoiseSimulator25generate_sampling_requestEj
FNDA:6,_ZN14NoiseSimulator25generate_sampling_requestEj
FN:83,_ZN14NoiseSimulator16execute_samplingESt6vectorINS_15SamplingRequestESaIS1_EE
FNDA:6,_ZN14NoiseSimulator16execute_samplingESt6vectorINS_15SamplingRequestESaIS1_EE
FN:136,_ZN14NoiseSimulator39randomly_select_which_gate_pos_to_applyEP15QuantumGateBase
FNDA:118000,_ZN14NoiseSimulator39randomly_select_which_gate_pos_to_applyEP15QuantumGateBase
FN:155,_ZN14NoiseSimulator11apply_gatesERKSt6vectorIjSaIjEEP15QuantumStateCpui
FNDA:26,_ZN14NoiseSimulator11apply_gatesERKSt6vectorIjSaIjEEP15QuantumStateCpui
FNF:8
FNH:7
DA:18,6
DA:19,6
DA:20,6
DA:22,4
DA:23,4
DA:26,2
DA:28,6
DA:29,394
DA:30,388
DA:31,388
DA:32,4
DA:34,6
DA:36,0
DA:39,0
DA:36,12
DA:37,6
DA:38,6
DA:39,6
DA:41,6
DA:43,6
DA:44,6
DA:48,6
DA:50,12
DA:52,6
DA:53,20406
DA:54,138400
DA:55,118000
DA:56,118000
DA:60,6
DA:61,6
DA:67,20406
DA:68,20400
DA:69,20400
DA:70,20394
DA:75,78
DA:80,6
DA:83,6
DA:85,6
DA:90,6
DA:95,6
DA:96,12
DA:98,6
DA:102,32
DA:106,26
DA:107,414
DA:108,408
DA:109,388
DA:110,388
DA:111,384
DA:113,8
DA:114,4
DA:116,388
DA:119,26
DA:120,26
DA:122,26
DA:123,20426
DA:124,20400
DA:131,6
DA:133,6
DA:136,118000
DA:138,118000
DA:141,40000
DA:151,40000
DA:152,40000
DA:155,26
DA:157,26
DA:158,74
DA:159,48
DA:160,48
DA:161,14
DA:163,68
DA:164,34
DA:167,26
LF:73
LH:71
end_of_record
TN:
SF:/qulacs-osaka/include/Eigen/src/Core/AssignEvaluator.h
FN:240,_ZN5Eigen8internal54copy_using_evaluator_LinearTraversal_CompleteUnrollingINS0_31generic_dense_assignment_kernelINS0_9evaluatorINS_8DiagonalINS_6MatrixISt7complexIdELi8ELi8ELi0ELi8ELi8EEELi0EEEEENS3_INS_14CwiseNullaryOpINS0_18scalar_constant_opIS7_EENS5_IS7_Li8ELi1ELi0ELi8ELi1EEEEEEENS0_9assign_opIS7_S7_EELi0EEELi0ELi8EE3runERSJ_
FNDA:0,_ZN5Eigen8internal54copy_using_evaluator_LinearTraversal_CompleteUnrollingINS0_31generic_dense_assignment_kernelINS0_9evaluatorINS_8DiagonalINS_6MatrixISt7complexIdELi8ELi8ELi0ELi8ELi8EEELi0EEEEENS3_INS_14CwiseNullaryOpINS0_18scalar_constant_opIS7_EENS5_IS7_Li8ELi1ELi0ELi8ELi1EEEEEEENS0_9assign_opIS7_S7_EELi0EEELi0ELi8EE3runERSJ_
FN:240,_ZN5Eigen8internal54copy_using_evaluator_LinearTraversal_CompleteUnrollingINS0_31generic_dense_assignment_kernelINS0_9evaluatorINS_8DiagonalINS_6MatrixISt7complexIdELi8ELi8ELi1ELi8ELi8EEELi0EEEEENS3_INS_14CwiseNullaryOpINS0_18scalar_constant_opIS7_EENS5_IS7_Li8ELi1ELi0ELi8ELi1EEEEEEENS0_9assign_opIS7_S7_EELi0EEELi0ELi8EE3runERSJ_
FNDA:0,_ZN5Eigen8internal54copy_using_evaluator_LinearTraversal_CompleteUnrollingINS0_31generic_dense_assignment_kernelINS0_9evaluatorINS_8DiagonalINS_6MatrixISt7complexIdELi8ELi8ELi1ELi8ELi8EEELi0EEEEENS3_INS_14CwiseNullaryOpINS0_18scalar_constant_opIS7_EENS5_IS7_Li8ELi1ELi0ELi8ELi1EEEEEEENS0_9assign_opIS7_S7_EELi0EEELi0ELi8EE3runERSJ_
FN:272,_ZN5Eigen8internal47copy_using_evaluator_innervec_CompleteUnrollingINS0_31generic_dense_assignment_kernelINS0_9evaluatorINS_6MatrixISt7complexIdELi8ELi8ELi0ELi8ELi8EEEEENS3_INS_14CwiseNullaryOpINS0_18scalar_constant_opIS6_EES7_EEEENS0_9assign_opIS6_S6_EELi0EEELi26ELi64EE3runERSG_
FNDA:0,_ZN5Eigen8internal47copy_using_evaluator_innervec_CompleteUnrollingINS0_31generic_dense_assignment_kernelINS0_9evaluatorINS_6MatrixISt7complexIdELi8ELi8ELi0ELi8ELi8EEEEENS3_INS_14CwiseNullaryOpINS0_18scalar_constant_opIS6_EES7_EEEENS0_9assign_opIS6_S6_EELi0EEELi26ELi64EE3runERSG_
FN:272,_ZN5Eigen8internal47copy_using_evaluator_innervec_CompleteUnrollingINS0_31generic_dense_assignment_kernelINS0_9evaluatorINS_6MatrixISt7complexIdELi8ELi8ELi1ELi8ELi8EEEEENS3_INS_14CwiseNullaryOpINS0_18scalar_constant_opIS6_EES7_EEEENS0_9assign_opIS6_S6_EELi0EEELi50ELi64EE3runERSG_
FNDA:0,_ZN5Eigen8internal47copy_using_evaluator_innervec_CompleteUnrollingINS0_31generic_dense_assignment_kernelINS0_9evaluatorINS_6MatrixISt7complexIdELi8ELi8ELi1ELi8ELi8EEEEENS3_INS_14CwiseNullaryOpINS0_18scalar_constant_opIS6_EES7_EEEENS0_9assign_opIS6_S6_EELi0EEELi50ELi64EE3runERSG_
FN:272,_ZN5Eigen8internal47copy_using_evaluator_innervec_CompleteUnrollingINS0_31generic_dense_assignment_kernelINS0_9evaluatorINS_6MatrixISt7complexIdELi8ELi8ELi1ELi8ELi8EEEEENS3_INS_14CwiseNullaryOpINS0_18scalar_constant_opIS6_EES7_EEEENS0_9assign_opIS6_S6_EELi0EEELi14ELi64EE3runERSG_
FNDA:0,_ZN5Eigen8internal47copy_using_evaluator_innervec_CompleteUnrollingINS0_31generic_dense_assignment_kernelINS0_9evaluatorINS_6MatrixISt7complexIdELi8ELi8ELi1ELi8ELi8EEEEENS3_INS_14CwiseNullaryOpINS0_18scalar_constant_opIS6_EES7_EEEENS0_9assign_opIS6_S6_EELi0EEELi14ELi64EE3runERSG_
FN:272,_ZN5Eigen8internal47copy_using_evaluator_innervec_CompleteUnrollingINS0_31generic_dense_assignment_kernelINS0_9evaluatorINS_6MatrixISt7complexIdELi8ELi8ELi0ELi8ELi8EEEEENS3_INS_14CwiseNullaryOpINS0_18scalar_constant_opIS6_EES7_EEEENS0_9assign_opIS6_S6_EELi0EEELi22ELi64EE3runERSG_
FNDA:0,_ZN5Eigen8internal47copy_using_evaluator_innervec_CompleteUnrollingINS0_31generic_dense_assignment_kernelINS0_9evaluatorINS_6MatrixISt7complexIdELi8ELi8ELi0ELi8ELi8EEEEENS3_INS_14CwiseNullaryOpINS0_18scalar_constant_opIS6_EES7_EEEENS0_9assign_opIS6_S6_EELi0EEELi22ELi64EE3runERSG_
FN:272,_ZN5Eigen8internal47copy_using_evaluator_innervec_CompleteUnrollingINS0_31generic_dense_assignment_kernelINS0_9evaluatorINS_6MatrixISt7complexIdELi8ELi8ELi1ELi8ELi8EEEEENS3_INS_14CwiseNullaryOpINS0_18scalar_constant_opIS6_EES7_EEEENS0_9assign_opIS6_S6_EELi0EEELi10ELi64EE3runERSG_
FNDA:0,_ZN5Eigen8internal47copy_using_evaluator_innervec_CompleteUnrollingINS0_31generic_dense_assignment_kernelINS0_9evaluatorINS_6MatrixISt7complexIdELi8ELi8ELi1ELi8ELi8EEEEENS3_INS_14CwiseNullaryOpINS0_18scalar_constant_opIS6_EES7_EEEENS0_9assign_opIS6_S6_EELi0EEELi10ELi64EE3runERSG_
FN:272,_ZN5Eigen8internal47copy_using_evaluator_innervec_CompleteUnrollingINS0_31generic_dense_assignment_kernelINS0_9evaluatorINS_6MatrixISt7complexIdELi8ELi8ELi0ELi8ELi8EEEEENS3_INS_14CwiseNullaryOpINS0_18scalar_constant_opIS6_EES7_EEEENS0_9assign_opIS6_S6_EELi0EEELi18ELi64EE3runERSG_
FNDA:0,_ZN5Eigen8internal47copy_using_evaluator_innervec_CompleteUnrollingINS0_31generic_dense_assignment_kernelINS0_9evaluatorINS_6MatrixISt7complexIdELi8ELi8ELi0ELi8ELi8EEEEENS3_INS_14CwiseNullaryOpINS0_18scalar_constant_opIS6_EES7_EEEENS0_9assign_opIS6_S6_EELi0EEELi18ELi64EE3runERSG_
FN:272,_ZN5Eigen8internal47copy_using_evaluator_innervec_CompleteUnrollingINS0_31generic_dense_assignment_kernelINS0_9evaluatorINS_6MatrixISt7complexIdELi8ELi8ELi1ELi8ELi8EEEEENS3_INS_14CwiseNullaryOpINS0_18scalar_constant_opIS6_EES7_EEEENS0_9assign_opIS6_S6_EELi0EEELi6ELi64EE3runERSG_
FNDA:0,_ZN5Eigen8internal47copy_using_evaluator_innervec_CompleteUnrollingINS0_31generic_dense_assignment_kernelINS0_9evaluatorINS_6MatrixISt7complexIdELi8ELi8ELi1ELi8ELi8EEEEENS3_INS_14CwiseNullaryOpINS0_18scalar_constant_opIS6_EES7_EEEENS0_9assign_opIS6_S6_EELi0EEELi6ELi64EE3runERSG_
FN:272,_ZN5Eigen8internal47copy_using_evaluator_innervec_CompleteUnrollingINS0_31generic_dense_assignment_kernelINS0_9evaluatorINS_6MatrixISt7complexIdELi8ELi8ELi0ELi8ELi8EEEEENS3_INS_14CwiseNullaryOpINS0_18scalar_constant_opIS6_EES7_EEEENS0_9assign_opIS6_S6_EELi0EEELi14ELi64EE3runERSG_
FNDA:0,_ZN5Eigen8internal47copy_using_evaluator_innervec_CompleteUnrollingINS0_31generic_dense_assignment_kernelINS0_9evaluatorINS_6MatrixISt7complexIdELi8ELi8ELi0ELi8ELi8EEEEENS3_INS_14CwiseNullaryOpINS0_18scalar_constant_opIS6_EES7_EEEENS0_9assign_opIS6_S6_EELi0EEELi14ELi64EE3runERSG_
FN:272,_ZN5Eigen8internal47copy_using_evaluator_innervec_CompleteUnrollingINS0_31generic_dense_assignment_kernelINS0_9evaluatorINS_6MatrixISt7complexIdELi8ELi8ELi1ELi8ELi8EEEEENS3_INS_14CwiseNullaryOpINS0_18scalar_constant_opIS6_EES7_EEEENS0_9assign_opIS6_S6_EELi0EEELi2ELi64EE3runERSG_
FNDA:0,_ZN5Eigen8internal47copy_using_evaluator_innervec_CompleteUnrollingINS0_31generic_dense_assignment_kernelINS0_9evaluatorINS_6MatrixISt7complexIdELi8ELi8ELi1ELi8ELi8EEEEENS3_INS_14CwiseNullaryOpINS0_18scalar_constant_opIS6_EES7_EEEENS0_9assign_opIS6_S6_EELi0EEELi2ELi64EE3runERSG_
FN:272,_ZN5Eigen8internal47copy_using_evaluator_innervec_CompleteUnrollingINS0_31generic_dense_assignment_kernelINS0_9evaluatorINS_6MatrixISt7complexIdELi8ELi8ELi0ELi8ELi8EEEEENS3_INS_14CwiseNullaryOpINS0_18scalar_constant_opIS6_EES7_EEEENS0_9assign_opIS6_S6_EELi0EEELi10ELi64EE3runERSG_
FNDA:0,_ZN5Eigen8internal47copy_using_evaluator_innervec_CompleteUnrollingINS0_31generic_dense_assignment_kernelINS0_9evaluatorINS_6MatrixISt7complexIdELi8ELi8ELi0ELi8ELi8EEEEENS3_INS_14CwiseNullaryOpINS0_18scalar_constant_opIS6_EES7_EEEENS0_9assign_opIS6_S6_EELi0EEELi10ELi64EE3runERSG_
FN:272,_ZN5Eigen8internal47copy_using_evaluator_innervec_CompleteUnrollingINS0_31generic_dense_assignment_kernelINS0_9evaluatorINS_6MatrixISt7complexIdELi8ELi8ELi0ELi8ELi8EEEEENS3_INS_14CwiseNullaryOpINS0_18scalar_constant_opIS6_EES7_EEEENS0_9assign_opIS6_S6_EELi0EEELi6ELi64EE3runERSG_
FNDA:0,_ZN5Eigen8internal47copy_using_evaluator_innervec_CompleteUnrollingINS0_31generic_dense_assignment_kernelINS0_9evaluatorINS_6MatrixISt7complexIdELi8ELi8ELi0ELi8ELi8EEEEENS3_INS_14CwiseNullaryOpINS0_18scalar_constant_opIS6_EES7_EEEENS0_9assign_opIS6_S6_EELi0EEELi6ELi64EE3runERSG_
FN:272,_ZN5Eigen8internal47copy_using_evaluator_innervec_CompleteUnrollingINS0_31generic_dense_assignment_kernelINS0_9evaluatorINS_6MatrixISt7complexIdELi4ELi4ELi0ELi4ELi4EEEEENS3_INS_14CwiseNullaryOpINS0_18scalar_constant_opIS6_EES7_EEEENS0_9assign_opIS6_S6_EELi0EEELi6ELi16EE3runERSG_
FNDA:0,_ZN5Eigen8internal47copy_using_evaluator_innervec_CompleteUnrollingINS0_31generic_dense_assignment_kernelINS0_9evaluatorINS_6MatrixISt7complexIdELi4ELi4ELi0ELi4ELi4EEEEENS3_INS_14CwiseNullaryOpINS0_18scalar_constant_opIS6_EES7_EEEENS0_9assign_opIS6_S6_EELi0EEELi6ELi16EE3runERSG_
FN:272,_ZN5Eigen8internal47copy_using_evaluator_innervec_CompleteUnrollingINS0_31generic_dense_assignment_kernelINS0_9evaluatorINS_6MatrixISt7complexIdELi8ELi8ELi1ELi8ELi8EEEEENS3_INS_14CwiseNullaryOpINS0_18scalar_constant_opIS6_EES7_EEEENS0_9assign_opIS6_S6_EELi0EEELi54ELi64EE3runERSG_
FNDA:0,_ZN5Eigen8internal47copy_using_evaluator_innervec_CompleteUnrollingINS0_31generic_dense_assignment_kernelINS0_9evaluatorINS_6MatrixISt7complexIdELi8ELi8ELi1ELi8ELi8EEEEENS3_INS_14CwiseNullaryOpINS0_18scalar_constant_opIS6_EES7_EEEENS0_9assign_opIS6_S6_EELi0EEELi54ELi64EE3runERSG_
FN:272,_ZN5Eigen8internal47copy_using_evaluator_innervec_CompleteUnrollingINS0_31generic_dense_assignment_kernelINS0_9evaluatorINS_6MatrixISt7complexIdELi8ELi8ELi0ELi8ELi8EEEEENS3_INS_14CwiseNullaryOpINS0_18scalar_constant_opIS6_EES7_EEEENS0_9assign_opIS6_S6_EELi0EEELi2ELi64EE3runERSG_
FNDA:0,_ZN5Eigen8internal47copy_using_evaluator_innervec_CompleteUnrollingINS0_31generic_dense_assignment_kernelINS0_9evaluatorINS_6MatrixISt7complexIdELi8ELi8ELi0ELi8ELi8EEEEENS3_INS_14CwiseNullaryOpINS0_18scalar_constant_opIS6_EES7_EEEENS0_9assign_opIS6_S6_EELi0EEELi2ELi64EE3runERSG_
FN:272,_ZN5Eigen8internal47copy_using_evaluator_innervec_CompleteUnrollingINS0_31generic_dense_assignment_kernelINS0_9evaluatorINS_6MatrixISt7complexIdELi4ELi4ELi0ELi4ELi4EEEEENS3_INS_14CwiseNullaryOpINS0_18scalar_constant_opIS6_EES7_EEEENS0_9assign_opIS6_S6_EELi0EEELi2ELi16EE3runERSG_
FNDA:0,_ZN5Eigen8internal47copy_using_evaluator_innervec_CompleteUnrollingINS0_31generic_dense_assignment_kernelINS0_9evaluatorINS_6MatrixISt7complexIdELi4ELi4ELi0ELi4ELi4EEEEENS3_INS_14CwiseNullaryOpINS0_18scalar_constant_opIS6_EES7_EEEENS0_9assign_opIS6_S6_EELi0EEELi2ELi16EE3runERSG_
FN:272,_ZN5Eigen8internal47copy_using_evaluator_innervec_CompleteUnrollingINS0_31generic_dense_assignment_kernelINS0_9evaluatorINS_6MatrixISt7complexIdELi8ELi8ELi0ELi8ELi8EEEEENS3_INS_14CwiseNullaryOpINS0_18scalar_constant_opIS6_EES7_EEEENS0_9assign_opIS6_S6_EELi0EEELi30ELi64EE3runERSG_
FNDA:0,_ZN5Eigen8internal47copy_using_evaluator_innervec_CompleteUnrollingINS0_31generic_dense_assignment_kernelINS0_9evaluatorINS_6MatrixISt7complexIdELi8ELi8ELi0ELi8ELi8EEEEENS3_INS_14CwiseNullaryOpINS0_18scalar_constant_opIS6_EES7_EEEENS0_9assign_opIS6_S6_EELi0EEELi30ELi64EE3runERSG_
FN:272,_ZN5Eigen8internal47copy_using_evaluator_innervec_CompleteUnrollingINS0_31generic_dense_assignment_kernelINS0_9evaluatorINS_6MatrixISt7complexIdELi8ELi8ELi1ELi8ELi8EEEEENS3_INS_14CwiseNullaryOpINS0_18scalar_constant_opIS6_EES7_EEEENS0_9assign_opIS6_S6_EELi0EEELi18ELi64EE3runERSG_
FNDA:0,_ZN5Eigen8internal47copy_using_evaluator_innervec_CompleteUnrollingINS0_31generic_dense_assignment_kernelINS0_9evaluatorINS_6MatrixISt7complexIdELi8ELi8ELi1ELi8ELi8EEEEENS3_INS_14CwiseNullaryOpINS0_18scalar_constant_opIS6_EES7_EEEENS0_9assign_opIS6_S6_EELi0EEELi18ELi64EE3runERSG_
FN:272,_ZN5Eigen8internal47copy_using_evaluator_innervec_CompleteUnrollingINS0_31generic_dense_assignment_kernelINS0_9evaluatorINS_6MatrixISt7complexIdELi8ELi8ELi1ELi8ELi8EEEEENS3_INS_14CwiseNullaryOpINS0_18scalar_constant_opIS6_EES7_EEEENS0_9assign_opIS6_S6_EELi0EEELi46ELi64EE3runERSG_
FNDA:0,_ZN5Eigen8internal47copy_using_evaluator_innervec_CompleteUnrollingINS0_31generic_dense_assignment_kernelINS0_9evaluatorINS_6MatrixISt7complexIdELi8ELi8ELi1ELi8ELi8EEEEENS3_INS_14CwiseNullaryOpINS0_18scalar_constant_opIS6_EES7_EEEENS0_9assign_opIS6_S6_EELi0EEELi46ELi64EE3runERSG_
FN:272,_ZN5Eigen8internal47copy_using_evaluator_innervec_CompleteUnrollingINS0_31generic_dense_assignment_kernelINS0_9evaluatorINS_6MatrixISt7complexIdELi8ELi8ELi0ELi8ELi8EEEEENS3_INS_14CwiseNullaryOpINS0_18scalar_constant_opIS6_EES7_EEEENS0_9assign_opIS6_S6_EELi0EEELi54ELi64EE3runERSG_
FNDA:0,_ZN5Eigen8internal47copy_using_evaluator_innervec_CompleteUnrollingINS0_31generic_dense_assignment_kernelINS0_9evaluatorINS_6MatrixISt7complexIdELi8ELi8ELi0ELi8ELi8EEEEENS3_INS_14CwiseNullaryOpINS0_18scalar_constant_opIS6_EES7_EEEENS0_9assign_opIS6_S6_EELi0EEELi54ELi64EE3runERSG_
FN:272,_ZN5Eigen8internal47copy_using_evaluator_innervec_CompleteUnrollingINS0_31generic_dense_assignment_kernelINS0_9evaluatorINS_6MatrixISt7complexIdELi8ELi8ELi1ELi8ELi8EEEEENS3_INS_14CwiseNullaryOpINS0_18scalar_constant_opIS6_EES7_EEEENS0_9assign_opIS6_S6_EELi0EEELi42ELi64EE3runERSG_
FNDA:0,_ZN5Eigen8internal47copy_using_evaluator_innervec_CompleteUnrollingINS0_31generic_dense_assignment_kernelINS0_9evaluatorINS_6MatrixISt7complexIdELi8ELi8ELi1ELi8ELi8EEEEENS3_INS_14CwiseNullaryOpINS0_18scalar_constant_opIS6_EES7_EEEENS0_9assign_opIS6_S6_EELi0EEELi42ELi64EE3runERSG_
FN:272,_ZN5Eigen8internal47copy_using_evaluator_innervec_CompleteUnrollingINS0_31generic_dense_assignment_kernelINS0_9evaluatorINS_6MatrixISt7complexIdELi8ELi8ELi0ELi8ELi8EEEEENS3_INS_14CwiseNullaryOpINS0_18scalar_constant_opIS6_EES7_EEEENS0_9assign_opIS6_S6_EELi0EEELi50ELi64EE3runERSG_
FNDA:0,_ZN5Eigen8internal47copy_using_evaluator_innervec_CompleteUnrollingINS0_31generic_dense_assignment_kernelINS0_9evaluatorINS_6MatrixISt7complexIdELi8ELi8ELi0ELi8ELi8EEEEENS3_INS_14CwiseNullaryOpINS0_18scalar_constant_opIS6_EES7_EEEENS0_9assign_opIS6_S6_EELi0EEELi50ELi64EE3runERSG_
FN:272,_ZN5Eigen8internal47copy_using_evaluator_innervec_CompleteUnrollingINS0_31generic_dense_assignment_kernelINS0_9evaluatorINS_6MatrixISt7complexIdELi8ELi8ELi1ELi8ELi8EEEEENS3_INS_14CwiseNullaryOpINS0_18scalar_constant_opIS6_EES7_EEEENS0_9assign_opIS6_S6_EELi0EEELi38ELi64EE3runERSG_
FNDA:0,_ZN5Eigen8internal47copy_using_evaluator_innervec_CompleteUnrollingINS0_31generic_dense_assignment_kernelINS0_9evaluatorINS_6MatrixISt7complexIdELi8ELi8ELi1ELi8ELi8EEEEENS3_INS_14CwiseNullaryOpINS0_18scalar_constant_opIS6_EES7_EEEENS0_9assign_opIS6_S6_EELi0EEELi38ELi64EE3runERSG_
FN:272,_ZN5Eigen8internal47copy_using_evaluator_innervec_CompleteUnrollingINS0_31generic_dense_assignment_kernelINS0_9evaluatorINS_6MatrixISt7complexIdELi8ELi8ELi0ELi8ELi8EEEEENS3_INS_14CwiseNullaryOpINS0_18scalar_constant_opIS6_EES7_EEEENS0_9assign_opIS6_S6_EELi0EEELi46ELi64EE3runERSG_
FNDA:0,_ZN5Eigen8internal47copy_using_evaluator_innervec_CompleteUnrollingINS0_31generic_dense_assignment_kernelINS0_9evaluatorINS_6MatrixISt7complexIdELi8ELi8ELi0ELi8ELi8EEEEENS3_INS_14CwiseNullaryOpINS0_18scalar_constant_opIS6_EES7_EEEENS0_9assign_opIS6_S6_EELi0EEELi46ELi64EE3runERSG_
FN:272,_ZN5Eigen8internal47copy_using_evaluator_innervec_CompleteUnrollingINS0_31generic_dense_assignment_kernelINS0_9evaluatorINS_6MatrixISt7complexIdELi8ELi8ELi1ELi8ELi8EEEEENS3_INS_14CwiseNullaryOpINS0_18scalar_constant_opIS6_EES7_EEEENS0_9assign_opIS6_S6_EELi0EEELi34ELi64EE3runERSG_
FNDA:0,_ZN5Eigen8internal47copy_using_evaluator_innervec_CompleteUnrollingINS0_31generic_dense_assignment_kernelINS0_9evaluatorINS_6MatrixISt7complexIdELi8ELi8ELi1ELi8ELi8EEEEENS3_INS_14CwiseNullaryOpINS0_18scalar_constant_opIS6_EES7_EEEENS0_9assign_opIS6_S6_EELi0EEELi34ELi64EE3runERSG_
FN:272,_ZN5Eigen8internal47copy_using_evaluator_innervec_CompleteUnrollingINS0_31generic_dense_assignment_kernelINS0_9evaluatorINS_6MatrixISt7complexIdELi8ELi8ELi0ELi8ELi8EEEEENS3_INS_14CwiseNullaryOpINS0_18scalar_constant_opIS6_EES7_EEEENS0_9assign_opIS6_S6_EELi0EEELi42ELi64EE3runERSG_
FNDA:0,_ZN5Eigen8internal47copy_using_evaluator_innervec_CompleteUnrollingINS0_31generic_dense_assignment_kernelINS0_9evaluatorINS_6MatrixISt7complexIdELi8ELi8ELi0ELi8ELi8EEEEENS3_INS_14CwiseNullaryOpINS0_18scalar_constant_opIS6_EES7_EEEENS0_9assign_opIS6_S6_EELi0EEELi42ELi64EE3runERSG_
FN:272,_ZN5Eigen8internal47copy_using_evaluator_innervec_CompleteUnrollingINS0_31generic_dense_assignment_kernelINS0_9evaluatorINS_6MatrixISt7complexIdELi8ELi8ELi1ELi8ELi8EEEEENS3_INS_14CwiseNullaryOpINS0_18scalar_constant_opIS6_EES7_EEEENS0_9assign_opIS6_S6_EELi0EEELi30ELi64EE3runERSG_
FNDA:0,_ZN5Eigen8internal47copy_using_evaluator_innervec_CompleteUnrollingINS0_31generic_dense_assignment_kernelINS0_9evaluatorINS_6MatrixISt7complexIdELi8ELi8ELi1ELi8ELi8EEEEENS3_INS_14CwiseNullaryOpINS0_18scalar_constant_opIS6_EES7_EEEENS0_9assign_opIS6_S6_EELi0EEELi30ELi64EE3runERSG_
FN:272,_ZN5Eigen8internal47copy_using_evaluator_innervec_CompleteUnrollingINS0_31generic_dense_assignment_kernelINS0_9evaluatorINS_6MatrixISt7complexIdELi8ELi8ELi0ELi8ELi8EEEEENS3_INS_14CwiseNullaryOpINS0_18scalar_constant_opIS6_EES7_EEEENS0_9assign_opIS6_S6_EELi0EEELi38ELi64EE3runERSG_
FNDA:0,_ZN5Eigen8internal47copy_using_evaluator_innervec_CompleteUnrollingINS0_31generic_dense_assignment_kernelINS0_9evaluatorINS_6MatrixISt7complexIdELi8ELi8ELi0ELi8ELi8EEEEENS3_INS_14CwiseNullaryOpINS0_18scalar_constant_opIS6_EES7_EEEENS0_9assign_opIS6_S6_EELi0EEELi38ELi64EE3runERSG_
FN:272,_ZN5Eigen8internal47copy_using_evaluator_innervec_CompleteUnrollingINS0_31generic_dense_assignment_kernelINS0_9evaluatorINS_6MatrixISt7complexIdELi8ELi8ELi1ELi8ELi8EEEEENS3_INS_14CwiseNullaryOpINS0_18scalar_constant_opIS6_EES7_EEEENS0_9assign_opIS6_S6_EELi0EEELi26ELi64EE3runERSG_
FNDA:0,_ZN5Eigen8internal47copy_using_evaluator_innervec_CompleteUnrollingINS0_31generic_dense_assignment_kernelINS0_9evaluatorINS_6MatrixISt7complexIdELi8ELi8ELi1ELi8ELi8EEEEENS3_INS_14CwiseNullaryOpINS0_18scalar_constant_opIS6_EES7_EEEENS0_9assign_opIS6_S6_EELi0EEELi26ELi64EE3runERSG_
FN:272,_ZN5Eigen8internal47copy_using_evaluator_innervec_CompleteUnrollingINS0_31generic_dense_assignment_kernelINS0_9evaluatorINS_6MatrixISt7complexIdELi8ELi8ELi0ELi8ELi8EEEEENS3_INS_14CwiseNullaryOpINS0_18scalar_constant_opIS6_EES7_EEEENS0_9assign_opIS6_S6_EELi0EEELi34ELi64EE3runERSG_
FNDA:0,_ZN5Eigen8internal47copy_using_evaluator_innervec_CompleteUnrollingINS0_31generic_dense_assignment_kernelINS0_9evaluatorINS_6MatrixISt7complexIdELi8ELi8ELi0ELi8ELi8EEEEENS3_INS_14CwiseNullaryOpINS0_18scalar_constant_opIS6_EES7_EEEENS0_9assign_opIS6_S6_EELi0EEELi34ELi64EE3runERSG_
FN:272,_ZN5Eigen8internal47copy_using_evaluator_innervec_CompleteUnrollingINS0_31generic_dense_assignment_kernelINS0_9evaluatorINS_6MatrixISt7complexIdELi8ELi8ELi1ELi8ELi8EEEEENS3_INS_14CwiseNullaryOpINS0_18scalar_constant_opIS6_EES7_EEEENS0_9assign_opIS6_S6_EELi0EEELi22ELi64EE3runERSG_
FNDA:0,_ZN5Eigen8internal47copy_using_evaluator_innervec_CompleteUnrollingINS0_31generic_dense_assignment_kernelINS0_9evaluatorINS_6MatrixISt7complexIdELi8ELi8ELi1ELi8ELi8EEEEENS3_INS_14CwiseNullaryOpINS0_18scalar_constant_opIS6_EES7_EEEENS0_9assign_opIS6_S6_EELi0EEELi22ELi64EE3runERSG_
FN:322,_ZN5Eigen8internal21dense_assignment_loopINS0_31generic_dense_assignment_kernelINS0_9evaluatorINS_5BlockINS_6MatrixISt7complexIdELin1ELin1ELi1ELin1ELin1EEELin1ELin1ELb0EEEEENS3_INS_14CwiseNullaryOpINS0_18scalar_constant_opIS7_EES8_EEEENS0_13mul_assign_opIS7_S7_EELi0EEELi0ELi0EE3runERSI_
FNDA:0,_ZN5Eigen8internal21dense_assignment_loopINS0_31generic_dense_assignment_kernelINS0_9evaluatorINS_5BlockINS_6MatrixISt7complexIdELin1ELin1ELi1ELin1ELin1EEELin1ELin1ELb0EEEEENS3_INS_14CwiseNullaryOpINS0_18scalar_constant_opIS7_EES8_EEEENS0_13mul_assign_opIS7_S7_EELi0EEELi0ELi0EE3runERSI_
FN:322,_ZN5Eigen8internal21dense_assignment_loopINS0_31generic_dense_assignment_kernelINS0_9evaluatorINS_6MatrixISt7complexIdELin1ELin1ELi1ELin1ELin1EEEEENS3_INS_14CwiseNullaryOpINS0_18scalar_identity_opIS6_EES7_EEEENS0_9assign_opIS6_S6_EELi0EEELi0ELi0EE3runERSG_
FNDA:0,_ZN5Eigen8internal21dense_assignment_loopINS0_31generic_dense_assignment_kernelINS0_9evaluatorINS_6MatrixISt7complexIdELin1ELin1ELi1ELin1ELin1EEEEENS3_INS_14CwiseNullaryOpINS0_18scalar_identity_opIS6_EES7_EEEENS0_9assign_opIS6_S6_EELi0EEELi0ELi0EE3runERSG_
FN:322,_ZN5Eigen8internal21dense_assignment_loopINS0_31generic_dense_assignment_kernelINS0_9evaluatorINS_5BlockINS4_INS_6MatrixISt7complexIdELin1ELin1ELi1ELin1ELin1EEELin1ELin1ELb0EEELin1ELin1ELb0EEEEENS3_INS_14CwiseNullaryOpINS0_18scalar_constant_opIS7_EES8_EEEENS0_13mul_assign_opIS7_S7_EELi0EEELi0ELi0EE3runERSJ_
FNDA:0,_ZN5Eigen8internal21dense_assignment_loopINS0_31generic_dense_assignment_kernelINS0_9evaluatorINS_5BlockINS4_INS_6MatrixISt7complexIdELin1ELin1ELi1ELin1ELin1EEELin1ELin1ELb0EEELin1ELin1ELb0EEEEENS3_INS_14CwiseNullaryOpINS0_18scalar_constant_opIS7_EES8_EEEENS0_13mul_assign_opIS7_S7_EELi0EEELi0ELi0EE3runERSJ_
FN:322,_ZN5Eigen8internal21dense_assignment_loopINS0_31generic_dense_assignment_kernelINS0_9evaluatorINS_6MatrixISt7complexIdELin1ELin1ELi1ELin1ELin1EEEEENS3_INS_13CwiseBinaryOpINS0_13scalar_sum_opIS6_S6_EEKNS9_INS0_17scalar_product_opIdS6_EEKNS_14CwiseNullaryOpINS0_18scalar_constant_opIdEEKNS4_IdLin1ELin1ELi1ELin1ELin1EEEEEKNSE_INS0_18scalar_identity_opIS6_EES7_EEEEKNS9_INSC_IS6_S6_EEKNSE_INSF_IS6_EEKS7_EEST_EEEEEENS0_9assign_opIS6_S6_EELi0EEELi0ELi0EE3runERS12_
FNDA:20,_ZN5Eigen8internal21dense_assignment_loopINS0_31generic_dense_assignment_kernelINS0_9evaluatorINS_6MatrixISt7complexIdELin1ELin1ELi1ELin1ELin1EEEEENS3_INS_13CwiseBinaryOpINS0_13scalar_sum_opIS6_S6_EEKNS9_INS0_17scalar_product_opIdS6_EEKNS_14CwiseNullaryOpINS0_18scalar_constant_opIdEEKNS4_IdLin1ELin1ELi1ELin1ELin1EEEEEKNSE_INS0_18scalar_identity_opIS6_EES7_EEEEKNS9_INSC_IS6_S6_EEKNSE_INSF_IS6_EEKS7_EEST_EEEEEENS0_9assign_opIS6_S6_EELi0EEELi0ELi0EE3runERS12_
FN:322,_ZN5Eigen8internal21dense_assignment_loopINS0_31generic_dense_assignment_kernelINS0_9evaluatorINS_6MatrixISt7complexIdELin1ELin1ELi1ELin1ELin1EEEEENS3_INS_14CwiseNullaryOpINS0_18scalar_constant_opIS6_EENS4_IS6_Lin1ELin1ELi0ELin1ELin1EEEEEEENS0_9assign_opIS6_S6_EELi0EEELi0ELi0EE3runERSH_
FNDA:0,_ZN5Eigen8internal21dense_assignment_loopINS0_31generic_dense_assignment_kernelINS0_9evaluatorINS_6MatrixISt7complexIdELin1ELin1ELi1ELin1ELin1EEEEENS3_INS_14CwiseNullaryOpINS0_18scalar_constant_opIS6_EENS4_IS6_Lin1ELin1ELi0ELin1ELin1EEEEEEENS0_9assign_opIS6_S6_EELi0EEELi0ELi0EE3runERSH_
FN:397,_ZN5Eigen8internal21dense_assignment_loopINS0_31generic_dense_assignment_kernelINS0_9evaluatorINS_6MatrixISt7complexIdELin1ELin1ELi1ELin1ELin1EEEEENS3_INS_14CwiseNullaryOpINS0_18scalar_constant_opIS6_EES7_EEEENS0_9assign_opIS6_S6_EELi0EEELi3ELi0EE3runERSG_
FNDA:3690,_ZN5Eigen8internal21dense_assignment_loopINS0_31generic_dense_assignment_kernelINS0_9evaluatorINS_6MatrixISt7complexIdELin1ELin1ELi1ELin1ELin1EEEEENS3_INS_14CwiseNullaryOpINS0_18scalar_constant_opIS6_EES7_EEEENS0_9assign_opIS6_S6_EELi0EEELi3ELi0EE3runERSG_
FN:397,_ZN5Eigen8internal21dense_assignment_loopINS0_31generic_dense_assignment_kernelINS0_9evaluatorINS_3MapINS_6MatrixISt7complexIdELi1ELin1ELi1ELi1ELin1EEELi0ENS_6StrideILi0ELi0EEEEEEENS3_INS_5BlockINSD_INSD_INS5_IS7_Lin1ELin1ELi1ELin1ELin1EEELin1ELin1ELb0EEELin1ELin1ELb0EEELi1ELin1ELb1EEEEENS0_13add_assign_opIS7_S7_EELi0EEELi3ELi0EE3runERSL_
FNDA:6178,_ZN5Eigen8internal21dense_assignment_loopINS0_31generic_dense_assignment_kernelINS0_9evaluatorINS_3MapINS_6MatrixISt7complexIdELi1ELin1ELi1ELi1ELin1EEELi0ENS_6StrideILi0ELi0EEEEEEENS3_INS_5BlockINSD_INSD_INS5_IS7_Lin1ELin1ELi1ELin1ELin1EEELin1ELin1ELb0EEELin1ELin1ELb0EEELi1ELin1ELb1EEEEENS0_13add_assign_opIS7_S7_EELi0EEELi3ELi0EE3runERSL_
FN:397,_ZN5Eigen8internal21dense_assignment_loopINS0_31generic_dense_assignment_kernelINS0_9evaluatorINS_5BlockINS4_INS4_INS_6MatrixISt7complexIdELin1ELin1ELi1ELin1ELin1EEELin1ELin1ELb0EEELin1ELin1ELb0EEELi1ELin1ELb1EEEEENS3_INS_13CwiseBinaryOpINS0_17scalar_product_opIS7_S7_EEKNS_14CwiseNullaryOpINS0_18scalar_constant_opIS7_EEKNS5_IS7_Li1ELin1ELi1ELi1ELin1EEEEEKNS_3MapISJ_Li0ENS_6StrideILi0ELi0EEEEEEEEENS0_13sub_assign_opIS7_S7_EELi0EEELi3ELi0EE3runERSW_
FNDA:6178,_ZN5Eigen8internal21dense_assignment_loopINS0_31generic_dense_assignment_kernelINS0_9evaluatorINS_5BlockINS4_INS4_INS_6MatrixISt7complexIdELin1ELin1ELi1ELin1ELin1EEELin1ELin1ELb0EEELin1ELin1ELb0EEELi1ELin1ELb1EEEEENS3_INS_13CwiseBinaryOpINS0_17scalar_product_opIS7_S7_EEKNS_14CwiseNullaryOpINS0_18scalar_constant_opIS7_EEKNS5_IS7_Li1ELin1ELi1ELi1ELin1EEEEEKNS_3MapISJ_Li0ENS_6StrideILi0ELi0EEEEEEEEENS0_13sub_assign_opIS7_S7_EELi0EEELi3ELi0EE3runERSW_
FN:397,_ZN5Eigen8internal21dense_assignment_loopINS0_31generic_dense_assignment_kernelINS0_9evaluatorINS_6MatrixISt7complexIdELin1ELin1ELi1ELin1ELin1EEEEES8_NS0_9assign_opIS6_S6_EELi0EEELi3ELi0EE3runERSB_
FNDA:6604,_ZN5Eigen8internal21dense_assignment_loopINS0_31generic_dense_assignment_kernelINS0_9evaluatorINS_6MatrixISt7complexIdELin1ELin1ELi1ELin1ELin1EEEEES8_NS0_9assign_opIS6_S6_EELi0EEELi3ELi0EE3runERSB_
FN:397,_ZN5Eigen8internal21dense_assignment_loopINS0_31generic_dense_assignment_kernelINS0_9evaluatorINS_6MatrixISt7complexIdELin1ELin1ELi1ELin1ELin1EEEEENS3_INS_14CwiseNullaryOpINS0_18scalar_constant_opIS6_EES7_EEEENS0_13div_assign_opIS6_S6_EELi0EEELi3ELi0EE3runERSG_
FNDA:486,_ZN5Eigen8internal21dense_assignment_loopINS0_31generic_dense_assignment_kernelINS0_9evaluatorINS_6MatrixISt7complexIdELin1ELin1ELi1ELin1ELin1EEEEENS3_INS_14CwiseNullaryOpINS0_18scalar_constant_opIS6_EES7_EEEENS0_13div_assign_opIS6_S6_EELi0EEELi3ELi0EE3runERSG_
FN:397,_ZN5Eigen8internal21dense_assignment_loopINS0_31generic_dense_assignment_kernelINS0_9evaluatorINS_5BlockINS4_INS_6MatrixISt7complexIdELin1ELin1ELi1ELin1ELin1EEELi1ELin1ELb1EEELi1ELin1ELb0EEEEENS3_INS5_IS7_Li1ELin1ELi1ELi1ELin1EEEEENS0_9assign_opIS7_S7_EELi0EEELi3ELi0EE3runERSG_
FNDA:0,_ZN5Eigen8internal21dense_assignment_loopINS0_31generic_dense_assignment_kernelINS0_9evaluatorINS_5BlockINS4_INS_6MatrixISt7complexIdELin1ELin1ELi1ELin1ELin1EEELi1ELin1ELb1EEELi1ELin1ELb0EEEEENS3_INS5_IS7_Li1ELin1ELi1ELi1ELin1EEEEENS0_9assign_opIS7_S7_EELi0EEELi3ELi0EE3runERSG_
FN:397,_ZN5Eigen8internal21dense_assignment_loopINS0_31generic_dense_assignment_kernelINS0_9evaluatorINS_6MatrixISt7complexIdELin1ELin1ELi0ELin1ELin1EEEEES8_NS0_9assign_opIS6_S6_EELi0EEELi3ELi0EE3runERSB_
FNDA:0,_ZN5Eigen8internal21dense_assignment_loopINS0_31generic_dense_assignment_kernelINS0_9evaluatorINS_6MatrixISt7complexIdELin1ELin1ELi0ELin1ELin1EEEEES8_NS0_9assign_opIS6_S6_EELi0EEELi3ELi0EE3runERSB_
FN:397,_ZN5Eigen8internal21dense_assignment_loopINS0_31generic_dense_assignment_kernelINS0_9evaluatorINS_5BlockINS4_INS4_INS4_INS_6MatrixISt7complexIdELin1ELin1ELi1ELin1ELin1EEELin1ELin1ELb0EEELin1ELin1ELb0EEELin1ELin1ELb0EEELi1ELin1ELb1EEEEENS3_INS_13CwiseBinaryOpINS0_17scalar_product_opIS7_S7_EEKNS_14CwiseNullaryOpINS0_18scalar_constant_opIS7_EEKNS5_IS7_Li1ELin1ELi1ELi1ELin1EEEEEKNS_3MapISK_Li0ENS_6StrideILi0ELi0EEEEEEEEENS0_13sub_assign_opIS7_S7_EELi0EEELi3ELi0EE3runERSX_
FNDA:65182,_ZN5Eigen8internal21dense_assignment_loopINS0_31generic_dense_assignment_kernelINS0_9evaluatorINS_5BlockINS4_INS4_INS4_INS_6MatrixISt7complexIdELin1ELin1ELi1ELin1ELin1EEELin1ELin1ELb0EEELin1ELin1ELb0EEELin1ELin1ELb0EEELi1ELin1ELb1EEEEENS3_INS_13CwiseBinaryOpINS0_17scalar_product_opIS7_S7_EEKNS_14CwiseNullaryOpINS0_18scalar_constant_opIS7_EEKNS5_IS7_Li1ELin1ELi1ELi1ELin1EEEEEKNS_3MapISK_Li0ENS_6StrideILi0ELi0EEEEEEEEENS0_13sub_assign_opIS7_S7_EELi0EEELi3ELi0EE3runERSX_
FN:397,_ZN5Eigen8internal21dense_assignment_loopINS0_31generic_dense_assignment_kernelINS0_9evaluatorINS_3MapINS_6MatrixISt7complexIdELi1ELin1ELi1ELi1ELin1EEELi0ENS_6StrideILi0ELi0EEEEEEENS3_INS_5BlockINSD_INS5_IS7_Lin1ELin1ELi1ELin1ELin1EEELin1ELin1ELb0EEELi1ELin1ELb1EEEEENS0_13add_assign_opIS7_S7_EELi0EEELi3ELi0EE3runERSK_
FNDA:0,_ZN5Eigen8internal21dense_assignment_loopINS0_31generic_dense_assignment_kernelINS0_9evaluatorINS_3MapINS_6MatrixISt7complexIdELi1ELin1ELi1ELi1ELin1EEELi0ENS_6StrideILi0ELi0EEEEEEENS3_INS_5BlockINSD_INS5_IS7_Lin1ELin1ELi1ELin1ELin1EEELin1ELin1ELb0EEELi1ELin1ELb1EEEEENS0_13add_assign_opIS7_S7_EELi0EEELi3ELi0EE3runERSK_
FN:397,_ZN5Eigen8internal21dense_assignment_loopINS0_31generic_dense_assignment_kernelINS0_9evaluatorINS_5BlockINS4_INS_6MatrixISt7complexIdELin1ELin1ELi1ELin1ELin1EEELin1ELin1ELb0EEELi1ELin1ELb1EEEEENS3_INS_13CwiseBinaryOpINS0_17scalar_product_opIS7_S7_EEKNS_14CwiseNullaryOpINS0_18scalar_constant_opIS7_EEKNS5_IS7_Li1ELin1ELi1ELi1ELin1EEEEEKNS_3MapISI_Li0ENS_6StrideILi0ELi0EEEEEEEEENS0_13sub_assign_opIS7_S7_EELi0EEELi3ELi0EE3runERSV_
FNDA:0,_ZN5Eigen8internal21dense_assignment_loopINS0_31generic_dense_assignment_kernelINS0_9evaluatorINS_5BlockINS4_INS_6MatrixISt7complexIdELin1ELin1ELi1ELin1ELin1EEELin1ELin1ELb0EEELi1ELin1ELb1EEEEENS3_INS_13CwiseBinaryOpINS0_17scalar_product_opIS7_S7_EEKNS_14CwiseNullaryOpINS0_18scalar_constant_opIS7_EEKNS5_IS7_Li1ELin1ELi1ELi1ELin1EEEEEKNS_3MapISI_Li0ENS_6StrideILi0ELi0EEEEEEEEENS0_13sub_assign_opIS7_S7_EELi0EEELi3ELi0EE3runERSV_
FN:397,_ZN5Eigen8internal21dense_assignment_loopINS0_31generic_dense_assignment_kernelINS0_9evaluatorINS_3MapINS_6MatrixISt7complexIdELi1ELin1ELi1ELi1ELin1EEELi0ENS_6StrideILi0ELi0EEEEEEENS3_INS_14CwiseNullaryOpINS0_18scalar_constant_opIS7_EES8_EEEENS0_9assign_opIS7_S7_EELi0EEELi3ELi0EE3runERSK_
FNDA:6178,_ZN5Eigen8internal21dense_assignment_loopINS0_31generic_dense_assignment_kernelINS0_9evaluatorINS_3MapINS_6MatrixISt7complexIdELi1ELin1ELi1ELi1ELin1EEELi0ENS_6StrideILi0ELi0EEEEEEENS3_INS_14CwiseNullaryOpINS0_18scalar_constant_opIS7_EES8_EEEENS0_9assign_opIS7_S7_EELi0EEELi3ELi0EE3runERSK_
FN:397,_ZN5Eigen8internal21dense_assignment_loopINS0_31generic_dense_assignment_kernelINS0_9evaluatorINS_5BlockINS4_INS_6MatrixISt7complexIdELin1ELin1ELi1ELin1ELin1EEELi1ELin1ELb1EEELi1ELin1ELb0EEEEENS3_INS_14CwiseNullaryOpINS0_18scalar_constant_opIS7_EENS5_IS7_Li1ELin1ELi1ELi1ELin1EEEEEEENS0_9assign_opIS7_S7_EELi0EEELi3ELi0EE3runERSK_
FNDA:0,_ZN5Eigen8internal21dense_assignment_loopINS0_31generic_dense_assignment_kernelINS0_9evaluatorINS_5BlockINS4_INS_6MatrixISt7complexIdELin1ELin1ELi1ELin1ELin1EEELi1ELin1ELb1EEELi1ELin1ELb0EEEEENS3_INS_14CwiseNullaryOpINS0_18scalar_constant_opIS7_EENS5_IS7_Li1ELin1ELi1ELi1ELin1EEEEEEENS0_9assign_opIS7_S7_EELi0EEELi3ELi0EE3runERSK_
FN:397,_ZN5Eigen8internal21dense_assignment_loopINS0_31generic_dense_assignment_kernelINS0_9evaluatorINS_6MatrixISt7complexIdELin1ELin1ELi0ELin1ELin1EEEEENS3_INS_14CwiseNullaryOpINS0_18scalar_constant_opIS6_EES7_EEEENS0_9assign_opIS6_S6_EELi0EEELi3ELi0EE3runERSG_
FNDA:0,_ZN5Eigen8internal21dense_assignment_loopINS0_31generic_dense_assignment_kernelINS0_9evaluatorINS_6MatrixISt7complexIdELin1ELin1ELi0ELin1ELin1EEEEENS3_INS_14CwiseNullaryOpINS0_18scalar_constant_opIS6_EES7_EEEENS0_9assign_opIS6_S6_EELi0EEELi3ELi0EE3runERSG_
FN:397,_ZN5Eigen8internal21dense_assignment_loopINS0_31generic_dense_assignment_kernelINS0_9evaluatorINS_5BlockINS_3MapINS_6MatrixISt7complexIdELin1ELi1ELi0ELin1ELi1EEELi0ENS_6StrideILi0ELi0EEEEELin1ELi1ELb0EEEEENS3_INS_13CwiseBinaryOpINS0_17scalar_product_opIS8_S8_EEKNS_14CwiseNullaryOpINS0_18scalar_constant_opIS8_EEKS9_EEKNS4_IKNS4_IKNS5_IKNS6_IS8_Lin1ELin1ELi0ELin1ELin1EEELi0ENS_11OuterStrideILin1EEEEELin1ELi1ELb1EEELin1ELi1ELb0EEEEEEENS0_13add_assign_opIS8_S8_EELi0EEELi3ELi0EE3runERS12_
FNDA:0,_ZN5Eigen8internal21dense_assignment_loopINS0_31generic_dense_assignment_kernelINS0_9evaluatorINS_5BlockINS_3MapINS_6MatrixISt7complexIdELin1ELi1ELi0ELin1ELi1EEELi0ENS_6StrideILi0ELi0EEEEELin1ELi1ELb0EEEEENS3_INS_13CwiseBinaryOpINS0_17scalar_product_opIS8_S8_EEKNS_14CwiseNullaryOpINS0_18scalar_constant_opIS8_EEKS9_EEKNS4_IKNS4_IKNS5_IKNS6_IS8_Lin1ELin1ELi0ELin1ELin1EEELi0ENS_11OuterStrideILin1EEEEELin1ELi1ELb1EEELin1ELi1ELb0EEEEEEENS0_13add_assign_opIS8_S8_EELi0EEELi3ELi0EE3runERS12_
FN:397,_ZN5Eigen8internal21dense_assignment_loopINS0_31generic_dense_assignment_kernelINS0_9evaluatorINS_3MapINS_6MatrixISt7complexIdELin1ELi1ELi0ELin1ELi1EEELi0ENS_6StrideILi0ELi0EEEEEEENS3_INS_14CwiseNullaryOpINS0_18scalar_constant_opIS7_EES8_EEEENS0_9assign_opIS7_S7_EELi0EEELi3ELi0EE3runERSK_
FNDA:0,_ZN5Eigen8internal21dense_assignment_loopINS0_31generic_dense_assignment_kernelINS0_9evaluatorINS_3MapINS_6MatrixISt7complexIdELin1ELi1ELi0ELin1ELi1EEELi0ENS_6StrideILi0ELi0EEEEEEENS3_INS_14CwiseNullaryOpINS0_18scalar_constant_opIS7_EES8_EEEENS0_9assign_opIS7_S7_EELi0EEELi3ELi0EE3runERSK_
FN:397,_ZN5Eigen8internal21dense_assignment_loopINS0_31generic_dense_assignment_kernelINS0_9evaluatorINS_6MatrixISt7complexIdELi1ELin1ELi1ELi1ELin1EEEEENS3_INS_14CwiseNullaryOpINS0_18scalar_constant_opIS6_EES7_EEEENS0_9assign_opIS6_S6_EELi0EEELi3ELi0EE3runERSG_
FNDA:0,_ZN5Eigen8internal21dense_assignment_loopINS0_31generic_dense_assignment_kernelINS0_9evaluatorINS_6MatrixISt7complexIdELi1ELin1ELi1ELi1ELin1EEEEENS3_INS_14CwiseNullaryOpINS0_18scalar_constant_opIS6_EES7_EEEENS0_9assign_opIS6_S6_EELi0EEELi3ELi0EE3runERSG_
FN:493,_ZN5Eigen8internal21dense_assignment_loopINS0_31generic_dense_assignment_kernelINS0_9evaluatorINS_8DiagonalINS_6MatrixISt7complexIdELin1ELin1ELi1ELin1ELin1EEELi0EEEEENS3_INS_14CwiseNullaryOpINS0_18scalar_constant_opIS7_EENS5_IS7_Lin1ELi1ELi0ELin1ELi1EEEEEEENS0_9assign_opIS7_S7_EELi0EEELi1ELi0EE3runERSJ_
FNDA:0,_ZN5Eigen8internal21dense_assignment_loopINS0_31generic_dense_assignment_kernelINS0_9evaluatorINS_8DiagonalINS_6MatrixISt7complexIdELin1ELin1ELi1ELin1ELin1EEELi0EEEEENS3_INS_14CwiseNullaryOpINS0_18scalar_constant_opIS7_EENS5_IS7_Lin1ELi1ELi0ELin1ELi1EEEEEEENS0_9assign_opIS7_S7_EELi0EEELi1ELi0EE3runERSJ_
FN:493,_ZN5Eigen8internal21dense_assignment_loopINS0_31generic_dense_assignment_kernelINS0_9evaluatorINS_5BlockINS4_INS_6MatrixISt7complexIdELin1ELin1ELi1ELin1ELin1EEELin1ELin1ELb0EEELin1ELi1ELb0EEEEENS3_INS_13CwiseBinaryOpINS0_17scalar_product_opIS7_S7_EEKNS_14CwiseNullaryOpINS0_18scalar_constant_opIS7_EEKNS5_IS7_Lin1ELi1ELi0ELin1ELi1EEEEEKNS_3MapISI_Li0ENS_6StrideILi0ELi0EEEEEEEEENS0_13sub_assign_opIS7_S7_EELi0EEELi1ELi0EE3runERSV_
FNDA:0,_ZN5Eigen8internal21dense_assignment_loopINS0_31generic_dense_assignment_kernelINS0_9evaluatorINS_5BlockINS4_INS_6MatrixISt7complexIdELin1ELin1ELi1ELin1ELin1EEELin1ELin1ELb0EEELin1ELi1ELb0EEEEENS3_INS_13CwiseBinaryOpINS0_17scalar_product_opIS7_S7_EEKNS_14CwiseNullaryOpINS0_18scalar_constant_opIS7_EEKNS5_IS7_Lin1ELi1ELi0ELin1ELi1EEEEEKNS_3MapISI_Li0ENS_6StrideILi0ELi0EEEEEEEEENS0_13sub_assign_opIS7_S7_EELi0EEELi1ELi0EE3runERSV_
FN:493,_ZN5Eigen8internal21dense_assignment_loopINS0_31generic_dense_assignment_kernelINS0_9evaluatorINS_3MapINS_6MatrixISt7complexIdELin1ELi1ELi0ELin1ELi1EEELi0ENS_6StrideILi0ELi0EEEEEEENS3_INS_5BlockINSD_INS5_IS7_Lin1ELin1ELi1ELin1ELin1EEELin1ELin1ELb0EEELin1ELi1ELb0EEEEENS0_13add_assign_opIS7_S7_EELi0EEELi1ELi0EE3runERSK_
FNDA:0,_ZN5Eigen8internal21dense_assignment_loopINS0_31generic_dense_assignment_kernelINS0_9evaluatorINS_3MapINS_6MatrixISt7complexIdELin1ELi1ELi0ELin1ELi1EEELi0ENS_6StrideILi0ELi0EEEEEEENS3_INS_5BlockINSD_INS5_IS7_Lin1ELin1ELi1ELin1ELin1EEELin1ELin1ELb0EEELin1ELi1ELb0EEEEENS0_13add_assign_opIS7_S7_EELi0EEELi1ELi0EE3runERSK_
FN:493,_ZN5Eigen8internal21dense_assignment_loopINS0_31generic_dense_assignment_kernelINS0_9evaluatorINS_5BlockINS4_INS4_INS_6MatrixISt7complexIdELin1ELin1ELi1ELin1ELin1EEELin1ELin1ELb0EEELin1ELin1ELb0EEELi1ELin1ELb1EEEEENS3_INS_13CwiseBinaryOpINS0_17scalar_product_opIS7_S7_EEKNS_14CwiseNullaryOpINS0_18scalar_constant_opIS7_EEKNS5_IS7_Li1ELin1ELi1ELi1ELin1EEEEEKNS_9TransposeIKNS4_IKS8_Lin1ELi1ELb0EEEEEEEEENS0_13sub_assign_opIS7_S7_EELi0EEELi1ELi0EE3runERSX_
FNDA:0,_ZN5Eigen8internal21dense_assignment_loopINS0_31generic_dense_assignment_kernelINS0_9evaluatorINS_5BlockINS4_INS4_INS_6MatrixISt7complexIdELin1ELin1ELi1ELin1ELin1EEELin1ELin1ELb0EEELin1ELin1ELb0EEELi1ELin1ELb1EEEEENS3_INS_13CwiseBinaryOpINS0_17scalar_product_opIS7_S7_EEKNS_14CwiseNullaryOpINS0_18scalar_constant_opIS7_EEKNS5_IS7_Li1ELin1ELi1ELi1ELin1EEEEEKNS_9TransposeIKNS4_IKS8_Lin1ELi1ELb0EEEEEEEEENS0_13sub_assign_opIS7_S7_EELi0EEELi1ELi0EE3runERSX_
FN:493,_ZN5Eigen8internal21dense_assignment_loopINS0_31generic_dense_assignment_kernelINS0_9evaluatorINS_5BlockINS4_INS4_INS4_INS_6MatrixISt7complexIdELin1ELin1ELi1ELin1ELin1EEELin1ELin1ELb0EEELin1ELi1ELb0EEELin1ELi1ELb0EEELin1ELi1ELb0EEEEENS3_INS_13CwiseBinaryOpINS0_18scalar_quotient_opIS7_S7_EEKNS4_IKSB_Lin1ELi1ELb0EEEKNS_14CwiseNullaryOpINS0_18scalar_constant_opIS7_EEKNS5_IS7_Lin1ELi1ELi0ELin1ELi1EEEEEEEEENS0_9assign_opIS7_S7_EELi0EEELi1ELi0EE3runERSV_
FNDA:7068,_ZN5Eigen8internal21dense_assignment_loopINS0_31generic_dense_assignment_kernelINS0_9evaluatorINS_5BlockINS4_INS4_INS4_INS_6MatrixISt7complexIdELin1ELin1ELi1ELin1ELin1EEELin1ELin1ELb0EEELin1ELi1ELb0EEELin1ELi1ELb0EEELin1ELi1ELb0EEEEENS3_INS_13CwiseBinaryOpINS0_18scalar_quotient_opIS7_S7_EEKNS4_IKSB_Lin1ELi1ELb0EEEKNS_14CwiseNullaryOpINS0_18scalar_constant_opIS7_EEKNS5_IS7_Lin1ELi1ELi0ELin1ELi1EEEEEEEEENS0_9assign_opIS7_S7_EELi0EEELi1ELi0EE3runERSV_
FN:518,_ZN5Eigen8internal21dense_assignment_loopINS0_31generic_dense_assignment_kernelINS0_9evaluatorINS_5BlockINS4_INS_6MatrixISt7complexIdELin1ELin1ELi1ELin1ELin1EEELin1ELin1ELb0EEELin1ELin1ELb0EEEEENS3_INS_14CwiseNullaryOpINS0_18scalar_constant_opIS7_EES8_EEEENS0_13mul_assign_opIS7_S7_EELi0EEELi4ELi0EE3runERSJ_
FNDA:890,_ZN5Eigen8internal21dense_assignment_loopINS0_31generic_dense_assignment_kernelINS0_9evaluatorINS_5BlockINS4_INS_6MatrixISt7complexIdELin1ELin1ELi1ELin1ELin1EEELin1ELin1ELb0EEELin1ELin1ELb0EEEEENS3_INS_14CwiseNullaryOpINS0_18scalar_constant_opIS7_EES8_EEEENS0_13mul_assign_opIS7_S7_EELi0EEELi4ELi0EE3runERSJ_
FN:518,_ZN5Eigen8internal21dense_assignment_loopINS0_31generic_dense_assignment_kernelINS0_9evaluatorINS_5BlockINS_6MatrixISt7complexIdELin1ELin1ELi1ELin1ELin1EEELin1ELin1ELb0EEEEENS3_INS_14CwiseNullaryOpINS0_18scalar_constant_opIS7_EES8_EEEENS0_13mul_assign_opIS7_S7_EELi0EEELi4ELi0EE3runERSI_
FNDA:0,_ZN5Eigen8internal21dense_assignment_loopINS0_31generic_dense_assignment_kernelINS0_9evaluatorINS_5BlockINS_6MatrixISt7complexIdELin1ELin1ELi1ELin1ELin1EEELin1ELin1ELb0EEEEENS3_INS_14CwiseNullaryOpINS0_18scalar_constant_opIS7_EES8_EEEENS0_13mul_assign_opIS7_S7_EELi0EEELi4ELi0EE3runERSI_
FN:641,_ZN5Eigen8internal31generic_dense_assignment_kernelINS0_9evaluatorINS_6MatrixISt7complexIdELin1ELin1ELi1ELin1ELin1EEEEENS2_INS_13CwiseBinaryOpINS0_13scalar_sum_opIS5_S5_EEKNS8_INS0_17scalar_product_opIdS5_EEKNS_14CwiseNullaryOpINS0_18scalar_constant_opIdEEKNS3_IdLin1ELin1ELi1ELin1ELin1EEEEEKNSD_INS0_18scalar_identity_opIS5_EES6_EEEEKNS8_INSB_IS5_S5_EEKNSD_INSE_IS5_EEKS6_EESS_EEEEEENS0_9assign_opIS5_S5_EELi0EE23assignCoeffByOuterInnerEll
FNDA:80,_ZN5Eigen8internal31generic_dense_assignment_kernelINS0_9evaluatorINS_6MatrixISt7complexIdELin1ELin1ELi1ELin1ELin1EEEEENS2_INS_13CwiseBinaryOpINS0_13scalar_sum_opIS5_S5_EEKNS8_INS0_17scalar_product_opIdS5_EEKNS_14CwiseNullaryOpINS0_18scalar_constant_opIdEEKNS3_IdLin1ELin1ELi1ELin1ELin1EEEEEKNSD_INS0_18scalar_identity_opIS5_EES6_EEEEKNS8_INSB_IS5_S5_EEKNSD_INSE_IS5_EEKS6_EESS_EEEEEENS0_9assign_opIS5_S5_EELi0EE23assignCoeffByOuterInnerEll
FN:725,_ZN5Eigen8internal26call_dense_assignment_loopINS_6MatrixISt7complexIdELi1ELin1ELi1ELi1ELin1EEENS_14CwiseNullaryOpINS0_18scalar_constant_opIS4_EES5_EENS0_9assign_opIS4_S4_EEEEvRT_RKT0_RKT1_
FNDA:0,_ZN5Eigen8internal26call_dense_assignment_loopINS_6MatrixISt7complexIdELi1ELin1ELi1ELi1ELin1EEENS_14CwiseNullaryOpINS0_18scalar_constant_opIS4_EES5_EENS0_9assign_opIS4_S4_EEEEvRT_RKT0_RKT1_
FN:725,_ZN5Eigen8internal26call_dense_assignment_loopINS_6MatrixISt7complexIdELin1ELin1ELi1ELin1ELin1EEENS_14CwiseNullaryOpINS0_18scalar_identity_opIS4_EES5_EENS0_9assign_opIS4_S4_EEEEvRT_RKT0_RKT1_
FNDA:0,_ZN5Eigen8internal26call_dense_assignment_loopINS_6MatrixISt7complexIdELin1ELin1ELi1ELin1ELin1EEENS_14CwiseNullaryOpINS0_18scalar_identity_opIS4_EES5_EENS0_9assign_opIS4_S4_EEEEvRT_RKT0_RKT1_
FN:725,_ZN5Eigen8internal26call_dense_assignment_loopINS_5BlockINS2_INS2_INS_6MatrixISt7complexIdELin1ELin1ELi1ELin1ELin1EEELin1ELin1ELb0EEELin1ELin1ELb0EEELi1ELin1ELb1EEENS_13CwiseBinaryOpINS0_17scalar_product_opIS5_S5_EEKNS_14CwiseNullaryOpINS0_18scalar_constant_opIS5_EEKNS3_IS5_Li1ELin1ELi1ELi1ELin1EEEEEKNS_3MapISG_Li0ENS_6StrideILi0ELi0EEEEEEENS0_13sub_assign_opIS5_S5_EEEEvRT_RKT0_RKT1_
FNDA:6178,_ZN5Eigen8internal26call_dense_assignment_loopINS_5BlockINS2_INS2_INS_6MatrixISt7complexIdELin1ELin1ELi1ELin1ELin1EEELin1ELin1ELb0EEELin1ELin1ELb0EEELi1ELin1ELb1EEENS_13CwiseBinaryOpINS0_17scalar_product_opIS5_S5_EEKNS_14CwiseNullaryOpINS0_18scalar_constant_opIS5_EEKNS3_IS5_Li1ELin1ELi1ELi1ELin1EEEEEKNS_3MapISG_Li0ENS_6StrideILi0ELi0EEEEEEENS0_13sub_assign_opIS5_S5_EEEEvRT_RKT0_RKT1_
FN:725,_ZN5Eigen8internal26call_dense_assignment_loopINS_3MapINS_6MatrixISt7complexIdELi1ELin1ELi1ELi1ELin1EEELi0ENS_6StrideILi0ELi0EEEEENS_5BlockINSA_INSA_INS3_IS5_Lin1ELin1ELi1ELin1ELin1EEELin1ELin1ELb0EEELin1ELin1ELb0EEELi1ELin1ELb1EEENS0_13add_assign_opIS5_S5_EEEEvRT_RKT0_RKT1_
FNDA:6178,_ZN5Eigen8internal26call_dense_assignment_loopINS_3MapINS_6MatrixISt7complexIdELi1ELin1ELi1ELi1ELin1EEELi0ENS_6StrideILi0ELi0EEEEENS_5BlockINSA_INSA_INS3_IS5_Lin1ELin1ELi1ELin1ELin1EEELin1ELin1ELb0EEELin1ELin1ELb0EEELi1ELin1ELb1EEENS0_13add_assign_opIS5_S5_EEEEvRT_RKT0_RKT1_
FN:725,_ZN5Eigen8internal26call_dense_assignment_loopINS_6MatrixISt7complexIdELi8ELi8ELi0ELi8ELi8EEENS_14CwiseNullaryOpINS0_18scalar_constant_opIS4_EES5_EENS0_9assign_opIS4_S4_EEEEvRT_RKT0_RKT1_
FNDA:0,_ZN5Eigen8internal26call_dense_assignment_loopINS_6MatrixISt7complexIdELi8ELi8ELi0ELi8ELi8EEENS_14CwiseNullaryOpINS0_18scalar_constant_opIS4_EES5_EENS0_9assign_opIS4_S4_EEEEvRT_RKT0_RKT1_
FN:725,_ZN5Eigen8internal26call_dense_assignment_loopINS_6MatrixISt7complexIdELin1ELin1ELi1ELin1ELin1EEENS_13CwiseBinaryOpINS0_13scalar_sum_opIS4_S4_EEKNS6_INS0_17scalar_product_opIdS4_EEKNS_14CwiseNullaryOpINS0_18scalar_constant_opIdEEKNS2_IdLin1ELin1ELi1ELin1ELin1EEEEEKNSB_INS0_18scalar_identity_opIS4_EES5_EEEEKNS6_INS9_IS4_S4_EEKNSB_INSC_IS4_EEKS5_EESQ_EEEENS0_9assign_opIS4_S4_EEEEvRT_RKT0_RKT1_
FNDA:20,_ZN5Eigen8internal26call_dense_assignment_loopINS_6MatrixISt7complexIdELin1ELin1ELi1ELin1ELin1EEENS_13CwiseBinaryOpINS0_13scalar_sum_opIS4_S4_EEKNS6_INS0_17scalar_product_opIdS4_EEKNS_14CwiseNullaryOpINS0_18scalar_constant_opIdEEKNS2_IdLin1ELin1ELi1ELin1ELin1EEEEEKNSB_INS0_18scalar_identity_opIS4_EES5_EEEEKNS6_INS9_IS4_S4_EEKNSB_INSC_IS4_EEKS5_EESQ_EEEENS0_9assign_opIS4_S4_EEEEvRT_RKT0_RKT1_
FN:725,_ZN5Eigen8internal26call_dense_assignment_loopINS_6MatrixISt7complexIdELin1ELin1ELi1ELin1ELin1EEENS_14CwiseNullaryOpINS0_18scalar_constant_opIS4_EES5_EENS0_9assign_opIS4_S4_EEEEvRT_RKT0_RKT1_
FNDA:3690,_ZN5Eigen8internal26call_dense_assignment_loopINS_6MatrixISt7complexIdELin1ELin1ELi1ELin1ELin1EEENS_14CwiseNullaryOpINS0_18scalar_constant_opIS4_EES5_EENS0_9assign_opIS4_S4_EEEEvRT_RKT0_RKT1_
FN:725,_ZN5Eigen8internal26call_dense_assignment_loopINS_6MatrixISt7complexIdELin1ELin1ELi1ELin1ELin1EEES5_NS0_9assign_opIS4_S4_EEEEvRT_RKT0_RKT1_
FNDA:6604,_ZN5Eigen8internal26call_dense_assignment_loopINS_6MatrixISt7complexIdELin1ELin1ELi1ELin1ELin1EEES5_NS0_9assign_opIS4_S4_EEEEvRT_RKT0_RKT1_
FN:725,_ZN5Eigen8internal26call_dense_assignment_loopINS_6MatrixISt7complexIdELin1ELin1ELi1ELin1ELin1EEENS_14CwiseNullaryOpINS0_18scalar_constant_opIS4_EENS2_IS4_Lin1ELin1ELi0ELin1ELin1EEEEENS0_9assign_opIS4_S4_EEEEvRT_RKT0_RKT1_
FNDA:0,_ZN5Eigen8internal26call_dense_assignment_loopINS_6MatrixISt7complexIdELin1ELin1ELi1ELin1ELin1EEENS_14CwiseNullaryOpINS0_18scalar_constant_opIS4_EENS2_IS4_Lin1ELin1ELi0ELin1ELin1EEEEENS0_9assign_opIS4_S4_EEEEvRT_RKT0_RKT1_
FN:725,_ZN5Eigen8internal26call_dense_assignment_loopINS_6MatrixISt7complexIdELi8ELi8ELi1ELi8ELi8EEENS_14CwiseNullaryOpINS0_18scalar_constant_opIS4_EES5_EENS0_9assign_opIS4_S4_EEEEvRT_RKT0_RKT1_
FNDA:0,_ZN5Eigen8internal26call_dense_assignment_loopINS_6MatrixISt7complexIdELi8ELi8ELi1ELi8ELi8EEENS_14CwiseNullaryOpINS0_18scalar_constant_opIS4_EES5_EENS0_9assign_opIS4_S4_EEEEvRT_RKT0_RKT1_
FN:725,_ZN5Eigen8internal26call_dense_assignment_loopINS_5BlockINS2_INS2_INS_6MatrixISt7complexIdELin1ELin1ELi1ELin1ELin1EEELin1ELin1ELb0EEELin1ELin1ELb0EEELi1ELin1ELb1EEENS_13CwiseBinaryOpINS0_17scalar_product_opIS5_S5_EEKNS_14CwiseNullaryOpINS0_18scalar_constant_opIS5_EEKNS3_IS5_Li1ELin1ELi1ELi1ELin1EEEEEKNS_9TransposeIKNS2_IKS6_Lin1ELi1ELb0EEEEEEENS0_13sub_assign_opIS5_S5_EEEEvRT_RKT0_RKT1_
FNDA:0,_ZN5Eigen8internal26call_dense_assignment_loopINS_5BlockINS2_INS2_INS_6MatrixISt7complexIdELin1ELin1ELi1ELin1ELin1EEELin1ELin1ELb0EEELin1ELin1ELb0EEELi1ELin1ELb1EEENS_13CwiseBinaryOpINS0_17scalar_product_opIS5_S5_EEKNS_14CwiseNullaryOpINS0_18scalar_constant_opIS5_EEKNS3_IS5_Li1ELin1ELi1ELi1ELin1EEEEEKNS_9TransposeIKNS2_IKS6_Lin1ELi1ELb0EEEEEEENS0_13sub_assign_opIS5_S5_EEEEvRT_RKT0_RKT1_
FN:725,_ZN5Eigen8internal26call_dense_assignment_loopINS_6MatrixISt7complexIdELin1ELin1ELi0ELin1ELin1EEES5_NS0_9assign_opIS4_S4_EEEEvRT_RKT0_RKT1_
FNDA:0,_ZN5Eigen8internal26call_dense_assignment_loopINS_6MatrixISt7complexIdELin1ELin1ELi0ELin1ELin1EEES5_NS0_9assign_opIS4_S4_EEEEvRT_RKT0_RKT1_
FN:725,_ZN5Eigen8internal26call_dense_assignment_loopINS_5BlockINS2_INS2_INS2_INS_6MatrixISt7complexIdELin1ELin1ELi1ELin1ELin1EEELin1ELin1ELb0EEELin1ELi1ELb0EEELin1ELi1ELb0EEELin1ELi1ELb0EEENS_13CwiseBinaryOpINS0_18scalar_quotient_opIS5_S5_EEKNS2_IKS9_Lin1ELi1ELb0EEEKNS_14CwiseNullaryOpINS0_18scalar_constant_opIS5_EEKNS3_IS5_Lin1ELi1ELi0ELin1ELi1EEEEEEENS0_9assign_opIS5_S5_EEEEvRT_RKT0_RKT1_
FNDA:7068,_ZN5Eigen8internal26call_dense_assignment_loopINS_5BlockINS2_INS2_INS2_INS_6MatrixISt7complexIdELin1ELin1ELi1ELin1ELin1EEELin1ELin1ELb0EEELin1ELi1ELb0EEELin1ELi1ELb0EEELin1ELi1ELb0EEENS_13CwiseBinaryOpINS0_18scalar_quotient_opIS5_S5_EEKNS2_IKS9_Lin1ELi1ELb0EEEKNS_14CwiseNullaryOpINS0_18scalar_constant_opIS5_EEKNS3_IS5_Lin1ELi1ELi0ELin1ELi1EEEEEEENS0_9assign_opIS5_S5_EEEEvRT_RKT0_RKT1_
FN:725,_ZN5Eigen8internal26call_dense_assignment_loopINS_6MatrixISt7complexIdELi4ELi4ELi0ELi4ELi4EEENS_14CwiseNullaryOpINS0_18scalar_constant_opIS4_EES5_EENS0_9assign_opIS4_S4_EEEEvRT_RKT0_RKT1_
FNDA:0,_ZN5Eigen8internal26call_dense_assignment_loopINS_6MatrixISt7complexIdELi4ELi4ELi0ELi4ELi4EEENS_14CwiseNullaryOpINS0_18scalar_constant_opIS4_EES5_EENS0_9assign_opIS4_S4_EEEEvRT_RKT0_RKT1_
FN:725,_ZN5Eigen8internal26call_dense_assignment_loopINS_8DiagonalINS_6MatrixISt7complexIdELin1ELin1ELi1ELin1ELin1EEELi0EEENS_14CwiseNullaryOpINS0_18scalar_constant_opIS5_EENS3_IS5_Lin1ELi1ELi0ELin1ELi1EEEEENS0_9assign_opIS5_S5_EEEEvRT_RKT0_RKT1_
FNDA:0,_ZN5Eigen8internal26call_dense_assignment_loopINS_8DiagonalINS_6MatrixISt7complexIdELin1ELin1ELi1ELin1ELin1EEELi0EEENS_14CwiseNullaryOpINS0_18scalar_constant_opIS5_EENS3_IS5_Lin1ELi1ELi0ELin1ELi1EEEEENS0_9assign_opIS5_S5_EEEEvRT_RKT0_RKT1_
FN:725,_ZN5Eigen8internal26call_dense_assignment_loopINS_5BlockINS2_INS2_INS2_INS_6MatrixISt7complexIdELin1ELin1ELi1ELin1ELin1EEELin1ELin1ELb0EEELin1ELin1ELb0EEELin1ELin1ELb0EEELi1ELin1ELb1EEENS_13CwiseBinaryOpINS0_17scalar_product_opIS5_S5_EEKNS_14CwiseNullaryOpINS0_18scalar_constant_opIS5_EEKNS3_IS5_Li1ELin1ELi1ELi1ELin1EEEEEKNS_3MapISH_Li0ENS_6StrideILi0ELi0EEEEEEENS0_13sub_assign_opIS5_S5_EEEEvRT_RKT0_RKT1_
FNDA:65182,_ZN5Eigen8internal26call_dense_assignment_loopINS_5BlockINS2_INS2_INS2_INS_6MatrixISt7complexIdELin1ELin1ELi1ELin1ELin1EEELin1ELin1ELb0EEELin1ELin1ELb0EEELin1ELin1ELb0EEELi1ELin1ELb1EEENS_13CwiseBinaryOpINS0_17scalar_product_opIS5_S5_EEKNS_14CwiseNullaryOpINS0_18scalar_constant_opIS5_EEKNS3_IS5_Li1ELin1ELi1ELi1ELin1EEEEEKNS_3MapISH_Li0ENS_6StrideILi0ELi0EEEEEEENS0_13sub_assign_opIS5_S5_EEEEvRT_RKT0_RKT1_
FN:725,_ZN5Eigen8internal26call_dense_assignment_loopINS_3MapINS_6MatrixISt7complexIdELin1ELi1ELi0ELin1ELi1EEELi0ENS_6StrideILi0ELi0EEEEENS_5BlockINSA_INS3_IS5_Lin1ELin1ELi1ELin1ELin1EEELin1ELin1ELb0EEELin1ELi1ELb0EEENS0_13add_assign_opIS5_S5_EEEEvRT_RKT0_RKT1_
FNDA:0,_ZN5Eigen8internal26call_dense_assignment_loopINS_3MapINS_6MatrixISt7complexIdELin1ELi1ELi0ELin1ELi1EEELi0ENS_6StrideILi0ELi0EEEEENS_5BlockINSA_INS3_IS5_Lin1ELin1ELi1ELin1ELin1EEELin1ELin1ELb0EEELin1ELi1ELb0EEENS0_13add_assign_opIS5_S5_EEEEvRT_RKT0_RKT1_
FN:725,_ZN5Eigen8internal26call_dense_assignment_loopINS_5BlockINS2_INS_6MatrixISt7complexIdELin1ELin1ELi1ELin1ELin1EEELin1ELin1ELb0EEELin1ELi1ELb0EEENS_13CwiseBinaryOpINS0_17scalar_product_opIS5_S5_EEKNS_14CwiseNullaryOpINS0_18scalar_constant_opIS5_EEKNS3_IS5_Lin1ELi1ELi0ELin1ELi1EEEEEKNS_3MapISF_Li0ENS_6StrideILi0ELi0EEEEEEENS0_13sub_assign_opIS5_S5_EEEEvRT_RKT0_RKT1_
FNDA:0,_ZN5Eigen8internal26call_dense_assignment_loopINS_5BlockINS2_INS_6MatrixISt7complexIdELin1ELin1ELi1ELin1ELin1EEELin1ELin1ELb0EEELin1ELi1ELb0EEENS_13CwiseBinaryOpINS0_17scalar_product_opIS5_S5_EEKNS_14CwiseNullaryOpINS0_18scalar_constant_opIS5_EEKNS3_IS5_Lin1ELi1ELi0ELin1ELi1EEEEEKNS_3MapISF_Li0ENS_6StrideILi0ELi0EEEEEEENS0_13sub_assign_opIS5_S5_EEEEvRT_RKT0_RKT1_
FN:725,_ZN5Eigen8internal26call_dense_assignment_loopINS_3MapINS_6MatrixISt7complexIdELi1ELin1ELi1ELi1ELin1EEELi0ENS_6StrideILi0ELi0EEEEENS_5BlockINSA_INS3_IS5_Lin1ELin1ELi1ELin1ELin1EEELin1ELin1ELb0EEELi1ELin1ELb1EEENS0_13add_assign_opIS5_S5_EEEEvRT_RKT0_RKT1_
FNDA:0,_ZN5Eigen8internal26call_dense_assignment_loopINS_3MapINS_6MatrixISt7complexIdELi1ELin1ELi1ELi1ELin1EEELi0ENS_6StrideILi0ELi0EEEEENS_5BlockINSA_INS3_IS5_Lin1ELin1ELi1ELin1ELin1EEELin1ELin1ELb0EEELi1ELin1ELb1EEENS0_13add_assign_opIS5_S5_EEEEvRT_RKT0_RKT1_
FN:725,_ZN5Eigen8internal26call_dense_assignment_loopINS_5BlockINS2_INS_6MatrixISt7complexIdELin1ELin1ELi1ELin1ELin1EEELin1ELin1ELb0EEELi1ELin1ELb1EEENS_13CwiseBinaryOpINS0_17scalar_product_opIS5_S5_EEKNS_14CwiseNullaryOpINS0_18scalar_constant_opIS5_EEKNS3_IS5_Li1ELin1ELi1ELi1ELin1EEEEEKNS_3MapISF_Li0ENS_6StrideILi0ELi0EEEEEEENS0_13sub_assign_opIS5_S5_EEEEvRT_RKT0_RKT1_
FNDA:0,_ZN5Eigen8internal26call_dense_assignment_loopINS_5BlockINS2_INS_6MatrixISt7complexIdELin1ELin1ELi1ELin1ELin1EEELin1ELin1ELb0EEELi1ELin1ELb1EEENS_13CwiseBinaryOpINS0_17scalar_product_opIS5_S5_EEKNS_14CwiseNullaryOpINS0_18scalar_constant_opIS5_EEKNS3_IS5_Li1ELin1ELi1ELi1ELin1EEEEEKNS_3MapISF_Li0ENS_6StrideILi0ELi0EEEEEEENS0_13sub_assign_opIS5_S5_EEEEvRT_RKT0_RKT1_
FN:725,_ZN5Eigen8internal26call_dense_assignment_loopINS_5BlockINS_3MapINS_6MatrixISt7complexIdELin1ELi1ELi0ELin1ELi1EEELi0ENS_6StrideILi0ELi0EEEEELin1ELi1ELb0EEENS_13CwiseBinaryOpINS0_17scalar_product_opIS6_S6_EEKNS_14CwiseNullaryOpINS0_18scalar_constant_opIS6_EEKS7_EEKNS2_IKNS2_IKNS3_IKNS4_IS6_Lin1ELin1ELi0ELin1ELin1EEELi0ENS_11OuterStrideILin1EEEEELin1ELi1ELb1EEELin1ELi1ELb0EEEEENS0_13add_assign_opIS6_S6_EEEEvRT_RKT0_RKT1_
FNDA:0,_ZN5Eigen8internal26call_dense_assignment_loopINS_5BlockINS_3MapINS_6MatrixISt7complexIdELin1ELi1ELi0ELin1ELi1EEELi0ENS_6StrideILi0ELi0EEEEELin1ELi1ELb0EEENS_13CwiseBinaryOpINS0_17scalar_product_opIS6_S6_EEKNS_14CwiseNullaryOpINS0_18scalar_constant_opIS6_EEKS7_EEKNS2_IKNS2_IKNS3_IKNS4_IS6_Lin1ELin1ELi0ELin1ELin1EEELi0ENS_11OuterStrideILin1EEEEELin1ELi1ELb1EEELin1ELi1ELb0EEEEENS0_13add_assign_opIS6_S6_EEEEvRT_RKT0_RKT1_
FN:725,_ZN5Eigen8internal26call_dense_assignment_loopINS_6MatrixISt7complexIdELin1ELin1ELi0ELin1ELin1EEENS_14CwiseNullaryOpINS0_18scalar_constant_opIS4_EES5_EENS0_9assign_opIS4_S4_EEEEvRT_RKT0_RKT1_
FNDA:0,_ZN5Eigen8internal26call_dense_assignment_loopINS_6MatrixISt7complexIdELin1ELin1ELi0ELin1ELin1EEENS_14CwiseNullaryOpINS0_18scalar_constant_opIS4_EES5_EENS0_9assign_opIS4_S4_EEEEvRT_RKT0_RKT1_
FN:780,_ZN5Eigen8internal15call_assignmentINS_3MapINS_6MatrixISt7complexIdELi1ELin1ELi1ELi1ELin1EEELi0ENS_6StrideILi0ELi0EEEEENS_14CwiseNullaryOpINS0_18scalar_constant_opIS5_EES6_EEEEvRT_RKT0_
FNDA:6178,_ZN5Eigen8internal15call_assignmentINS_3MapINS_6MatrixISt7complexIdELi1ELin1ELi1ELi1ELin1EEELi0ENS_6StrideILi0ELi0EEEEENS_14CwiseNullaryOpINS0_18scalar_constant_opIS5_EES6_EEEEvRT_RKT0_
FN:780,_ZN5Eigen8internal15call_assignmentINS_5BlockINS2_INS_6MatrixISt7complexIdELin1ELin1ELi1ELin1ELin1EEELi1ELin1ELb1EEELi1ELin1ELb0EEENS_14CwiseNullaryOpINS0_18scalar_constant_opIS5_EENS3_IS5_Li1ELin1ELi1ELi1ELin1EEEEEEEvRT_RKT0_
FNDA:0,_ZN5Eigen8internal15call_assignmentINS_5BlockINS2_INS_6MatrixISt7complexIdELin1ELin1ELi1ELin1ELin1EEELi1ELin1ELb1EEELi1ELin1ELb0EEENS_14CwiseNullaryOpINS0_18scalar_constant_opIS5_EENS3_IS5_Li1ELin1ELi1ELi1ELin1EEEEEEEvRT_RKT0_
FN:780,_ZN5Eigen8internal15call_assignmentINS_3MapINS_6MatrixISt7complexIdELin1ELi1ELi0ELin1ELi1EEELi0ENS_6StrideILi0ELi0EEEEENS_14CwiseNullaryOpINS0_18scalar_constant_opIS5_EES6_EEEEvRT_RKT0_
FNDA:0,_ZN5Eigen8internal15call_assignmentINS_3MapINS_6MatrixISt7complexIdELin1ELi1ELi0ELin1ELi1EEELi0ENS_6StrideILi0ELi0EEEEENS_14CwiseNullaryOpINS0_18scalar_constant_opIS5_EES6_EEEEvRT_RKT0_
FNF:86
FNH:19
DA:240,0
DA:242,0
DA:244,0
DA:240,0
DA:242,0
DA:244,0
DA:272,0
DA:276,0
DA:277,0
DA:272,0
DA:276,0
DA:277,0
DA:272,0
DA:276,0
DA:277,0
DA:272,0
DA:277,0
DA:272,0
DA:276,0
DA:277,0
DA:272,0
DA:276,0
DA:277,0
DA:272,0
DA:276,0
DA:277,0
DA:272,0
DA:276,0
DA:277,0
DA:272,0
DA:276,0
DA:277,0
DA:272,0
DA:276,0
DA:277,0
DA:272,0
DA:276,0
DA:277,0
DA:272,0
DA:276,0
DA:277,0
DA:272,0
DA:276,0
DA:277,0
DA:272,0
DA:276,0
DA:277,0
DA:272,0
DA:276,0
DA:277,0
DA:272,0
DA:277,0
DA:272,0
DA:276,0
DA:277,0
DA:272,0
DA:276,0
DA:277,0
DA:272,0
DA:276,0
DA:277,0
DA:272,0
DA:276,0
DA:277,0
DA:272,0
DA:276,0
DA:277,0
DA:272,0
DA:276,0
DA:277,0
DA:272,0
DA:276,0
DA:277,0
DA:272,0
DA:276,0
DA:277,0
DA:272,0
DA:276,0
DA:277,0
DA:272,0
DA:276,0
DA:277,0
DA:272,0
DA:276,0
DA:277,0
DA:272,0
DA:277,0
DA:272,0
DA:276,0
DA:277,0
DA:272,0
DA:276,0
DA:277,0
DA:276,0
DA:322,0
DA:324,0
DA:325,0
DA:329,0
DA:322,0
DA:324,0
DA:325,0
DA:329,0
DA:322,0
DA:324,0
DA:325,0
DA:329,0
DA:322,20
DA:324,60
DA:325,120
DA:326,80
DA:329,20
DA:322,0
DA:324,0
DA:325,0
DA:329,0
DA:389,223172
DA:390,37892
DA:397,0
DA:399,0
DA:411,0
DA:415,0
DA:416,0
DA:419,0
DA:397,0
DA:399,0
DA:411,0
DA:415,0
DA:416,0
DA:419,0
DA:397,0
DA:399,0
DA:411,0
DA:415,0
DA:416,0
DA:419,0
DA:397,0
DA:399,0
DA:411,0
DA:415,0
DA:416,0
DA:419,0
DA:397,0
DA:399,0
DA:411,0
DA:415,0
DA:416,0
DA:419,0
DA:397,6178
DA:399,6178
DA:411,6178
DA:415,37002
DA:416,30824
DA:419,6178
DA:397,0
DA:399,0
DA:411,0
DA:415,0
DA:416,0
DA:419,0
DA:397,0
DA:399,0
DA:411,0
DA:415,0
DA:416,0
DA:419,0
DA:397,65182
DA:399,65182
DA:411,65182
DA:415,682082
DA:416,616900
DA:419,65182
DA:397,0
DA:399,0
DA:411,0
DA:415,0
DA:416,0
DA:419,0
DA:397,0
DA:399,0
DA:411,0
DA:415,0
DA:416,0
DA:419,0
DA:397,6178
DA:399,6178
DA:411,6178
DA:415,37002
DA:416,30824
DA:419,6178
DA:397,6178
DA:399,6178
DA:411,6178
DA:415,37002
DA:416,30824
DA:419,6178
DA:397,3690
DA:399,3690
DA:411,3690
DA:415,11832
DA:416,8142
DA:419,3690
DA:397,6604
DA:399,6604
DA:411,6604
DA:415,22020
DA:416,15416
DA:419,6604
DA:397,486
DA:399,486
DA:411,486
DA:415,1458
DA:416,972
DA:419,486
DA:493,0
DA:495,0
DA:496,0
DA:497,0
DA:498,0
DA:493,0
DA:495,0
DA:496,0
DA:497,0
DA:498,0
DA:493,0
DA:495,0
DA:496,0
DA:497,0
DA:498,0
DA:493,0
DA:495,0
DA:496,0
DA:497,0
DA:498,0
DA:493,7068
DA:495,7068
DA:496,72250
DA:497,65182
DA:498,7068
DA:496,0
DA:507,0
DA:518,0
DA:530,0
DA:531,0
DA:534,0
DA:537,0
DA:542,0
DA:544,0
DA:546,0
DA:550,0
DA:554,0
DA:557,0
DA:518,890
DA:530,890
DA:531,890
DA:534,0
DA:537,890
DA:542,1780
DA:544,890
DA:546,890
DA:550,890
DA:554,890
DA:557,890
DA:610,102474
DA:611,0
DA:622,0
DA:637,44960
DA:641,80
DA:645,80
DA:646,80
DA:652,0
DA:658,733902
DA:666,0
DA:689,84606
DA:719,10294
DA:720,10294
DA:725,0
DA:741,0
DA:742,0
DA:725,0
DA:741,0
DA:742,0
DA:725,6604
DA:741,6604
DA:742,6604
DA:725,3690
DA:741,3690
DA:742,3690
DA:725,20
DA:734,20
DA:741,20
DA:742,20
DA:725,6178
DA:741,6178
DA:742,6178
DA:725,6178
DA:741,6178
DA:742,6178
DA:725,0
DA:741,0
DA:742,0
DA:725,7068
DA:741,7068
DA:742,7068
DA:725,65182
DA:741,65182
DA:742,65182
DA:725,0
DA:741,0
DA:742,0
DA:725,0
DA:742,0
DA:725,0
DA:741,0
DA:742,0
DA:725,0
DA:741,0
DA:742,0
DA:725,0
DA:741,0
DA:742,0
DA:725,0
DA:741,0
DA:742,0
DA:725,0
DA:741,0
DA:742,0
DA:725,0
DA:741,0
DA:742,0
DA:725,0
DA:742,0
DA:725,0
DA:741,0
DA:742,0
DA:725,0
DA:741,0
DA:742,0
DA:725,0
DA:742,0
DA:741,7554
DA:780,0
DA:782,0
DA:783,0
DA:780,0
DA:782,0
DA:783,0
DA:780,6178
DA:782,6178
DA:783,6178
DA:782,10778
DA:836,890
DA:879,88742
LF:352
LH:102
end_of_record
SF:/qulacs-osaka/src/cppsim/pauli_operator.hpp
FN:92,_ZNK13PauliOperator14get_index_listEv
FNDA:1972,_ZNK13PauliOperator14get_index_listEv
FN:110,_ZNK13PauliOperator17get_pauli_id_listEv
FNDA:2072,_ZNK13PauliOperator17get_pauli_id_listEv
FN:219,_ZN13PauliOperatorD0Ev
FNDA:582,_ZN13PauliOperatorD0Ev
FN:219,_ZN13PauliOperatorD2Ev
FNDA:582,_ZN13PauliOperatorD2Ev
FNF:4
FNH:4
DA:92,1972
DA:96,1972
DA:97,1972
DA:110,2072
DA:114,2072
DA:115,2072
DA:219,582
DA:219,582
LF:8
LH:8
end_of_record
SF:/usr/include/c++/9/bits/char_traits.h
DA:300,0
DA:363,18728
DA:365,18728
LF:3
LH:2
end_of_record
SF:/usr/include/c++/9/bits/std_function.h
FN:653,_ZNSt8functionIFyyyEEC2ERKS1_
FNDA:0,_ZNSt8functionIFyyyEEC2ERKS1_
FN:653,_ZNSt8functionIFbRKSt6vectorIjSaIjEEjEEC2ERKS6_
FNDA:0,_ZNSt8functionIFbRKSt6vectorIjSaIjEEjEEC2ERKS6_
FN:653,_ZNSt8functionIFbRKSt6vectorIjSaIjEEEEC2ERKS6_
FNDA:0,_ZNSt8functionIFbRKSt6vectorIjSaIjEEEEC2ERKS6_
FNF:3
FNH:0
DA:255,0
DA:258,0
DA:259,12
DA:260,12
DA:369,0
DA:396,0
DA:565,0
DA:653,0
DA:657,0
DA:659,0
DA:660,0
DA:661,0
DA:663,0
DA:653,0
DA:657,0
DA:659,0
DA:660,0
DA:661,0
DA:663,0
DA:653,0
DA:657,0
DA:659,0
DA:660,0
DA:661,0
DA:663,0
DA:686,8
DA:687,0
DA:688,8
LF:28
LH:4
end_of_record
SF:/usr/include/c++/9/bits/stl_uninitialized.h
DA:82,14917
DA:83,8785
DA:307,0
DA:927,0
DA:928,0
DA:929,0
DA:930,0
DA:949,49585
LF:8
LH:3
end_of_record
SF:/qulacs-osaka/include/Eigen/src/Core/Redux.h
FN:190,_ZN5Eigen8internal10redux_implINS0_13scalar_sum_opIddEENS0_15redux_evaluatorINS_12CwiseUnaryOpINS0_14scalar_abs2_opISt7complexIdEEEKNS_5BlockIKNSA_INSA_INSA_INS_6MatrixIS8_Lin1ELin1ELi1ELin1ELin1EEELin1ELin1ELb0EEELin1ELi1ELb0EEELin1ELi1ELb0EEELin1ELi1ELb0EEEEEEELi0ELi0EE3runERKSK_RKS3_
FNDA:6178,_ZN5Eigen8internal10redux_implINS0_13scalar_sum_opIddEENS0_15redux_evaluatorINS_12CwiseUnaryOpINS0_14scalar_abs2_opISt7complexIdEEEKNS_5BlockIKNSA_INSA_INSA_INS_6MatrixIS8_Lin1ELin1ELi1ELin1ELin1EEELin1ELin1ELb0EEELin1ELi1ELb0EEELin1ELi1ELb0EEELin1ELi1ELb0EEEEEEELi0ELi0EE3runERKSK_RKS3_
FN:449,_ZNK5Eigen9DenseBaseINS_12CwiseUnaryOpINS_8internal14scalar_abs2_opISt7complexIdEEEKNS_5BlockIKNS7_INS7_INS7_INS_6MatrixIS5_Lin1ELin1ELi1ELin1ELin1EEELin1ELin1ELb0EEELin1ELi1ELb0EEELin1ELi1ELb0EEELin1ELi1ELb0EEEEEE3sumEv
FNDA:6178,_ZNK5Eigen9DenseBaseINS_12CwiseUnaryOpINS_8internal14scalar_abs2_opISt7complexIdEEEKNS_5BlockIKNS7_INS7_INS7_INS_6MatrixIS5_Lin1ELin1ELi1ELin1ELin1EEELin1ELin1ELb0EEELin1ELi1ELb0EEELin1ELi1ELb0EEELin1ELi1ELb0EEEEEE3sumEv
FNF:2
FNH:2
DA:190,6178
DA:195,65182
DA:200,6178
DA:338,6178
DA:418,6178
DA:449,6178
DA:451,6178
DA:453,6178
LF:8
LH:8
end_of_record
SF:/qulacs-osaka/include/Eigen/src/Core/GenericPacketMath.h
FN:151,_ZN5Eigen8internal4paddISt7complexIdEEET_RKS4_S6_
FNDA:0,_ZN5Eigen8internal4paddISt7complexIdEEET_RKS4_S6_
FNF:1
FNH:0
DA:151,0
DA:152,0
DA:530,0
LF:3
LH:0
end_of_record
SF:/qulacs-osaka/include/Eigen/src/Core/CwiseBinaryOp.h
DA:77,20
DA:164,71360
DA:177,6178
LF:3
LH:3
end_of_record
SF:/qulacs-osaka/src/cppsim/gate_reversible.hpp
FN:24,_ZN24ClsReversibleBooleanGateC2ESt6vectorIjSaIjEESt8functionIFyyyEE
FNDA:4,_ZN24ClsReversibleBooleanGateC2ESt6vectorIjSaIjEESt8functionIFyyyEE
FN:38,_ZN24ClsReversibleBooleanGate20update_quantum_stateEP16QuantumStateBase
FNDA:8,_ZN24ClsReversibleBooleanGate20update_quantum_stateEP16QuantumStateBase
FN:70,_ZNK24ClsReversibleBooleanGate4copyEv
FNDA:0,_ZNK24ClsReversibleBooleanGate4copyEv
FN:78,_ZNK24ClsReversibleBooleanGate10set_matrixERN5Eigen6MatrixISt7complexIdELin1ELin1ELi1ELin1ELin1EEE
FNDA:2,_ZNK24ClsReversibleBooleanGate10set_matrixERN5Eigen6MatrixISt7complexIdELin1ELin1ELi1ELin1ELin1EEE
FNF:4
FNH:3
DA:24,4
DA:26,4
DA:27,12
DA:28,8
DA:30,4
DA:31,4
DA:38,8
DA:42,8
DA:43,8
DA:56,16
DA:57,8
DA:58,8
DA:61,0
DA:63,8
DA:70,0
DA:71,0
DA:78,2
DA:79,2
DA:80,2
DA:81,10
DA:82,8
DA:83,8
DA:85,2
LF:23
LH:20
end_of_record
SF:/qulacs-osaka/include/Eigen/src/Core/functors/NullaryFunctors.h
DA:19,177118
DA:23,687662
DA:34,80
LF:3
LH:3
end_of_record
SF:/qulacs-osaka/src/cppsim/exception.hpp
DA:21,0
DA:35,0
DA:49,0
DA:63,18
DA:77,4
DA:148,0
DA:191,0
DA:205,0
LF:8
LH:2
end_of_record
SF:/qulacs-osaka/include/Eigen/src/Core/products/TriangularMatrixMatrix.h
FN:105,_ZN5Eigen8internal32product_triangular_matrix_matrixISt7complexIdElLi1ELb1ELi0ELb1ELi0ELb0ELi0ELi0EE3runElllPKS3_lS6_lPS3_lRS5_RNS0_15level3_blockingIS3_S3_EE
FNDA:0,_ZN5Eigen8internal32product_triangular_matrix_matrixISt7complexIdElLi1ELb1ELi0ELb1ELi0ELb0ELi0ELi0EE3runElllPKS3_lS6_lPS3_lRS5_RNS0_15level3_blockingIS3_S3_EE
FN:105,_ZN5Eigen8internal32product_triangular_matrix_matrixISt7complexIdElLi2ELb1ELi1ELb0ELi0ELb0ELi0ELi0EE3runElllPKS3_lS6_lPS3_lRS5_RNS0_15level3_blockingIS3_S3_EE
FNDA:0,_ZN5Eigen8internal32product_triangular_matrix_matrixISt7complexIdElLi2ELb1ELi1ELb0ELi0ELb0ELi0ELi0EE3runElllPKS3_lS6_lPS3_lRS5_RNS0_15level3_blockingIS3_S3_EE
FN:105,_ZN5Eigen8internal32product_triangular_matrix_matrixISt7complexIdElLi6ELb1ELi0ELb1ELi1ELb0ELi0ELi0EE3runElllPKS3_lS6_lPS3_lRS5_RNS0_15level3_blockingIS3_S3_EE
FNDA:0,_ZN5Eigen8internal32product_triangular_matrix_matrixISt7complexIdElLi6ELb1ELi0ELb1ELi1ELb0ELi0ELi0EE3runElllPKS3_lS6_lPS3_lRS5_RNS0_15level3_blockingIS3_S3_EE
FN:261,_ZN5Eigen8internal32product_triangular_matrix_matrixISt7complexIdElLi6ELb0ELi1ELb0ELi0ELb0ELi0ELi0EE3runElllPKS3_lS6_lPS3_lRS5_RNS0_15level3_blockingIS3_S3_EE
FNDA:0,_ZN5Eigen8internal32product_triangular_matrix_matrixISt7complexIdElLi6ELb0ELi1ELb0ELi0ELb0ELi0ELi0EE3runElllPKS3_lS6_lPS3_lRS5_RNS0_15level3_blockingIS3_S3_EE
FN:401,_ZN5Eigen8internal23triangular_product_implILi1ELb1EKNS_12CwiseUnaryOpINS0_19scalar_conjugate_opISt7complexIdEEEKNS_9TransposeIKNS_6MatrixIS5_Lin1ELin1ELi1ELin1ELin1EEEEEEELb0ENS8_IS5_Lin1ELin1ELi0ELin1ELin1EEELb0EE3runISF_EEvRT_RSE_RKSF_RKNSI_6ScalarE
FNDA:0,_ZN5Eigen8internal23triangular_product_implILi1ELb1EKNS_12CwiseUnaryOpINS0_19scalar_conjugate_opISt7complexIdEEEKNS_9TransposeIKNS_6MatrixIS5_Lin1ELin1ELi1ELin1ELin1EEEEEEELb0ENS8_IS5_Lin1ELin1ELi0ELin1ELin1EEELb0EE3runISF_EEvRT_RSE_RKSF_RKNSI_6ScalarE
FN:401,_ZN5Eigen8internal23triangular_product_implILi2ELb1ENS_6MatrixISt7complexIdELin1ELin1ELi1ELin1ELin1EEELb0ENS2_IS4_Lin1ELin1ELi0ELin1ELin1EEELb0EE3runIS6_EEvRT_RKS5_RKS6_RKNS9_6ScalarE
FNDA:0,_ZN5Eigen8internal23triangular_product_implILi2ELb1ENS_6MatrixISt7complexIdELin1ELin1ELi1ELin1ELin1EEELb0ENS2_IS4_Lin1ELin1ELi0ELin1ELin1EEELb0EE3runIS6_EEvRT_RKS5_RKS6_RKNS9_6ScalarE
FN:401,_ZN5Eigen8internal23triangular_product_implILi6ELb1EKNS_12CwiseUnaryOpINS0_19scalar_conjugate_opISt7complexIdEEEKNS_9TransposeIKNS_5BlockINS_6MatrixIS5_Lin1ELin1ELi1ELin1ELin1EEELin1ELin1ELb0EEEEEEELb0ESB_Lb0EE3runINS9_IS5_Lin1ELin1ELi0ELin1ELin1EEEEEvRT_RSG_RSC_RKNSK_6ScalarE
FNDA:0,_ZN5Eigen8internal23triangular_product_implILi6ELb1EKNS_12CwiseUnaryOpINS0_19scalar_conjugate_opISt7complexIdEEEKNS_9TransposeIKNS_5BlockINS_6MatrixIS5_Lin1ELin1ELi1ELin1ELin1EEELin1ELin1ELb0EEEEEEELb0ESB_Lb0EE3runINS9_IS5_Lin1ELin1ELi0ELin1ELin1EEEEEvRT_RSG_RSC_RKNSK_6ScalarE
FN:401,_ZN5Eigen8internal23triangular_product_implILi5ELb1EKNS_5BlockINS_6MatrixISt7complexIdELin1ELin1ELi1ELin1ELin1EEELin1ELin1ELb0EEELb0ENS3_IS5_Lin1ELin1ELi0ELin1ELin1EEELb0EE3runIS7_EEvRT_RS8_RKS9_RKNSC_6ScalarE
FNDA:0,_ZN5Eigen8internal23triangular_product_implILi5ELb1EKNS_5BlockINS_6MatrixISt7complexIdELin1ELin1ELi1ELin1ELin1EEELin1ELin1ELb0EEELb0ENS3_IS5_Lin1ELin1ELi0ELin1ELin1EEELb0EE3runIS7_EEvRT_RS8_RKS9_RKNSC_6ScalarE
FNF:8
FNH:0
DA:74,0
DA:75,0
DA:105,0
DA:115,0
DA:116,0
DA:127,0
DA:128,0
DA:132,0
DA:134,0
DA:135,0
DA:137,0
DA:138,0
DA:151,0
DA:157,0
DA:158,0
DA:161,0
DA:162,0
DA:171,0
DA:182,0
DA:184,0
DA:185,0
DA:186,0
DA:192,0
DA:195,0
DA:196,0
DA:197,0
DA:199,0
DA:201,0
DA:206,0
DA:208,0
DA:210,0
DA:212,0
DA:221,0
DA:222,0
DA:224,0
DA:226,0
DA:228,0
DA:233,0
DA:105,0
DA:115,0
DA:116,0
DA:127,0
DA:128,0
DA:132,0
DA:134,0
DA:135,0
DA:137,0
DA:138,0
DA:151,0
DA:157,0
DA:158,0
DA:161,0
DA:162,0
DA:165,0
DA:167,0
DA:168,0
DA:171,0
DA:179,0
DA:182,0
DA:184,0
DA:186,0
DA:192,0
DA:195,0
DA:196,0
DA:197,0
DA:199,0
DA:201,0
DA:206,0
DA:210,0
DA:212,0
DA:221,0
DA:222,0
DA:224,0
DA:226,0
DA:228,0
DA:233,0
DA:105,0
DA:115,0
DA:116,0
DA:127,0
DA:128,0
DA:132,0
DA:134,0
DA:135,0
DA:137,0
DA:138,0
DA:151,0
DA:157,0
DA:158,0
DA:161,0
DA:162,0
DA:165,0
DA:167,0
DA:168,0
DA:171,0
DA:179,0
DA:182,0
DA:184,0
DA:186,0
DA:192,0
DA:196,0
DA:197,0
DA:199,0
DA:201,0
DA:206,0
DA:210,0
DA:212,0
DA:221,0
DA:222,0
DA:224,0
DA:226,0
DA:228,0
DA:233,0
DA:261,0
DA:272,0
DA:273,0
DA:284,0
DA:285,0
DA:287,0
DA:288,0
DA:290,0
DA:291,0
DA:306,0
DA:307,0
DA:310,0
DA:311,0
DA:321,0
DA:325,0
DA:326,0
DA:328,0
DA:331,0
DA:333,0
DA:335,0
DA:336,0
DA:340,0
DA:346,0
DA:350,0
DA:351,0
DA:354,0
DA:361,0
DA:363,0
DA:364,0
DA:367,0
DA:369,0
DA:371,0
DA:372,0
DA:375,0
DA:376,0
DA:383,0
DA:389,0
DA:401,0
DA:419,0
DA:427,0
DA:430,0
DA:437,0
DA:459,0
DA:401,0
DA:419,0
DA:425,0
DA:430,0
DA:437,0
DA:459,0
DA:401,0
DA:419,0
DA:425,0
DA:430,0
DA:437,0
DA:459,0
DA:401,0
DA:419,0
DA:427,0
DA:430,0
DA:437,0
DA:459,0
LF:174
LH:0
end_of_record
SF:/qulacs-osaka/src/cppsim/gate_matrix.hpp
FN:73,_ZN17QuantumGateMatrixD0Ev
FNDA:4,_ZN17QuantumGateMatrixD0Ev
FN:73,_ZN17QuantumGateMatrixD2Ev
FNDA:4,_ZN17QuantumGateMatrixD2Ev
FN:113,_ZNK17QuantumGateMatrix4copyEv
FNDA:0,_ZNK17QuantumGateMatrix4copyEv
FNF:3
FNH:2
DA:73,4
DA:73,8
DA:113,0
DA:114,0
LF:4
LH:2
end_of_record
SF:/qulacs-osaka/include/Eigen/src/Core/functors/BinaryFunctors.h
DA:42,59004
LF:1
LH:1
end_of_record
SF:/qulacs-osaka/include/Eigen/src/QR/HouseholderQR.h
FN:115,_ZN5Eigen13HouseholderQRINS_6MatrixISt7complexIdELin1ELin1ELi1ELin1ELin1EEEEC2IS4_EERNS_9EigenBaseIT_EE
FNDA:890,_ZN5Eigen13HouseholderQRINS_6MatrixISt7complexIdELin1ELin1ELi1ELin1ELin1EEEEC2IS4_EERNS_9EigenBaseIT_EE
FN:256,_ZN5Eigen8internal32householder_qr_inplace_unblockedINS_5BlockINS_6MatrixISt7complexIdELin1ELin1ELi1ELin1ELin1EEELin1ELin1ELb0EEENS2_INS3_IS5_Lin1ELi1ELi0ELin1ELi1EEELin1ELi1ELb0EEEEEvRT_RT0_PNSA_6ScalarE
FNDA:890,_ZN5Eigen8internal32householder_qr_inplace_unblockedINS_5BlockINS_6MatrixISt7complexIdELin1ELin1ELi1ELin1ELin1EEELin1ELin1ELb0EEENS2_INS3_IS5_Lin1ELi1ELi0ELin1ELi1EEELin1ELi1ELb0EEEEEvRT_RT0_PNSA_6ScalarE
FN:296,_ZN5Eigen8internal30householder_qr_inplace_blockedINS_6MatrixISt7complexIdELin1ELin1ELi1ELin1ELin1EEENS2_IS4_Lin1ELi1ELi0ELin1ELi1EEES4_Lb1EE3runERS5_RS6_lPS4_
FNDA:890,_ZN5Eigen8internal30householder_qr_inplace_blockedINS_6MatrixISt7complexIdELin1ELin1ELi1ELin1ELin1EEENS2_IS4_Lin1ELi1ELi0ELin1ELi1EEES4_Lb1EE3runERS5_RS6_lPS4_
FN:379,_ZN5Eigen13HouseholderQRINS_6MatrixISt7complexIdELin1ELin1ELi1ELin1ELin1EEEE14computeInPlaceEv
FNDA:890,_ZN5Eigen13HouseholderQRINS_6MatrixISt7complexIdELin1ELin1ELi1ELin1ELin1EEEE14computeInPlaceEv
FNF:4
FNH:4
DA:115,890
DA:117,890
DA:119,890
DA:121,890
DA:122,890
DA:256,890
DA:260,890
DA:261,890
DA:262,890
DA:268,890
DA:274,7958
DA:276,7068
DA:277,7068
DA:280,7068
DA:281,7068
DA:284,14136
DA:285,7068
DA:287,890
DA:296,890
DA:302,890
DA:303,890
DA:304,890
DA:308,890
DA:314,890
DA:317,1780
DA:319,890
DA:320,890
DA:321,890
DA:334,890
DA:336,890
DA:338,0
DA:339,0
DA:342,890
DA:379,890
DA:383,890
DA:384,890
DA:385,890
DA:391,890
DA:393,890
DA:394,890
LF:40
LH:38
end_of_record
SF:/qulacs-osaka/include/Eigen/src/Core/Stride.h
DA:71,12356
LF:1
LH:1
end_of_record
SF:/qulacs-osaka/include/Eigen/src/Core/functors/AssignmentFunctors.h
DA:24,68716
LF:1
LH:1
end_of_record
SF:/usr/include/c++/9/initializer_list
DA:79,156
LF:1
LH:1
end_of_record
SF:/usr/include/c++/9/bits/random.tcc
FN:396,_ZNSt23mersenne_twister_engineImLm64ELm312ELm156ELm31ELm13043109905998158313ELm29ELm6148914691236517205ELm17ELm8202884508482404352ELm37ELm18444473444759240704ELm43ELm6364136223846793005EE11_M_gen_randEv
FNDA:0,_ZNSt23mersenne_twister_engineImLm64ELm312ELm156ELm31ELm13043109905998158313ELm29ELm6148914691236517205ELm17ELm8202884508482404352ELm37ELm18444473444759240704ELm43ELm6364136223846793005EE11_M_gen_randEv
FN:452,_ZNSt23mersenne_twister_engineImLm64ELm312ELm156ELm31ELm13043109905998158313ELm29ELm6148914691236517205ELm17ELm8202884508482404352ELm37ELm18444473444759240704ELm43ELm6364136223846793005EEclEv
FNDA:0,_ZNSt23mersenne_twister_engineImLm64ELm312ELm156ELm31ELm13043109905998158313ELm29ELm6148914691236517205ELm17ELm8202884508482404352ELm37ELm18444473444759240704ELm43ELm6364136223846793005EEclEv
FN:1788,_ZNSt19normal_distributionIdEclISt23mersenne_twister_engineImLm64ELm312ELm156ELm31ELm13043109905998158313ELm29ELm6148914691236517205ELm17ELm8202884508482404352ELm37ELm18444473444759240704ELm43ELm6364136223846793005EEEEdRT_RKNS0_10param_typeE
FNDA:274864,_ZNSt19normal_distributionIdEclISt23mersenne_twister_engineImLm64ELm312ELm156ELm31ELm13043109905998158313ELm29ELm6148914691236517205ELm17ELm8202884508482404352ELm37ELm18444473444759240704ELm43ELm6364136223846793005EEEEdRT_RKNS0_10param_typeE
FN:3316,_ZSt18generate_canonicalIdLm53ESt23mersenne_twister_engineImLm64ELm312ELm156ELm31ELm13043109905998158313ELm29ELm6148914691236517205ELm17ELm8202884508482404352ELm37ELm18444473444759240704ELm43ELm6364136223846793005EEET_RT1_
FNDA:0,_ZSt18generate_canonicalIdLm53ESt23mersenne_twister_engineImLm64ELm312ELm156ELm31ELm13043109905998158313ELm29ELm6148914691236517205ELm17ELm8202884508482404352ELm37ELm18444473444759240704ELm43ELm6364136223846793005EEET_RT1_
FNF:4
FNH:1
DA:329,1820
DA:332,567840
DA:334,566020
DA:335,566020
DA:336,566020
DA:337,566020
DA:338,566020
DA:341,1820
DA:396,0
DA:403,0
DA:405,0
DA:406,0
DA:407,0
DA:408,0
DA:411,0
DA:413,0
DA:414,0
DA:415,0
DA:416,0
DA:419,0
DA:420,0
DA:421,0
DA:422,0
DA:423,0
DA:424,0
DA:452,0
DA:457,0
DA:458,0
DA:461,0
DA:462,0
DA:463,0
DA:464,0
DA:465,0
DA:467,0
DA:1788,274864
DA:1796,274864
DA:1798,137432
DA:1799,137432
DA:1806,175143
DA:1807,175143
DA:1808,175143
DA:1810,175143
DA:1812,137432
DA:1813,137432
DA:1814,137432
DA:1815,137432
DA:1818,274864
DA:1819,274864
DA:3316,0
DA:3332,0
DA:3334,0
DA:3335,0
DA:3337,0
DA:3338,0
DA:3347,0
LF:55
LH:22
end_of_record
SF:/usr/include/c++/9/bits/vector.tcc
FN:109,_ZNSt6vectorIjSaIjEE12emplace_backIJjEEEvDpOT_
FNDA:7364,_ZNSt6vectorIjSaIjEE12emplace_backIJjEEEvDpOT_
FN:109,_ZNSt6vectorIdSaIdEE12emplace_backIJdEEEvDpOT_
FNDA:52,_ZNSt6vectorIdSaIdEE12emplace_backIJdEEEvDpOT_
FN:109,_ZNSt6vectorIySaIyEE12emplace_backIJyEEEvDpOT_
FNDA:0,_ZNSt6vectorIySaIyEE12emplace_backIJyEEEvDpOT_
FN:109,_ZNSt6vectorISt4pairIdiESaIS1_EE12emplace_backIJS1_EEEvDpOT_
FNDA:16,_ZNSt6vectorISt4pairIdiESaIS1_EE12emplace_backIJS1_EEEvDpOT_
FN:109,_ZNSt6vectorI15TargetQubitInfoSaIS0_EE12emplace_backIJS0_EEEvDpOT_
FNDA:5135,_ZNSt6vectorI15TargetQubitInfoSaIS0_EE12emplace_backIJS0_EEEvDpOT_
FN:109,_ZNSt6vectorI16ControlQubitInfoSaIS0_EE12emplace_backIJS0_EEEvDpOT_
FNDA:976,_ZNSt6vectorI16ControlQubitInfoSaIS0_EE12emplace_backIJS0_EEEvDpOT_
FN:109,_ZNSt6vectorIP22GeneralQuantumOperatorSaIS1_EE12emplace_backIJS1_EEEvDpOT_
FNDA:76,_ZNSt6vectorIP22GeneralQuantumOperatorSaIS1_EE12emplace_backIJS1_EEEvDpOT_
FN:109,_ZNSt6vectorIP15QuantumGateBaseSaIS1_EE12emplace_backIJS1_EEEvDpOT_
FNDA:336,_ZNSt6vectorIP15QuantumGateBaseSaIS1_EE12emplace_backIJS1_EEEvDpOT_
FN:198,_ZNSt6vectorIP15QuantumGateBaseSaIS1_EEaSERKS3_
FNDA:4,_ZNSt6vectorIP15QuantumGateBaseSaIS1_EEaSERKS3_
FN:198,_ZNSt6vectorIjSaIjEEaSERKS1_
FNDA:0,_ZNSt6vectorIjSaIjEEaSERKS1_
FN:198,_ZNSt6vectorI16ControlQubitInfoSaIS0_EEaSERKS2_
FNDA:5172,_ZNSt6vectorI16ControlQubitInfoSaIS0_EEaSERKS2_
FN:198,_ZNSt6vectorI15TargetQubitInfoSaIS0_EEaSERKS2_
FNDA:5172,_ZNSt6vectorI15TargetQubitInfoSaIS0_EEaSERKS2_
FN:426,_ZNSt6vectorIdSaIdEE17_M_realloc_insertIJdEEEvN9__gnu_cxx17__normal_iteratorIPdS1_EEDpOT_
FNDA:0,_ZNSt6vectorIdSaIdEE17_M_realloc_insertIJdEEEvN9__gnu_cxx17__normal_iteratorIPdS1_EEDpOT_
FN:426,_ZNSt6vectorIySaIyEE17_M_realloc_insertIJyEEEvN9__gnu_cxx17__normal_iteratorIPyS1_EEDpOT_
FNDA:0,_ZNSt6vectorIySaIyEE17_M_realloc_insertIJyEEEvN9__gnu_cxx17__normal_iteratorIPyS1_EEDpOT_
FN:426,_ZNSt6vectorISt4pairIdiESaIS1_EE17_M_realloc_insertIJS1_EEEvN9__gnu_cxx17__normal_iteratorIPS1_S3_EEDpOT_
FNDA:12,_ZNSt6vectorISt4pairIdiESaIS1_EE17_M_realloc_insertIJS1_EEEvN9__gnu_cxx17__normal_iteratorIPS1_S3_EEDpOT_
FN:426,_ZNSt6vectorI15TargetQubitInfoSaIS0_EE17_M_realloc_insertIJS0_EEEvN9__gnu_cxx17__normal_iteratorIPS0_S2_EEDpOT_
FNDA:16949,_ZNSt6vectorI15TargetQubitInfoSaIS0_EE17_M_realloc_insertIJS0_EEEvN9__gnu_cxx17__normal_iteratorIPS0_S2_EEDpOT_
FN:426,_ZNSt6vectorI16ControlQubitInfoSaIS0_EE17_M_realloc_insertIJS0_EEEvN9__gnu_cxx17__normal_iteratorIPS0_S2_EEDpOT_
FNDA:1135,_ZNSt6vectorI16ControlQubitInfoSaIS0_EE17_M_realloc_insertIJS0_EEEvN9__gnu_cxx17__normal_iteratorIPS0_S2_EEDpOT_
FN:426,_ZNSt6vectorIP15QuantumGateBaseSaIS1_EE17_M_realloc_insertIJRKS1_EEEvN9__gnu_cxx17__normal_iteratorIPS1_S3_EEDpOT_
FNDA:0,_ZNSt6vectorIP15QuantumGateBaseSaIS1_EE17_M_realloc_insertIJRKS1_EEEvN9__gnu_cxx17__normal_iteratorIPS1_S3_EEDpOT_
FN:426,_ZNSt6vectorIP22GeneralQuantumOperatorSaIS1_EE17_M_realloc_insertIJS1_EEEvN9__gnu_cxx17__normal_iteratorIPS1_S3_EEDpOT_
FNDA:0,_ZNSt6vectorIP22GeneralQuantumOperatorSaIS1_EE17_M_realloc_insertIJS1_EEEvN9__gnu_cxx17__normal_iteratorIPS1_S3_EEDpOT_
FN:426,_ZNSt6vectorIP15QuantumGateBaseSaIS1_EE17_M_realloc_insertIJS1_EEEvN9__gnu_cxx17__normal_iteratorIPS1_S3_EEDpOT_
FNDA:0,_ZNSt6vectorIP15QuantumGateBaseSaIS1_EE17_M_realloc_insertIJS1_EEEvN9__gnu_cxx17__normal_iteratorIPS1_S3_EEDpOT_
FN:426,_ZNSt6vectorIdSaIdEE17_M_realloc_insertIJRKdEEEvN9__gnu_cxx17__normal_iteratorIPdS1_EEDpOT_
FNDA:0,_ZNSt6vectorIdSaIdEE17_M_realloc_insertIJRKdEEEvN9__gnu_cxx17__normal_iteratorIPdS1_EEDpOT_
FN:426,_ZNSt6vectorIjSaIjEE17_M_realloc_insertIJjEEEvN9__gnu_cxx17__normal_iteratorIPjS1_EEDpOT_
FNDA:0,_ZNSt6vectorIjSaIjEE17_M_realloc_insertIJjEEEvN9__gnu_cxx17__normal_iteratorIPjS1_EEDpOT_
FN:426,_ZNSt6vectorIjSaIjEE17_M_realloc_insertIJRKjEEEvN9__gnu_cxx17__normal_iteratorIPjS1_EEDpOT_
FNDA:0,_ZNSt6vectorIjSaIjEE17_M_realloc_insertIJRKjEEEvN9__gnu_cxx17__normal_iteratorIPjS1_EEDpOT_
FN:509,_ZNSt6vectorIjSaIjEE14_M_fill_insertEN9__gnu_cxx17__normal_iteratorIPjS1_EEmRKj
FNDA:0,_ZNSt6vectorIjSaIjEE14_M_fill_insertEN9__gnu_cxx17__normal_iteratorIPjS1_EEmRKj
FNF:24
FNH:13
DA:109,7364
DA:112,7364
DA:115,264
DA:117,264
DA:121,7100
DA:125,7364
DA:109,336
DA:112,336
DA:115,128
DA:117,128
DA:121,208
DA:125,336
DA:109,76
DA:112,76
DA:115,8
DA:117,8
DA:121,68
DA:125,76
DA:109,976
DA:112,976
DA:117,0
DA:121,976
DA:125,976
DA:109,5135
DA:112,5135
DA:117,52
DA:121,5083
DA:125,5135
DA:109,16
DA:112,16
DA:117,4
DA:121,12
DA:125,16
DA:109,0
DA:112,0
DA:115,0
DA:117,0
DA:121,0
DA:125,0
DA:109,52
DA:112,52
DA:115,4
DA:117,4
DA:121,48
DA:125,52
DA:198,4
DA:201,4
DA:223,4
DA:224,4
DA:226,0
DA:228,0
DA:233,0
DA:234,0
DA:236,4
DA:243,0
DA:245,0
DA:246,0
DA:250,4
DA:252,4
DA:198,0
DA:201,0
DA:223,0
DA:224,0
DA:226,0
DA:228,0
DA:233,0
DA:234,0
DA:236,0
DA:243,0
DA:245,0
DA:246,0
DA:250,0
DA:252,0
DA:198,5172
DA:201,5172
DA:223,5172
DA:224,5172
DA:228,960
DA:233,960
DA:234,960
DA:236,4212
DA:243,0
DA:250,5172
DA:252,5172
DA:198,5172
DA:201,5172
DA:223,5172
DA:224,5172
DA:228,5172
DA:233,5172
DA:234,5172
DA:236,0
DA:243,0
DA:250,5172
DA:252,5172
DA:426,0
DA:435,0
DA:437,0
DA:438,0
DA:440,0
DA:449,0
DA:450,0
DA:464,0
DA:502,0
DA:503,0
DA:504,0
DA:505,0
DA:426,0
DA:435,0
DA:437,0
DA:438,0
DA:440,0
DA:449,0
DA:450,0
DA:464,0
DA:502,0
DA:503,0
DA:504,0
DA:505,0
DA:426,0
DA:435,0
DA:437,0
DA:438,0
DA:440,0
DA:449,0
DA:450,0
DA:464,0
DA:502,0
DA:503,0
DA:504,0
DA:505,0
DA:426,1135
DA:435,1135
DA:437,1135
DA:438,1135
DA:440,1135
DA:449,1135
DA:450,1135
DA:464,1135
DA:502,1135
DA:503,1135
DA:504,1135
DA:505,1135
DA:426,16949
DA:435,16949
DA:437,16949
DA:438,16949
DA:440,16949
DA:449,16949
DA:450,16949
DA:464,16949
DA:502,16949
DA:503,16949
DA:504,16949
DA:505,16949
DA:426,12
DA:435,12
DA:437,12
DA:438,12
DA:440,12
DA:449,12
DA:450,12
DA:464,12
DA:502,12
DA:503,12
DA:504,12
DA:505,12
DA:426,0
DA:435,0
DA:437,0
DA:438,0
DA:440,0
DA:449,0
DA:450,0
DA:464,0
DA:502,0
DA:503,0
DA:504,0
DA:505,0
DA:426,0
DA:435,0
DA:437,0
DA:438,0
DA:440,0
DA:449,0
DA:450,0
DA:464,0
DA:502,0
DA:503,0
DA:504,0
DA:505,0
DA:426,0
DA:435,0
DA:437,0
DA:438,0
DA:440,0
DA:449,0
DA:450,0
DA:464,0
DA:502,0
DA:503,0
DA:504,0
DA:505,0
DA:426,0
DA:435,0
DA:437,0
DA:438,0
DA:440,0
DA:449,0
DA:450,0
DA:464,0
DA:502,0
DA:503,0
DA:504,0
DA:505,0
DA:426,0
DA:435,0
DA:437,0
DA:438,0
DA:440,0
DA:449,0
DA:450,0
DA:464,0
DA:502,0
DA:503,0
DA:504,0
DA:505,0
DA:509,0
DA:512,0
DA:514,0
DA:515,0
DA:523,0
DA:525,0
DA:528,0
DA:532,0
DA:536,0
DA:542,0
DA:543,0
DA:551,0
DA:558,0
DA:561,0
DA:566,0
DA:573,0
DA:576,0
DA:580,0
DA:601,0
DA:602,0
DA:603,0
DA:606,0
LF:249
LH:100
end_of_record
SF:/usr/include/c++/9/bits/move.h
DA:193,0
DA:194,0
DA:195,0
LF:3
LH:0
end_of_record
SF:/qulacs-osaka/include/Eigen/src/Core/ProductEvaluators.h
FN:285,_ZN5Eigen8internal26outer_product_selector_runINS_5BlockINS2_INS_6MatrixISt7complexIdELin1ELin1ELi1ELin1ELin1EEELin1ELin1ELb0EEELin1ELin1ELb0EEENS_13CwiseBinaryOpINS0_17scalar_product_opIS5_S5_EEKNS_14CwiseNullaryOpINS0_18scalar_constant_opIS5_EEKNS3_IS5_Lin1ELi1ELi0ELin1ELi1EEEEEKNS2_IKS6_Lin1ELi1ELb0EEEEENS_3MapINS3_IS5_Li1ELin1ELi1ELi1ELin1EEELi0ENS_6StrideILi0ELi0EEEEENS0_20generic_product_implISM_SR_NS_10DenseShapeEST_Li5EE3subEEEvRT_RKT0_RKT1_RKT2_RKNS0_9true_typeE
FNDA:0,_ZN5Eigen8internal26outer_product_selector_runINS_5BlockINS2_INS_6MatrixISt7complexIdELin1ELin1ELi1ELin1ELin1EEELin1ELin1ELb0EEELin1ELin1ELb0EEENS_13CwiseBinaryOpINS0_17scalar_product_opIS5_S5_EEKNS_14CwiseNullaryOpINS0_18scalar_constant_opIS5_EEKNS3_IS5_Lin1ELi1ELi0ELin1ELi1EEEEEKNS2_IKS6_Lin1ELi1ELb0EEEEENS_3MapINS3_IS5_Li1ELin1ELi1ELi1ELin1EEELi0ENS_6StrideILi0ELi0EEEEENS0_20generic_product_implISM_SR_NS_10DenseShapeEST_Li5EE3subEEEvRT_RKT0_RKT1_RKT2_RKNS0_9true_typeE
FN:285,_ZN5Eigen8internal26outer_product_selector_runINS_5BlockINS2_INS_6MatrixISt7complexIdELin1ELin1ELi1ELin1ELin1EEELin1ELin1ELb0EEELin1ELin1ELb0EEENS_13CwiseBinaryOpINS0_17scalar_product_opIS5_S5_EEKNS_14CwiseNullaryOpINS0_18scalar_constant_opIS5_EEKNS3_IS5_Lin1ELi1ELi0ELin1ELi1EEEEEKNS_3MapISF_Li0ENS_6StrideILi0ELi0EEEEEEENS_9TransposeIKNS2_IKS6_Lin1ELi1ELb0EEEEENS0_20generic_product_implISO_ST_NS_10DenseShapeESV_Li5EE3subEEEvRT_RKT0_RKT1_RKT2_RKNS0_9true_typeE
FNDA:0,_ZN5Eigen8internal26outer_product_selector_runINS_5BlockINS2_INS_6MatrixISt7complexIdELin1ELin1ELi1ELin1ELin1EEELin1ELin1ELb0EEELin1ELin1ELb0EEENS_13CwiseBinaryOpINS0_17scalar_product_opIS5_S5_EEKNS_14CwiseNullaryOpINS0_18scalar_constant_opIS5_EEKNS3_IS5_Lin1ELi1ELi0ELin1ELi1EEEEEKNS_3MapISF_Li0ENS_6StrideILi0ELi0EEEEEEENS_9TransposeIKNS2_IKS6_Lin1ELi1ELb0EEEEENS0_20generic_product_implISO_ST_NS_10DenseShapeESV_Li5EE3subEEEvRT_RKT0_RKT1_RKT2_RKNS0_9true_typeE
FN:285,_ZN5Eigen8internal26outer_product_selector_runINS_5BlockINS2_INS2_INS_6MatrixISt7complexIdELin1ELin1ELi1ELin1ELin1EEELin1ELin1ELb0EEELin1ELin1ELb0EEELin1ELin1ELb0EEENS_13CwiseBinaryOpINS0_17scalar_product_opIS5_S5_EEKNS_14CwiseNullaryOpINS0_18scalar_constant_opIS5_EEKNS3_IS5_Lin1ELi1ELi0ELin1ELi1EEEEEKNS2_INS2_IS7_Lin1ELi1ELb0EEELin1ELi1ELb0EEEEENS_3MapINS3_IS5_Li1ELin1ELi1ELi1ELin1EEELi0ENS_6StrideILi0ELi0EEEEENS0_20generic_product_implISN_SS_NS_10DenseShapeESU_Li5EE3subEEEvRT_RKT0_RKT1_RKT2_RKNS0_9true_typeE
FNDA:6178,_ZN5Eigen8internal26outer_product_selector_runINS_5BlockINS2_INS2_INS_6MatrixISt7complexIdELin1ELin1ELi1ELin1ELin1EEELin1ELin1ELb0EEELin1ELin1ELb0EEELin1ELin1ELb0EEENS_13CwiseBinaryOpINS0_17scalar_product_opIS5_S5_EEKNS_14CwiseNullaryOpINS0_18scalar_constant_opIS5_EEKNS3_IS5_Lin1ELi1ELi0ELin1ELi1EEEEEKNS2_INS2_IS7_Lin1ELi1ELb0EEELin1ELi1ELb0EEEEENS_3MapINS3_IS5_Li1ELin1ELi1ELi1ELin1EEELi0ENS_6StrideILi0ELi0EEEEENS0_20generic_product_implISN_SS_NS_10DenseShapeESU_Li5EE3subEEEvRT_RKT0_RKT1_RKT2_RKNS0_9true_typeE
FN:348,_ZN5Eigen8internal25generic_product_impl_baseINS_12CwiseUnaryOpINS0_19scalar_conjugate_opISt7complexIdEEEKNS_9TransposeIKNS_5BlockIKNS_6MatrixIS5_Lin1ELin1ELi1ELin1ELin1EEELin1ELi1ELb0EEEEEEENS8_INS8_ISA_Lin1ELin1ELb0EEELin1ELin1ELb0EEENS0_20generic_product_implISG_SI_NS_10DenseShapeESK_Li7EEEE6evalToINS_3MapINS9_IS5_Li1ELin1ELi1ELi1ELin1EEELi0ENS_6StrideILi0ELi0EEEEEEEvRT_RKSG_RKSI_
FNDA:0,_ZN5Eigen8internal25generic_product_impl_baseINS_12CwiseUnaryOpINS0_19scalar_conjugate_opISt7complexIdEEEKNS_9TransposeIKNS_5BlockIKNS_6MatrixIS5_Lin1ELin1ELi1ELin1ELin1EEELin1ELi1ELb0EEEEEEENS8_INS8_ISA_Lin1ELin1ELb0EEELin1ELin1ELb0EEENS0_20generic_product_implISG_SI_NS_10DenseShapeESK_Li7EEEE6evalToINS_3MapINS9_IS5_Li1ELin1ELi1ELi1ELin1EEELi0ENS_6StrideILi0ELi0EEEEEEEvRT_RKSG_RKSI_
FN:348,_ZN5Eigen8internal25generic_product_impl_baseINS_5BlockINS2_INS_6MatrixISt7complexIdELin1ELin1ELi1ELin1ELin1EEELin1ELin1ELb0EEELin1ELin1ELb0EEENS_12CwiseUnaryOpINS0_19scalar_conjugate_opIS5_EEKNS2_IKS6_Lin1ELi1ELb0EEEEENS0_20generic_product_implIS8_SF_NS_10DenseShapeESH_Li7EEEE6evalToINS_3MapINS3_IS5_Lin1ELi1ELi0ELin1ELi1EEELi0ENS_6StrideILi0ELi0EEEEEEEvRT_RKS8_RKSF_
FNDA:0,_ZN5Eigen8internal25generic_product_impl_baseINS_5BlockINS2_INS_6MatrixISt7complexIdELin1ELin1ELi1ELin1ELin1EEELin1ELin1ELb0EEELin1ELin1ELb0EEENS_12CwiseUnaryOpINS0_19scalar_conjugate_opIS5_EEKNS2_IKS6_Lin1ELi1ELb0EEEEENS0_20generic_product_implIS8_SF_NS_10DenseShapeESH_Li7EEEE6evalToINS_3MapINS3_IS5_Lin1ELi1ELi0ELin1ELi1EEELi0ENS_6StrideILi0ELi0EEEEEEEvRT_RKS8_RKSF_
FN:348,_ZN5Eigen8internal25generic_product_impl_baseINS_14TriangularViewIKNS_12CwiseUnaryOpINS0_19scalar_conjugate_opISt7complexIdEEEKNS_9TransposeIKNS_6MatrixIS6_Lin1ELin1ELi1ELin1ELin1EEEEEEELj1EEENS9_IS6_Lin1ELin1ELi0ELin1ELin1EEENS0_20generic_product_implISG_SH_NS_15TriangularShapeENS_10DenseShapeELi8EEEE6evalToISH_EEvRT_RKSG_RKSH_
FNDA:0,_ZN5Eigen8internal25generic_product_impl_baseINS_14TriangularViewIKNS_12CwiseUnaryOpINS0_19scalar_conjugate_opISt7complexIdEEEKNS_9TransposeIKNS_6MatrixIS6_Lin1ELin1ELi1ELin1ELin1EEEEEEELj1EEENS9_IS6_Lin1ELin1ELi0ELin1ELin1EEENS0_20generic_product_implISG_SH_NS_15TriangularShapeENS_10DenseShapeELi8EEEE6evalToISH_EEvRT_RKSG_RKSH_
FN:348,_ZN5Eigen8internal25generic_product_impl_baseINS_14TriangularViewINS_6MatrixISt7complexIdELin1ELin1ELi1ELin1ELin1EEELj2EEENS3_IS5_Lin1ELin1ELi0ELin1ELin1EEENS0_20generic_product_implIS7_S8_NS_15TriangularShapeENS_10DenseShapeELi8EEEE6evalToIS8_EEvRT_RKS7_RKS8_
FNDA:0,_ZN5Eigen8internal25generic_product_impl_baseINS_14TriangularViewINS_6MatrixISt7complexIdELin1ELin1ELi1ELin1ELin1EEELj2EEENS3_IS5_Lin1ELin1ELi0ELin1ELin1EEENS0_20generic_product_implIS7_S8_NS_15TriangularShapeENS_10DenseShapeELi8EEEE6evalToIS8_EEvRT_RKS7_RKS8_
FN:348,_ZN5Eigen8internal25generic_product_impl_baseINS_5BlockINS2_INS_6MatrixISt7complexIdELin1ELin1ELi1ELin1ELin1EEELi1ELin1ELb1EEELi1ELin1ELb0EEENS_14TriangularViewINS2_IS6_Lin1ELin1ELb0EEELj2EEENS0_20generic_product_implIS8_SB_NS_10DenseShapeENS_15TriangularShapeELi7EEEE6evalToINS3_IS5_Li1ELin1ELi1ELi1ELin1EEEEEvRT_RKS8_RKSB_
FNDA:0,_ZN5Eigen8internal25generic_product_impl_baseINS_5BlockINS2_INS_6MatrixISt7complexIdELin1ELin1ELi1ELin1ELin1EEELi1ELin1ELb1EEELi1ELin1ELb0EEENS_14TriangularViewINS2_IS6_Lin1ELin1ELb0EEELj2EEENS0_20generic_product_implIS8_SB_NS_10DenseShapeENS_15TriangularShapeELi7EEEE6evalToINS3_IS5_Li1ELin1ELi1ELi1ELin1EEEEEvRT_RKS8_RKSB_
FN:348,_ZN5Eigen8internal25generic_product_impl_baseINS_14TriangularViewIKNS_12CwiseUnaryOpINS0_19scalar_conjugate_opISt7complexIdEEEKNS_9TransposeIKNS_5BlockINS_6MatrixIS6_Lin1ELin1ELi1ELin1ELin1EEELin1ELin1ELb0EEEEEEELj6EEESC_NS0_20generic_product_implISI_SC_NS_15TriangularShapeENS_10DenseShapeELi8EEEE6evalToINSA_IS6_Lin1ELin1ELi0ELin1ELin1EEEEEvRT_RKSI_RSD_
FNDA:0,_ZN5Eigen8internal25generic_product_impl_baseINS_14TriangularViewIKNS_12CwiseUnaryOpINS0_19scalar_conjugate_opISt7complexIdEEEKNS_9TransposeIKNS_5BlockINS_6MatrixIS6_Lin1ELin1ELi1ELin1ELin1EEELin1ELin1ELb0EEEEEEELj6EEESC_NS0_20generic_product_implISI_SC_NS_15TriangularShapeENS_10DenseShapeELi8EEEE6evalToINSA_IS6_Lin1ELin1ELi0ELin1ELin1EEEEEvRT_RKSI_RSD_
FN:348,_ZN5Eigen8internal25generic_product_impl_baseINS_13CwiseBinaryOpINS0_17scalar_product_opISt7complexIdES5_EEKNS_14CwiseNullaryOpINS0_18scalar_constant_opIS5_EEKNS_6MatrixIS5_Li1ELin1ELi1ELi1ELin1EEEEEKNS_12CwiseUnaryOpINS0_19scalar_conjugate_opIS5_EEKNS_9TransposeIKNS_5BlockIKNSJ_IKNSJ_INSA_IS5_Lin1ELin1ELi1ELin1ELin1EEELin1ELin1ELb0EEELin1ELi1ELb0EEELin1ELi1ELb0EEEEEEEEENS_14TriangularViewIKNSJ_ISM_Lin1ELin1ELb0EEELj5EEENS0_20generic_product_implISV_SZ_NS_10DenseShapeENS_15TriangularShapeELi7EEEE6evalToINSJ_INSJ_ISK_Li1ELin1ELb1EEELi1ELin1ELb0EEEEEvRT_RKSV_RKSZ_
